///////////////////////////////////////////////////////////////////////////////
//
// IAR C/C++ Compiler V9.30.1.3056 for 8051               17/Apr/2018  20:44:27
// Copyright 2004-2015 IAR Systems AB.
// Standalone license - IAR Embedded Workbench for 8051
//
//    Core               =  plain
//    Code model         =  banked
//    Data model         =  large
//    Calling convention =  xdata reentrant
//    Constant location  =  data_rom
//    Dptr setup         =  1,16
//                          
//    Source file        =  
//        D:\design\ZStack-2.5.1a\Projects\zstack\Samples\SampleApp\Source\BH1750FVI.c
//    Command line       =  
//        -f
//        D:\design\ZStack-2.5.1a\Projects\zstack\Samples\SampleApp\CC2530DB\..\..\..\Tools\CC2530DB\f8wCoord.cfg
//        (-DCPU32MHZ -DROOT=__near_func -DMAC_CFG_APP_PENDING_QUEUE=TRUE
//        -DMAC_CFG_TX_DATA_MAX=5 -DMAC_CFG_TX_MAX=8 -DMAC_CFG_RX_MAX=5
//        -DZDO_COORDINATOR -DRTR_NWK) -f
//        D:\design\ZStack-2.5.1a\Projects\zstack\Samples\SampleApp\CC2530DB\..\..\..\Tools\CC2530DB\f8wConfig.cfg
//        (-DZIGBEEPRO -DSECURE=0 -DZG_SECURE_DYNAMIC=0 -DREFLECTOR
//        -DDEFAULT_CHANLIST=0x00000800 -DZDAPP_CONFIG_PAN_ID=0x333;
//        -DNWK_START_DELAY=100 -DEXTENDED_JOINING_RANDOM_MASK=0x007F
//        -DBEACON_REQUEST_DELAY=100 -DBEACON_REQ_DELAY_MASK=0x00FF
//        -DLINK_STATUS_JITTER_MASK=0x007F -DROUTE_EXPIRY_TIME=30
//        -DAPSC_ACK_WAIT_DURATION_POLLED=3000 -DNWK_INDIRECT_MSG_TIMEOUT=7
//        -DMAX_RREQ_ENTRIES=8 -DAPSC_MAX_FRAME_RETRIES=3
//        -DNWK_MAX_DATA_RETRIES=2 -DMAX_POLL_FAILURE_RETRIES=2 -DMAX_BCAST=9
//        -DAPS_MAX_GROUPS=16 -DMAX_RTG_ENTRIES=40 -DNWK_MAX_BINDING_ENTRIES=4
//        -DMAX_BINDING_CLUSTER_IDS=4 "-DDEFAULT_KEY={0x01, 0x03, 0x05, 0x07,
//        0x09, 0x0B, 0x0D, 0x0F, 0x00, 0x02, 0x04, 0x06, 0x08, 0x0A, 0x0C,
//        0x0D}" -DMAC_MAX_FRAME_SIZE=116 -DZDNWKMGR_MIN_TRANSMISSIONS=20
//        "-DCONST=const __code" -DGENERIC=__generic -DRFD_RCVC_ALWAYS_ON=FALSE
//        -DPOLL_RATE=0 -DQUEUED_POLL_RATE=0 -DRESPONSE_POLL_RATE=0)
//        -DREJOIN_POLL_RATE=1000
//        D:\design\ZStack-2.5.1a\Projects\zstack\Samples\SampleApp\Source\BH1750FVI.c
//        -D ZTOOL_P1 -D xMT_TASK -D xMT_SYS_FUNC -D xMT_ZDO_FUNC -D
//        xLCD_SUPPORTED=DEBUG -lC
//        D:\design\ZStack-2.5.1a\Projects\zstack\Samples\SampleApp\CC2530DB\CoordinatorEB\List
//        -lA
//        D:\design\ZStack-2.5.1a\Projects\zstack\Samples\SampleApp\CC2530DB\CoordinatorEB\List
//        --diag_suppress Pe001,Pa010 -o
//        D:\design\ZStack-2.5.1a\Projects\zstack\Samples\SampleApp\CC2530DB\CoordinatorEB\Obj
//        -e --no_code_motion --debug --core=plain --dptr=16,1
//        --data_model=large --code_model=banked
//        --calling_convention=xdata_reentrant --place_constants=data_rom
//        --nr_virtual_regs 8 -I
//        D:\design\ZStack-2.5.1a\Projects\zstack\Samples\SampleApp\CC2530DB\
//        -I
//        D:\design\ZStack-2.5.1a\Projects\zstack\Samples\SampleApp\CC2530DB\..\Source\
//        -I
//        D:\design\ZStack-2.5.1a\Projects\zstack\Samples\SampleApp\CC2530DB\..\..\..\ZMain\TI2530DB\
//        -I
//        D:\design\ZStack-2.5.1a\Projects\zstack\Samples\SampleApp\CC2530DB\..\..\..\..\..\Components\hal\include\
//        -I
//        D:\design\ZStack-2.5.1a\Projects\zstack\Samples\SampleApp\CC2530DB\..\..\..\..\..\Components\hal\target\CC2530EB\
//        -I
//        D:\design\ZStack-2.5.1a\Projects\zstack\Samples\SampleApp\CC2530DB\..\..\..\..\..\Components\mac\include\
//        -I
//        D:\design\ZStack-2.5.1a\Projects\zstack\Samples\SampleApp\CC2530DB\..\..\..\..\..\Components\mac\high_level\
//        -I
//        D:\design\ZStack-2.5.1a\Projects\zstack\Samples\SampleApp\CC2530DB\..\..\..\..\..\Components\mac\low_level\srf04\
//        -I
//        D:\design\ZStack-2.5.1a\Projects\zstack\Samples\SampleApp\CC2530DB\..\..\..\..\..\Components\mac\low_level\srf04\single_chip\
//        -I
//        D:\design\ZStack-2.5.1a\Projects\zstack\Samples\SampleApp\CC2530DB\..\..\..\..\..\Components\mt\
//        -I
//        D:\design\ZStack-2.5.1a\Projects\zstack\Samples\SampleApp\CC2530DB\..\..\..\..\..\Components\osal\include\
//        -I
//        D:\design\ZStack-2.5.1a\Projects\zstack\Samples\SampleApp\CC2530DB\..\..\..\..\..\Components\services\saddr\
//        -I
//        D:\design\ZStack-2.5.1a\Projects\zstack\Samples\SampleApp\CC2530DB\..\..\..\..\..\Components\services\sdata\
//        -I
//        D:\design\ZStack-2.5.1a\Projects\zstack\Samples\SampleApp\CC2530DB\..\..\..\..\..\Components\stack\af\
//        -I
//        D:\design\ZStack-2.5.1a\Projects\zstack\Samples\SampleApp\CC2530DB\..\..\..\..\..\Components\stack\nwk\
//        -I
//        D:\design\ZStack-2.5.1a\Projects\zstack\Samples\SampleApp\CC2530DB\..\..\..\..\..\Components\stack\sapi\
//        -I
//        D:\design\ZStack-2.5.1a\Projects\zstack\Samples\SampleApp\CC2530DB\..\..\..\..\..\Components\stack\sec\
//        -I
//        D:\design\ZStack-2.5.1a\Projects\zstack\Samples\SampleApp\CC2530DB\..\..\..\..\..\Components\stack\sys\
//        -I
//        D:\design\ZStack-2.5.1a\Projects\zstack\Samples\SampleApp\CC2530DB\..\..\..\..\..\Components\stack\zdo\
//        -I
//        D:\design\ZStack-2.5.1a\Projects\zstack\Samples\SampleApp\CC2530DB\..\..\..\..\..\Components\zmac\
//        -I
//        D:\design\ZStack-2.5.1a\Projects\zstack\Samples\SampleApp\CC2530DB\..\..\..\..\..\Components\zmac\f8w\
//        -Ohz
//    List file          =  
//        D:\design\ZStack-2.5.1a\Projects\zstack\Samples\SampleApp\CC2530DB\CoordinatorEB\List\BH1750FVI.s51
//
///////////////////////////////////////////////////////////////////////////////

        NAME BH1750FVI

        RTMODEL "__SystemLibrary", "CLib"
        RTMODEL "__calling_convention", "xdata_reentrant"
        RTMODEL "__code_model", "banked"
        RTMODEL "__core", "plain"
        RTMODEL "__data_model", "large"
        RTMODEL "__dptr_size", "16"
        RTMODEL "__extended_stack", "disabled"
        RTMODEL "__location_for_constants", "data"
        RTMODEL "__number_of_dptrs", "1"
        RTMODEL "__rt_version", "1"

        RSEG DOVERLAY:DATA:NOROOT(0)
        RSEG IOVERLAY:IDATA:NOROOT(0)
        RSEG ISTACK:IDATA:NOROOT(0)
        RSEG PSTACK:XDATA:NOROOT(0)
        RSEG XSTACK:XDATA:NOROOT(0)

        EXTERN ?V0
        EXTERN ?V1
        EXTERN ?ALLOC_XSTACK8
        EXTERN ?BANKED_ENTER_XDATA
        EXTERN ?BANKED_LEAVE_XDATA
        EXTERN ?BDISPATCH
        EXTERN ?BRET
        EXTERN ?DEALLOC_XSTACK8
        EXTERN ?US_DIV_MOD
        EXTERN ?XSP
        EXTERN ?XSTACK_DISP0_8

        PUBLIC `??BH1750_Init::?relay`
        FUNCTION `??BH1750_Init::?relay`,0203H
        PUBLIC `??BH1750_Read::?relay`
        FUNCTION `??BH1750_Read::?relay`,0203H
        PUBLIC `??BH1750_Read_Str::?relay`
        FUNCTION `??BH1750_Read_Str::?relay`,0203H
        PUBLIC BH1750_Init
        FUNCTION BH1750_Init,021203H
        ARGFRAME XSTACK, 0, STACK
        LOCFRAME ISTACK, 2, STACK
        PUBLIC BH1750_Read
        FUNCTION BH1750_Read,0a1203H
        ARGFRAME XSTACK, 0, STACK
        LOCFRAME ISTACK, 1, STACK
        LOCFRAME XSTACK, 11, STACK
        PUBLIC BH1750_Read_Str
        FUNCTION BH1750_Read_Str,0a1203H
        ARGFRAME XSTACK, 0, STACK
        LOCFRAME ISTACK, 1, STACK
        LOCFRAME XSTACK, 12, STACK
        
          CFI Names cfiNames0
          CFI StackFrame CFA_SP SP IDATA
          CFI StackFrame CFA_PSP16 PSP16 XDATA
          CFI StackFrame CFA_XSP16 XSP16 XDATA
          CFI StaticOverlayFrame CFA_IOVERLAY IOVERLAY
          CFI StaticOverlayFrame CFA_DOVERLAY DOVERLAY
          CFI Resource `PSW.CY`:1, `B.BR0`:1, `B.BR1`:1, `B.BR2`:1, `B.BR3`:1
          CFI Resource `B.BR4`:1, `B.BR5`:1, `B.BR6`:1, `B.BR7`:1, `VB.BR8`:1
          CFI Resource `VB.BR9`:1, `VB.BR10`:1, `VB.BR11`:1, `VB.BR12`:1
          CFI Resource `VB.BR13`:1, `VB.BR14`:1, `VB.BR15`:1, VB:8, B:8, A:8
          CFI Resource PSW:8, DPL0:8, DPH0:8, R0:8, R1:8, R2:8, R3:8, R4:8, R5:8
          CFI Resource R6:8, R7:8, V0:8, V1:8, V2:8, V3:8, V4:8, V5:8, V6:8, V7:8
          CFI Resource SP:8, PSPH:8, PSPL:8, PSP16:16, XSPH:8, XSPL:8, XSP16:16
          CFI VirtualResource ?RET:24
          CFI Resource ?BRET_EXT:8
          CFI VirtualResource ?RET_HIGH:8, ?RET_LOW:8
          CFI ResourceParts PSP16 PSPH, PSPL
          CFI ResourceParts XSP16 XSPH, XSPL
          CFI ResourceParts ?RET ?BRET_EXT, ?RET_HIGH, ?RET_LOW
          CFI EndNames cfiNames0
        
          CFI Common cfiCommon0 Using cfiNames0
          CFI CodeAlign 1
          CFI DataAlign -1
          CFI ReturnAddress ?RET CODE
          CFI CFA_DOVERLAY Used
          CFI CFA_IOVERLAY Used
          CFI CFA_SP SP+-3
          CFI CFA_PSP16 PSP16+0
          CFI CFA_XSP16 XSP16+0
          CFI `PSW.CY` SameValue
          CFI `B.BR0` SameValue
          CFI `B.BR1` SameValue
          CFI `B.BR2` SameValue
          CFI `B.BR3` SameValue
          CFI `B.BR4` SameValue
          CFI `B.BR5` SameValue
          CFI `B.BR6` SameValue
          CFI `B.BR7` SameValue
          CFI `VB.BR8` SameValue
          CFI `VB.BR9` SameValue
          CFI `VB.BR10` SameValue
          CFI `VB.BR11` SameValue
          CFI `VB.BR12` SameValue
          CFI `VB.BR13` SameValue
          CFI `VB.BR14` SameValue
          CFI `VB.BR15` SameValue
          CFI VB SameValue
          CFI B Undefined
          CFI A Undefined
          CFI PSW SameValue
          CFI DPL0 SameValue
          CFI DPH0 SameValue
          CFI R0 Undefined
          CFI R1 Undefined
          CFI R2 Undefined
          CFI R3 Undefined
          CFI R4 Undefined
          CFI R5 Undefined
          CFI R6 SameValue
          CFI R7 SameValue
          CFI V0 SameValue
          CFI V1 SameValue
          CFI V2 SameValue
          CFI V3 SameValue
          CFI V4 SameValue
          CFI V5 SameValue
          CFI V6 SameValue
          CFI V7 SameValue
          CFI PSPH Undefined
          CFI PSPL Undefined
          CFI XSPH Undefined
          CFI XSPL Undefined
          CFI ?RET Concat
          CFI ?BRET_EXT Frame(CFA_SP, 3)
          CFI ?RET_HIGH Frame(CFA_SP, 2)
          CFI ?RET_LOW Frame(CFA_SP, 1)
          CFI EndCommon cfiCommon0
        
        
          CFI Common cfiCommon1 Using cfiNames0
          CFI CodeAlign 1
          CFI DataAlign -1
          CFI ReturnAddress ?RET CODE
          CFI CFA_DOVERLAY Used
          CFI CFA_IOVERLAY Used
          CFI CFA_SP SP+-2
          CFI CFA_PSP16 PSP16+0
          CFI CFA_XSP16 XSP16+0
          CFI `PSW.CY` SameValue
          CFI `B.BR0` SameValue
          CFI `B.BR1` SameValue
          CFI `B.BR2` SameValue
          CFI `B.BR3` SameValue
          CFI `B.BR4` SameValue
          CFI `B.BR5` SameValue
          CFI `B.BR6` SameValue
          CFI `B.BR7` SameValue
          CFI `VB.BR8` SameValue
          CFI `VB.BR9` SameValue
          CFI `VB.BR10` SameValue
          CFI `VB.BR11` SameValue
          CFI `VB.BR12` SameValue
          CFI `VB.BR13` SameValue
          CFI `VB.BR14` SameValue
          CFI `VB.BR15` SameValue
          CFI VB SameValue
          CFI B SameValue
          CFI A SameValue
          CFI PSW SameValue
          CFI DPL0 SameValue
          CFI DPH0 SameValue
          CFI R0 SameValue
          CFI R1 SameValue
          CFI R2 SameValue
          CFI R3 SameValue
          CFI R4 SameValue
          CFI R5 SameValue
          CFI R6 SameValue
          CFI R7 SameValue
          CFI V0 SameValue
          CFI V1 SameValue
          CFI V2 SameValue
          CFI V3 SameValue
          CFI V4 SameValue
          CFI V5 SameValue
          CFI V6 SameValue
          CFI V7 SameValue
          CFI PSPH Undefined
          CFI PSPL Undefined
          CFI XSPH Undefined
          CFI XSPL Undefined
          CFI ?RET Concat
          CFI ?BRET_EXT SameValue
          CFI ?RET_HIGH Frame(CFA_SP, 2)
          CFI ?RET_LOW Frame(CFA_SP, 1)
          CFI EndCommon cfiCommon1
        
Delay_ms            SYMBOL "Delay_ms"
`??Delay_ms::?relay` SYMBOL "?relay", Delay_ms
I2C_IRcvStrExt      SYMBOL "I2C_IRcvStrExt"
`??I2C_IRcvStrExt::?relay` SYMBOL "?relay", I2C_IRcvStrExt
I2C_ISendByte       SYMBOL "I2C_ISendByte"
`??I2C_ISendByte::?relay` SYMBOL "?relay", I2C_ISendByte
BH1750_Init         SYMBOL "BH1750_Init"
`??BH1750_Init::?relay` SYMBOL "?relay", BH1750_Init
BH1750_Read         SYMBOL "BH1750_Read"
`??BH1750_Read::?relay` SYMBOL "?relay", BH1750_Read
BH1750_Read_Str     SYMBOL "BH1750_Read_Str"
`??BH1750_Read_Str::?relay` SYMBOL "?relay", BH1750_Read_Str

        EXTERN `??Delay_ms::?relay`
        FUNCTION `??Delay_ms::?relay`,00H
        EXTERN `??I2C_IRcvStrExt::?relay`
        FUNCTION `??I2C_IRcvStrExt::?relay`,00H
        EXTERN `??I2C_ISendByte::?relay`
        FUNCTION `??I2C_ISendByte::?relay`,00H
        EXTERN Delay_ms
        FUNCTION Delay_ms,0202H
        ARGFRAME ISTACK, 2, STACK
        ARGFRAME PSTACK, 0, STACK
        ARGFRAME XSTACK, 12, STACK
        ARGFRAME IOVERLAY, 0, STATIC
        ARGFRAME DOVERLAY, 0, STATIC
        EXTERN I2C_IRcvStrExt
        FUNCTION I2C_IRcvStrExt,0202H
        ARGFRAME ISTACK, 0, STACK
        ARGFRAME PSTACK, 0, STACK
        ARGFRAME XSTACK, 12, STACK
        ARGFRAME IOVERLAY, 0, STATIC
        ARGFRAME DOVERLAY, 0, STATIC
        EXTERN I2C_ISendByte
        FUNCTION I2C_ISendByte,0202H
        ARGFRAME ISTACK, 2, STACK
        ARGFRAME PSTACK, 0, STACK
        ARGFRAME XSTACK, 0, STACK
        ARGFRAME IOVERLAY, 0, STATIC
        ARGFRAME DOVERLAY, 0, STATIC

// D:\design\ZStack-2.5.1a\Projects\zstack\Samples\SampleApp\Source\BH1750FVI.c
//    1 /*
//    2 * Copyright (c) 2017,FAFU
//    3 * All rights reserved.
//    4 *
//    5 * File Name£ºBH1750FVI.c
//    6 * Abstract£ºBH1750 driver for CC2530
//    7 *
//    8 * Current Version£º1.0
//    9 * Author£ºygf
//   10 * Finish Date£º20171024
//   11 *
//   12 * Superseded Version£º1.0
//   13 * Authorship £ºygf
//   14 * Finish Date£º20171024
//   15 */ 
//   16 
//   17 #include "BH1750FVI.h"
//   18 
//   19 //A0------GND
//   20 
//   21 /*Private functions*/
//   22 
//   23 /*Exported functions*/

        RSEG BANKED_CODE:CODE:NOROOT(0)
//   24 void BH1750_Init(void)
BH1750_Init:
          CFI Block cfiBlock0 Using cfiCommon0
          CFI Function BH1750_Init
        CODE
//   25 {
        FUNCALL BH1750_Init, I2C_ISendByte
        LOCFRAME ISTACK, 2, STACK
        LOCFRAME PSTACK, 0, STACK
        LOCFRAME XSTACK, 0, STACK
        LOCFRAME IOVERLAY, 0, STATIC
        LOCFRAME DOVERLAY, 0, STATIC
        ARGFRAME ISTACK, 2, STACK
        ARGFRAME PSTACK, 0, STACK
        ARGFRAME XSTACK, 0, STACK
        ARGFRAME IOVERLAY, 0, STATIC
        ARGFRAME DOVERLAY, 0, STATIC
        FUNCALL BH1750_Init, I2C_ISendByte
        LOCFRAME ISTACK, 2, STACK
        LOCFRAME PSTACK, 0, STACK
        LOCFRAME XSTACK, 0, STACK
        LOCFRAME IOVERLAY, 0, STATIC
        LOCFRAME DOVERLAY, 0, STATIC
        ARGFRAME ISTACK, 2, STACK
        ARGFRAME PSTACK, 0, STACK
        ARGFRAME XSTACK, 0, STACK
        ARGFRAME IOVERLAY, 0, STATIC
        ARGFRAME DOVERLAY, 0, STATIC
        FUNCALL BH1750_Init, Delay_ms
        LOCFRAME ISTACK, 2, STACK
        LOCFRAME PSTACK, 0, STACK
        LOCFRAME XSTACK, 0, STACK
        LOCFRAME IOVERLAY, 0, STATIC
        LOCFRAME DOVERLAY, 0, STATIC
        ARGFRAME ISTACK, 2, STACK
        ARGFRAME PSTACK, 0, STACK
        ARGFRAME XSTACK, 0, STACK
        ARGFRAME IOVERLAY, 0, STATIC
        ARGFRAME DOVERLAY, 0, STATIC
        PUSH    DPL
          CFI DPL0 Frame(CFA_SP, 4)
          CFI CFA_SP SP+-4
        PUSH    DPH
          CFI DPH0 Frame(CFA_SP, 5)
          CFI CFA_SP SP+-5
        ; Saved register size: 2
        ; Auto size: 0
//   26    I2C_ISendByte(BH1750ADDR,POWER); 
        ; Setup parameters for call to function I2C_ISendByte
        MOV     R2,#0x1
        MOV     R1,#0x46
        LCALL   `??I2C_ISendByte::?relay`; Banked call to: I2C_ISendByte
//   27    I2C_ISendByte(BH1750ADDR,CHMODE);
        ; Setup parameters for call to function I2C_ISendByte
        MOV     R2,#0x10
        MOV     R1,#0x46
        LCALL   `??I2C_ISendByte::?relay`; Banked call to: I2C_ISendByte
//   28    Delay_ms(180);
        ; Setup parameters for call to function Delay_ms
        MOV     R2,#-0x4c
        MOV     R3,#0x0
        LCALL   `??Delay_ms::?relay` ; Banked call to: Delay_ms
//   29 }
        POP     DPH
          CFI DPH0 SameValue
          CFI CFA_SP SP+-4
        POP     DPL
          CFI DPL0 SameValue
          CFI CFA_SP SP+-3
        LJMP    ?BRET
          CFI EndBlock cfiBlock0
//   30 

        RSEG BANKED_CODE:CODE:NOROOT(0)
//   31 unsigned char BH1750_Read_Str(unsigned char *buf)
BH1750_Read_Str:
          CFI Block cfiBlock1 Using cfiCommon0
          CFI Function BH1750_Read_Str
        CODE
//   32 {
        FUNCALL BH1750_Read_Str, I2C_IRcvStrExt
        LOCFRAME ISTACK, 0, STACK
        LOCFRAME PSTACK, 0, STACK
        LOCFRAME XSTACK, 12, STACK
        LOCFRAME IOVERLAY, 0, STATIC
        LOCFRAME DOVERLAY, 0, STATIC
        ARGFRAME ISTACK, 0, STACK
        ARGFRAME PSTACK, 0, STACK
        ARGFRAME XSTACK, 12, STACK
        ARGFRAME IOVERLAY, 0, STATIC
        ARGFRAME DOVERLAY, 0, STATIC
        FUNCALL BH1750_Read_Str, Delay_ms
        LOCFRAME ISTACK, 0, STACK
        LOCFRAME PSTACK, 0, STACK
        LOCFRAME XSTACK, 12, STACK
        LOCFRAME IOVERLAY, 0, STATIC
        LOCFRAME DOVERLAY, 0, STATIC
        ARGFRAME ISTACK, 0, STACK
        ARGFRAME PSTACK, 0, STACK
        ARGFRAME XSTACK, 12, STACK
        ARGFRAME IOVERLAY, 0, STATIC
        ARGFRAME DOVERLAY, 0, STATIC
        FUNCALL BH1750_Read_Str, Delay_ms
        LOCFRAME ISTACK, 0, STACK
        LOCFRAME PSTACK, 0, STACK
        LOCFRAME XSTACK, 12, STACK
        LOCFRAME IOVERLAY, 0, STATIC
        LOCFRAME DOVERLAY, 0, STATIC
        ARGFRAME ISTACK, 0, STACK
        ARGFRAME PSTACK, 0, STACK
        ARGFRAME XSTACK, 12, STACK
        ARGFRAME IOVERLAY, 0, STATIC
        ARGFRAME DOVERLAY, 0, STATIC
        REQUIRE ?V0
        REQUIRE ?V1
        MOV     A,#-0xa
        LCALL   ?BANKED_ENTER_XDATA
          CFI DPH0 load(1, XDATA, add(CFA_XSP16, literal(-1)))
          CFI DPL0 load(1, XDATA, add(CFA_XSP16, literal(-2)))
          CFI ?BRET_EXT load(1, XDATA, add(CFA_XSP16, literal(-3)))
          CFI ?RET_HIGH load(1, XDATA, add(CFA_XSP16, literal(-4)))
          CFI ?RET_LOW load(1, XDATA, add(CFA_XSP16, literal(-5)))
          CFI R7 load(1, XDATA, add(CFA_XSP16, literal(-6)))
          CFI V1 load(1, XDATA, add(CFA_XSP16, literal(-7)))
          CFI V0 load(1, XDATA, add(CFA_XSP16, literal(-8)))
          CFI VB load(1, XDATA, add(CFA_XSP16, literal(-9)))
          CFI R6 load(1, XDATA, add(CFA_XSP16, literal(-10)))
          CFI CFA_SP SP+0
          CFI CFA_XSP16 add(XSP16, 10)
        ; Saved register size: 10
        ; Auto size: 2
        MOV     A,#-0x2
        LCALL   ?ALLOC_XSTACK8
          CFI CFA_XSP16 add(XSP16, 12)
        MOV     A,R2
        MOV     R6,A
        MOV     A,R3
        MOV     R7,A
//   33    unsigned char I2C_buf[2];
//   34    unsigned int bh1750sum = 0;
//   35    unsigned char timeout = 0;
        MOV     ?V0,#0xa
//   36    while(I2C_IRcvStrExt(0x46,I2C_buf,2) == 0)      //16bit data in total
??BH1750_Read_Str_0:
        ; Setup parameters for call to function I2C_IRcvStrExt
        MOV     R4,#0x2
        MOV     R2,?XSP + 0
        MOV     R3,?XSP + 1
        MOV     R1,#0x46
        LCALL   `??I2C_IRcvStrExt::?relay`; Banked call to: I2C_IRcvStrExt
        MOV     A,R1
        JNZ     ??BH1750_Read_Str_1
//   37    {
//   38       if(++timeout >= 10) return 1;              //timeout,sensor no response
        DEC     ?V0
        MOV     A,?V0
        JNZ     ??BH1750_Read_Str_0
        MOV     R1,#0x1
        LJMP    ??BH1750_Read_Str_2 & 0xFFFF
//   39    }
//   40    Delay_ms(180);
??BH1750_Read_Str_1:
        ; Setup parameters for call to function Delay_ms
        MOV     R2,#-0x4c
        MOV     R3,#0x0
        LCALL   `??Delay_ms::?relay` ; Banked call to: Delay_ms
//   41    bh1750sum=I2C_buf[0];                      //data conbine
//   42    bh1750sum=(bh1750sum<<8)+I2C_buf[1];
        MOV     DPL,?XSP + 0
        MOV     DPH,?XSP + 1
        MOVX    A,@DPTR
        MOV     R1,A
        MOV     A,#0x1
        LCALL   ?XSTACK_DISP0_8
        MOVX    A,@DPTR
        MOV     R4,A
        MOV     A,R1
        MOV     R5,A
//   43    
//   44    buf[0]=bh1750sum/10000+0x30;               //to string
        MOV     A,R4
        MOV     R0,A
        MOV     R2,#0x10
        MOV     R3,#0x27
        LCALL   ?US_DIV_MOD
        LCALL   ?Subroutine2 & 0xFFFF
??CrossCallReturnLabel_3:
        LCALL   ??Subroutine4_0 & 0xFFFF
//   45    bh1750sum=bh1750sum%10000;
??CrossCallReturnLabel_7:
        MOV     R2,#0x10
        MOV     R3,#0x27
        LCALL   ?US_DIV_MOD
        MOV     ?V0,R2
        MOV     ?V1,R3
        MOV     R4,?V0
        MOV     R5,?V1
//   46    buf[1]=bh1750sum/1000+0x30;
        MOV     A,R4
        MOV     R0,A
        MOV     A,R5
        MOV     R1,A
        MOV     R2,#-0x18
        MOV     R3,#0x3
        LCALL   ?US_DIV_MOD
        MOV     A,R0
        ADD     A,#0x30
        LCALL   ?Subroutine1 & 0xFFFF
//   47    bh1750sum=bh1750sum%1000;
??CrossCallReturnLabel_5:
        MOV     R2,#-0x18
        MOV     R3,#0x3
        LCALL   ?US_DIV_MOD
        MOV     ?V0,R2
        MOV     ?V1,R3
        MOV     R4,?V0
        MOV     R5,?V1
//   48    buf[2]=bh1750sum/100+0x30;
        MOV     A,R4
        MOV     R0,A
        MOV     A,R5
        MOV     R1,A
        MOV     R2,#0x64
        MOV     R3,#0x0
        LCALL   ?US_DIV_MOD
        LCALL   ?Subroutine2 & 0xFFFF
??CrossCallReturnLabel_4:
        INC     DPTR
        LCALL   ?Subroutine1 & 0xFFFF
//   49    bh1750sum=bh1750sum%100;
??CrossCallReturnLabel_6:
        MOV     R2,#0x64
        MOV     R3,#0x0
        LCALL   ?US_DIV_MOD
        MOV     ?V0,R2
        MOV     ?V1,R3
        MOV     R4,?V0
        MOV     R5,?V1
//   50    buf[3]=bh1750sum/10+0x30;
        MOV     A,R4
        MOV     R0,A
        MOV     A,R5
        MOV     R1,A
        MOV     R2,#0xa
        MOV     R3,#0x0
        LCALL   ?US_DIV_MOD
        MOV     A,R0
        LCALL   ?Subroutine0 & 0xFFFF
??CrossCallReturnLabel_0:
        LCALL   ??Subroutine4_0 & 0xFFFF
//   51    buf[4]=bh1750sum%10+0x30;
??CrossCallReturnLabel_8:
        MOV     R2,#0xa
        MOV     R3,#0x0
        LCALL   ?US_DIV_MOD
        MOV     A,R2
        LCALL   ?Subroutine0 & 0xFFFF
??CrossCallReturnLabel_1:
        INC     DPTR
        MOVX    @DPTR,A
//   52    Delay_ms(180);
        ; Setup parameters for call to function Delay_ms
        MOV     R2,#-0x4c
        MOV     R3,#0x0
        LCALL   `??Delay_ms::?relay` ; Banked call to: Delay_ms
//   53    return 0;
        MOV     R1,#0x0
??BH1750_Read_Str_2:
        MOV     A,#0x2
        LCALL   ?DEALLOC_XSTACK8
          CFI CFA_XSP16 add(XSP16, 10)
        MOV     R7,#0x2
        LJMP    ?BANKED_LEAVE_XDATA
//   54 }
          CFI EndBlock cfiBlock1

        RSEG BANKED_CODE:CODE:NOROOT(0)
?Subroutine2:
          CFI Block cfiCond2 Using cfiCommon0
          CFI Function BH1750_Read_Str
          CFI Conditional ??CrossCallReturnLabel_3
          CFI R6 load(1, XDATA, add(CFA_XSP16, literal(-10)))
          CFI VB load(1, XDATA, add(CFA_XSP16, literal(-9)))
          CFI V0 load(1, XDATA, add(CFA_XSP16, literal(-8)))
          CFI V1 load(1, XDATA, add(CFA_XSP16, literal(-7)))
          CFI R7 load(1, XDATA, add(CFA_XSP16, literal(-6)))
          CFI ?RET_LOW load(1, XDATA, add(CFA_XSP16, literal(-5)))
          CFI ?RET_HIGH load(1, XDATA, add(CFA_XSP16, literal(-4)))
          CFI ?BRET_EXT load(1, XDATA, add(CFA_XSP16, literal(-3)))
          CFI DPL0 load(1, XDATA, add(CFA_XSP16, literal(-2)))
          CFI DPH0 load(1, XDATA, add(CFA_XSP16, literal(-1)))
          CFI CFA_SP SP+-2
          CFI CFA_XSP16 add(XSP16, 12)
          CFI Block cfiCond3 Using cfiCommon0
          CFI (cfiCond3) Function BH1750_Read_Str
          CFI (cfiCond3) Conditional ??CrossCallReturnLabel_4
          CFI (cfiCond3) R6 load(1, XDATA, add(CFA_XSP16, literal(-10)))
          CFI (cfiCond3) VB load(1, XDATA, add(CFA_XSP16, literal(-9)))
          CFI (cfiCond3) V0 load(1, XDATA, add(CFA_XSP16, literal(-8)))
          CFI (cfiCond3) V1 load(1, XDATA, add(CFA_XSP16, literal(-7)))
          CFI (cfiCond3) R7 load(1, XDATA, add(CFA_XSP16, literal(-6)))
          CFI (cfiCond3) ?RET_LOW load(1, XDATA, add(CFA_XSP16, literal(-5)))
          CFI (cfiCond3) ?RET_HIGH load(1, XDATA, add(CFA_XSP16, literal(-4)))
          CFI (cfiCond3) ?BRET_EXT load(1, XDATA, add(CFA_XSP16, literal(-3)))
          CFI (cfiCond3) DPL0 load(1, XDATA, add(CFA_XSP16, literal(-2)))
          CFI (cfiCond3) DPH0 load(1, XDATA, add(CFA_XSP16, literal(-1)))
          CFI (cfiCond3) CFA_SP SP+-2
          CFI (cfiCond3) CFA_XSP16 add(XSP16, 12)
          CFI Block cfiPicker4 Using cfiCommon1
          CFI (cfiPicker4) NoFunction
          CFI (cfiPicker4) Picker
        MOV     A,R0
          CFI EndBlock cfiCond2
          CFI EndBlock cfiCond3
          CFI EndBlock cfiPicker4
        REQUIRE ??Subroutine3_0
        ; // Fall through to label ??Subroutine3_0

        RSEG BANKED_CODE:CODE:NOROOT(0)
??Subroutine3_0:
          CFI Block cfiCond5 Using cfiCommon0
          CFI Function BH1750_Read_Str
          CFI Conditional ??CrossCallReturnLabel_2, ??CrossCallReturnLabel_0
          CFI R6 load(1, XDATA, add(CFA_XSP16, literal(-10)))
          CFI VB load(1, XDATA, add(CFA_XSP16, literal(-9)))
          CFI V0 load(1, XDATA, add(CFA_XSP16, literal(-8)))
          CFI V1 load(1, XDATA, add(CFA_XSP16, literal(-7)))
          CFI R7 load(1, XDATA, add(CFA_XSP16, literal(-6)))
          CFI ?RET_LOW load(1, XDATA, add(CFA_XSP16, literal(-5)))
          CFI ?RET_HIGH load(1, XDATA, add(CFA_XSP16, literal(-4)))
          CFI ?BRET_EXT load(1, XDATA, add(CFA_XSP16, literal(-3)))
          CFI DPL0 load(1, XDATA, add(CFA_XSP16, literal(-2)))
          CFI DPH0 load(1, XDATA, add(CFA_XSP16, literal(-1)))
          CFI CFA_SP SP+-4
          CFI CFA_XSP16 add(XSP16, 12)
          CFI Block cfiCond6 Using cfiCommon0
          CFI (cfiCond6) Function BH1750_Read_Str
          CFI (cfiCond6) Conditional ??CrossCallReturnLabel_2, ??CrossCallReturnLabel_1
          CFI (cfiCond6) R6 load(1, XDATA, add(CFA_XSP16, literal(-10)))
          CFI (cfiCond6) VB load(1, XDATA, add(CFA_XSP16, literal(-9)))
          CFI (cfiCond6) V0 load(1, XDATA, add(CFA_XSP16, literal(-8)))
          CFI (cfiCond6) V1 load(1, XDATA, add(CFA_XSP16, literal(-7)))
          CFI (cfiCond6) R7 load(1, XDATA, add(CFA_XSP16, literal(-6)))
          CFI (cfiCond6) ?RET_LOW load(1, XDATA, add(CFA_XSP16, literal(-5)))
          CFI (cfiCond6) ?RET_HIGH load(1, XDATA, add(CFA_XSP16, literal(-4)))
          CFI (cfiCond6) ?BRET_EXT load(1, XDATA, add(CFA_XSP16, literal(-3)))
          CFI (cfiCond6) DPL0 load(1, XDATA, add(CFA_XSP16, literal(-2)))
          CFI (cfiCond6) DPH0 load(1, XDATA, add(CFA_XSP16, literal(-1)))
          CFI (cfiCond6) CFA_SP SP+-4
          CFI (cfiCond6) CFA_XSP16 add(XSP16, 12)
          CFI Block cfiCond7 Using cfiCommon0
          CFI (cfiCond7) Function BH1750_Read_Str
          CFI (cfiCond7) Conditional ??CrossCallReturnLabel_3
          CFI (cfiCond7) R6 load(1, XDATA, add(CFA_XSP16, literal(-10)))
          CFI (cfiCond7) VB load(1, XDATA, add(CFA_XSP16, literal(-9)))
          CFI (cfiCond7) V0 load(1, XDATA, add(CFA_XSP16, literal(-8)))
          CFI (cfiCond7) V1 load(1, XDATA, add(CFA_XSP16, literal(-7)))
          CFI (cfiCond7) R7 load(1, XDATA, add(CFA_XSP16, literal(-6)))
          CFI (cfiCond7) ?RET_LOW load(1, XDATA, add(CFA_XSP16, literal(-5)))
          CFI (cfiCond7) ?RET_HIGH load(1, XDATA, add(CFA_XSP16, literal(-4)))
          CFI (cfiCond7) ?BRET_EXT load(1, XDATA, add(CFA_XSP16, literal(-3)))
          CFI (cfiCond7) DPL0 load(1, XDATA, add(CFA_XSP16, literal(-2)))
          CFI (cfiCond7) DPH0 load(1, XDATA, add(CFA_XSP16, literal(-1)))
          CFI (cfiCond7) CFA_SP SP+-2
          CFI (cfiCond7) CFA_XSP16 add(XSP16, 12)
          CFI Block cfiCond8 Using cfiCommon0
          CFI (cfiCond8) Function BH1750_Read_Str
          CFI (cfiCond8) Conditional ??CrossCallReturnLabel_4
          CFI (cfiCond8) R6 load(1, XDATA, add(CFA_XSP16, literal(-10)))
          CFI (cfiCond8) VB load(1, XDATA, add(CFA_XSP16, literal(-9)))
          CFI (cfiCond8) V0 load(1, XDATA, add(CFA_XSP16, literal(-8)))
          CFI (cfiCond8) V1 load(1, XDATA, add(CFA_XSP16, literal(-7)))
          CFI (cfiCond8) R7 load(1, XDATA, add(CFA_XSP16, literal(-6)))
          CFI (cfiCond8) ?RET_LOW load(1, XDATA, add(CFA_XSP16, literal(-5)))
          CFI (cfiCond8) ?RET_HIGH load(1, XDATA, add(CFA_XSP16, literal(-4)))
          CFI (cfiCond8) ?BRET_EXT load(1, XDATA, add(CFA_XSP16, literal(-3)))
          CFI (cfiCond8) DPL0 load(1, XDATA, add(CFA_XSP16, literal(-2)))
          CFI (cfiCond8) DPH0 load(1, XDATA, add(CFA_XSP16, literal(-1)))
          CFI (cfiCond8) CFA_SP SP+-2
          CFI (cfiCond8) CFA_XSP16 add(XSP16, 12)
          CFI Block cfiPicker9 Using cfiCommon1
          CFI (cfiPicker9) NoFunction
          CFI (cfiPicker9) Picker
        ADD     A,#0x30
        MOV     DPL,R6
        MOV     DPH,R7
        RET
          CFI EndBlock cfiCond5
          CFI EndBlock cfiCond6
          CFI EndBlock cfiCond7
          CFI EndBlock cfiCond8
          CFI EndBlock cfiPicker9

        RSEG BANKED_CODE:CODE:NOROOT(0)
?Subroutine1:
          CFI Block cfiCond10 Using cfiCommon0
          CFI Function BH1750_Read_Str
          CFI Conditional ??CrossCallReturnLabel_5
          CFI R6 load(1, XDATA, add(CFA_XSP16, literal(-10)))
          CFI VB load(1, XDATA, add(CFA_XSP16, literal(-9)))
          CFI V0 load(1, XDATA, add(CFA_XSP16, literal(-8)))
          CFI V1 load(1, XDATA, add(CFA_XSP16, literal(-7)))
          CFI R7 load(1, XDATA, add(CFA_XSP16, literal(-6)))
          CFI ?RET_LOW load(1, XDATA, add(CFA_XSP16, literal(-5)))
          CFI ?RET_HIGH load(1, XDATA, add(CFA_XSP16, literal(-4)))
          CFI ?BRET_EXT load(1, XDATA, add(CFA_XSP16, literal(-3)))
          CFI DPL0 load(1, XDATA, add(CFA_XSP16, literal(-2)))
          CFI DPH0 load(1, XDATA, add(CFA_XSP16, literal(-1)))
          CFI CFA_SP SP+-2
          CFI CFA_XSP16 add(XSP16, 12)
          CFI Block cfiCond11 Using cfiCommon0
          CFI (cfiCond11) Function BH1750_Read_Str
          CFI (cfiCond11) Conditional ??CrossCallReturnLabel_6
          CFI (cfiCond11) R6 load(1, XDATA, add(CFA_XSP16, literal(-10)))
          CFI (cfiCond11) VB load(1, XDATA, add(CFA_XSP16, literal(-9)))
          CFI (cfiCond11) V0 load(1, XDATA, add(CFA_XSP16, literal(-8)))
          CFI (cfiCond11) V1 load(1, XDATA, add(CFA_XSP16, literal(-7)))
          CFI (cfiCond11) R7 load(1, XDATA, add(CFA_XSP16, literal(-6)))
          CFI (cfiCond11) ?RET_LOW load(1, XDATA, add(CFA_XSP16, literal(-5)))
          CFI (cfiCond11) ?RET_HIGH load(1, XDATA, add(CFA_XSP16, literal(-4)))
          CFI (cfiCond11) ?BRET_EXT load(1, XDATA, add(CFA_XSP16, literal(-3)))
          CFI (cfiCond11) DPL0 load(1, XDATA, add(CFA_XSP16, literal(-2)))
          CFI (cfiCond11) DPH0 load(1, XDATA, add(CFA_XSP16, literal(-1)))
          CFI (cfiCond11) CFA_SP SP+-2
          CFI (cfiCond11) CFA_XSP16 add(XSP16, 12)
          CFI Block cfiPicker12 Using cfiCommon1
          CFI (cfiPicker12) NoFunction
          CFI (cfiPicker12) Picker
        INC     DPTR
          CFI EndBlock cfiCond10
          CFI EndBlock cfiCond11
          CFI EndBlock cfiPicker12
        REQUIRE ??Subroutine4_0
        ; // Fall through to label ??Subroutine4_0

        RSEG BANKED_CODE:CODE:NOROOT(0)
??Subroutine4_0:
          CFI Block cfiCond13 Using cfiCommon0
          CFI Function BH1750_Read_Str
          CFI Conditional ??CrossCallReturnLabel_7
          CFI R6 load(1, XDATA, add(CFA_XSP16, literal(-10)))
          CFI VB load(1, XDATA, add(CFA_XSP16, literal(-9)))
          CFI V0 load(1, XDATA, add(CFA_XSP16, literal(-8)))
          CFI V1 load(1, XDATA, add(CFA_XSP16, literal(-7)))
          CFI R7 load(1, XDATA, add(CFA_XSP16, literal(-6)))
          CFI ?RET_LOW load(1, XDATA, add(CFA_XSP16, literal(-5)))
          CFI ?RET_HIGH load(1, XDATA, add(CFA_XSP16, literal(-4)))
          CFI ?BRET_EXT load(1, XDATA, add(CFA_XSP16, literal(-3)))
          CFI DPL0 load(1, XDATA, add(CFA_XSP16, literal(-2)))
          CFI DPH0 load(1, XDATA, add(CFA_XSP16, literal(-1)))
          CFI CFA_SP SP+-2
          CFI CFA_XSP16 add(XSP16, 12)
          CFI Block cfiCond14 Using cfiCommon0
          CFI (cfiCond14) Function BH1750_Read_Str
          CFI (cfiCond14) Conditional ??CrossCallReturnLabel_8
          CFI (cfiCond14) R6 load(1, XDATA, add(CFA_XSP16, literal(-10)))
          CFI (cfiCond14) VB load(1, XDATA, add(CFA_XSP16, literal(-9)))
          CFI (cfiCond14) V0 load(1, XDATA, add(CFA_XSP16, literal(-8)))
          CFI (cfiCond14) V1 load(1, XDATA, add(CFA_XSP16, literal(-7)))
          CFI (cfiCond14) R7 load(1, XDATA, add(CFA_XSP16, literal(-6)))
          CFI (cfiCond14) ?RET_LOW load(1, XDATA, add(CFA_XSP16, literal(-5)))
          CFI (cfiCond14) ?RET_HIGH load(1, XDATA, add(CFA_XSP16, literal(-4)))
          CFI (cfiCond14) ?BRET_EXT load(1, XDATA, add(CFA_XSP16, literal(-3)))
          CFI (cfiCond14) DPL0 load(1, XDATA, add(CFA_XSP16, literal(-2)))
          CFI (cfiCond14) DPH0 load(1, XDATA, add(CFA_XSP16, literal(-1)))
          CFI (cfiCond14) CFA_SP SP+-2
          CFI (cfiCond14) CFA_XSP16 add(XSP16, 12)
          CFI Block cfiCond15 Using cfiCommon0
          CFI (cfiCond15) Function BH1750_Read_Str
          CFI (cfiCond15) Conditional ??CrossCallReturnLabel_5
          CFI (cfiCond15) R6 load(1, XDATA, add(CFA_XSP16, literal(-10)))
          CFI (cfiCond15) VB load(1, XDATA, add(CFA_XSP16, literal(-9)))
          CFI (cfiCond15) V0 load(1, XDATA, add(CFA_XSP16, literal(-8)))
          CFI (cfiCond15) V1 load(1, XDATA, add(CFA_XSP16, literal(-7)))
          CFI (cfiCond15) R7 load(1, XDATA, add(CFA_XSP16, literal(-6)))
          CFI (cfiCond15) ?RET_LOW load(1, XDATA, add(CFA_XSP16, literal(-5)))
          CFI (cfiCond15) ?RET_HIGH load(1, XDATA, add(CFA_XSP16, literal(-4)))
          CFI (cfiCond15) ?BRET_EXT load(1, XDATA, add(CFA_XSP16, literal(-3)))
          CFI (cfiCond15) DPL0 load(1, XDATA, add(CFA_XSP16, literal(-2)))
          CFI (cfiCond15) DPH0 load(1, XDATA, add(CFA_XSP16, literal(-1)))
          CFI (cfiCond15) CFA_SP SP+-2
          CFI (cfiCond15) CFA_XSP16 add(XSP16, 12)
          CFI Block cfiCond16 Using cfiCommon0
          CFI (cfiCond16) Function BH1750_Read_Str
          CFI (cfiCond16) Conditional ??CrossCallReturnLabel_6
          CFI (cfiCond16) R6 load(1, XDATA, add(CFA_XSP16, literal(-10)))
          CFI (cfiCond16) VB load(1, XDATA, add(CFA_XSP16, literal(-9)))
          CFI (cfiCond16) V0 load(1, XDATA, add(CFA_XSP16, literal(-8)))
          CFI (cfiCond16) V1 load(1, XDATA, add(CFA_XSP16, literal(-7)))
          CFI (cfiCond16) R7 load(1, XDATA, add(CFA_XSP16, literal(-6)))
          CFI (cfiCond16) ?RET_LOW load(1, XDATA, add(CFA_XSP16, literal(-5)))
          CFI (cfiCond16) ?RET_HIGH load(1, XDATA, add(CFA_XSP16, literal(-4)))
          CFI (cfiCond16) ?BRET_EXT load(1, XDATA, add(CFA_XSP16, literal(-3)))
          CFI (cfiCond16) DPL0 load(1, XDATA, add(CFA_XSP16, literal(-2)))
          CFI (cfiCond16) DPH0 load(1, XDATA, add(CFA_XSP16, literal(-1)))
          CFI (cfiCond16) CFA_SP SP+-2
          CFI (cfiCond16) CFA_XSP16 add(XSP16, 12)
          CFI Block cfiPicker17 Using cfiCommon1
          CFI (cfiPicker17) NoFunction
          CFI (cfiPicker17) Picker
        MOVX    @DPTR,A
        MOV     A,R4
        MOV     R0,A
        MOV     A,R5
        MOV     R1,A
        RET
          CFI EndBlock cfiCond13
          CFI EndBlock cfiCond14
          CFI EndBlock cfiCond15
          CFI EndBlock cfiCond16
          CFI EndBlock cfiPicker17

        RSEG BANKED_CODE:CODE:NOROOT(0)
?Subroutine0:
          CFI Block cfiCond18 Using cfiCommon0
          CFI Function BH1750_Read_Str
          CFI Conditional ??CrossCallReturnLabel_0
          CFI R6 load(1, XDATA, add(CFA_XSP16, literal(-10)))
          CFI VB load(1, XDATA, add(CFA_XSP16, literal(-9)))
          CFI V0 load(1, XDATA, add(CFA_XSP16, literal(-8)))
          CFI V1 load(1, XDATA, add(CFA_XSP16, literal(-7)))
          CFI R7 load(1, XDATA, add(CFA_XSP16, literal(-6)))
          CFI ?RET_LOW load(1, XDATA, add(CFA_XSP16, literal(-5)))
          CFI ?RET_HIGH load(1, XDATA, add(CFA_XSP16, literal(-4)))
          CFI ?BRET_EXT load(1, XDATA, add(CFA_XSP16, literal(-3)))
          CFI DPL0 load(1, XDATA, add(CFA_XSP16, literal(-2)))
          CFI DPH0 load(1, XDATA, add(CFA_XSP16, literal(-1)))
          CFI CFA_SP SP+-2
          CFI CFA_XSP16 add(XSP16, 12)
          CFI Block cfiCond19 Using cfiCommon0
          CFI (cfiCond19) Function BH1750_Read_Str
          CFI (cfiCond19) Conditional ??CrossCallReturnLabel_1
          CFI (cfiCond19) R6 load(1, XDATA, add(CFA_XSP16, literal(-10)))
          CFI (cfiCond19) VB load(1, XDATA, add(CFA_XSP16, literal(-9)))
          CFI (cfiCond19) V0 load(1, XDATA, add(CFA_XSP16, literal(-8)))
          CFI (cfiCond19) V1 load(1, XDATA, add(CFA_XSP16, literal(-7)))
          CFI (cfiCond19) R7 load(1, XDATA, add(CFA_XSP16, literal(-6)))
          CFI (cfiCond19) ?RET_LOW load(1, XDATA, add(CFA_XSP16, literal(-5)))
          CFI (cfiCond19) ?RET_HIGH load(1, XDATA, add(CFA_XSP16, literal(-4)))
          CFI (cfiCond19) ?BRET_EXT load(1, XDATA, add(CFA_XSP16, literal(-3)))
          CFI (cfiCond19) DPL0 load(1, XDATA, add(CFA_XSP16, literal(-2)))
          CFI (cfiCond19) DPH0 load(1, XDATA, add(CFA_XSP16, literal(-1)))
          CFI (cfiCond19) CFA_SP SP+-2
          CFI (cfiCond19) CFA_XSP16 add(XSP16, 12)
          CFI Block cfiPicker20 Using cfiCommon1
          CFI (cfiPicker20) NoFunction
          CFI (cfiPicker20) Picker
        LCALL   ??Subroutine3_0 & 0xFFFF
??CrossCallReturnLabel_2:
        INC     DPTR
        INC     DPTR
        INC     DPTR
        RET
          CFI EndBlock cfiCond18
          CFI EndBlock cfiCond19
          CFI EndBlock cfiPicker20
//   55 

        RSEG BANKED_CODE:CODE:NOROOT(0)
//   56 unsigned char BH1750_Read(unsigned char buf[])
BH1750_Read:
          CFI Block cfiBlock21 Using cfiCommon0
          CFI Function BH1750_Read
        CODE
//   57 {
        FUNCALL BH1750_Read, I2C_IRcvStrExt
        LOCFRAME ISTACK, 0, STACK
        LOCFRAME PSTACK, 0, STACK
        LOCFRAME XSTACK, 11, STACK
        LOCFRAME IOVERLAY, 0, STATIC
        LOCFRAME DOVERLAY, 0, STATIC
        ARGFRAME ISTACK, 0, STACK
        ARGFRAME PSTACK, 0, STACK
        ARGFRAME XSTACK, 11, STACK
        ARGFRAME IOVERLAY, 0, STATIC
        ARGFRAME DOVERLAY, 0, STATIC
        FUNCALL BH1750_Read, Delay_ms
        LOCFRAME ISTACK, 0, STACK
        LOCFRAME PSTACK, 0, STACK
        LOCFRAME XSTACK, 11, STACK
        LOCFRAME IOVERLAY, 0, STATIC
        LOCFRAME DOVERLAY, 0, STATIC
        ARGFRAME ISTACK, 0, STACK
        ARGFRAME PSTACK, 0, STACK
        ARGFRAME XSTACK, 11, STACK
        ARGFRAME IOVERLAY, 0, STATIC
        ARGFRAME DOVERLAY, 0, STATIC
        FUNCALL BH1750_Read, Delay_ms
        LOCFRAME ISTACK, 0, STACK
        LOCFRAME PSTACK, 0, STACK
        LOCFRAME XSTACK, 11, STACK
        LOCFRAME IOVERLAY, 0, STATIC
        LOCFRAME DOVERLAY, 0, STATIC
        ARGFRAME ISTACK, 0, STACK
        ARGFRAME PSTACK, 0, STACK
        ARGFRAME XSTACK, 11, STACK
        ARGFRAME IOVERLAY, 0, STATIC
        ARGFRAME DOVERLAY, 0, STATIC
        REQUIRE ?V0
        MOV     A,#-0x9
        LCALL   ?BANKED_ENTER_XDATA
          CFI DPH0 load(1, XDATA, add(CFA_XSP16, literal(-1)))
          CFI DPL0 load(1, XDATA, add(CFA_XSP16, literal(-2)))
          CFI ?BRET_EXT load(1, XDATA, add(CFA_XSP16, literal(-3)))
          CFI ?RET_HIGH load(1, XDATA, add(CFA_XSP16, literal(-4)))
          CFI ?RET_LOW load(1, XDATA, add(CFA_XSP16, literal(-5)))
          CFI R7 load(1, XDATA, add(CFA_XSP16, literal(-6)))
          CFI V0 load(1, XDATA, add(CFA_XSP16, literal(-7)))
          CFI VB load(1, XDATA, add(CFA_XSP16, literal(-8)))
          CFI R6 load(1, XDATA, add(CFA_XSP16, literal(-9)))
          CFI CFA_SP SP+0
          CFI CFA_XSP16 add(XSP16, 9)
        ; Saved register size: 9
        ; Auto size: 2
        MOV     A,#-0x2
        LCALL   ?ALLOC_XSTACK8
          CFI CFA_XSP16 add(XSP16, 11)
        MOV     A,R2
        MOV     R6,A
        MOV     A,R3
        MOV     R7,A
//   58    unsigned char I2C_buf[2];
//   59    unsigned char timeout = 0;
        MOV     ?V0,#0xa
//   60    while(I2C_IRcvStrExt(0x46,I2C_buf,2) == 0)      //16bit data in total
??BH1750_Read_0:
        ; Setup parameters for call to function I2C_IRcvStrExt
        MOV     R4,#0x2
        MOV     R2,?XSP + 0
        MOV     R3,?XSP + 1
        MOV     R1,#0x46
        LCALL   `??I2C_IRcvStrExt::?relay`; Banked call to: I2C_IRcvStrExt
        MOV     A,R1
        JNZ     ??BH1750_Read_1
//   61    {
//   62       if(++timeout >= 10) return 1;              //timeout,sensor no response
        DEC     ?V0
        MOV     A,?V0
        JNZ     ??BH1750_Read_0
        MOV     R1,#0x1
        SJMP    ??BH1750_Read_2
//   63    }
//   64    Delay_ms(180);
??BH1750_Read_1:
        ; Setup parameters for call to function Delay_ms
        MOV     R2,#-0x4c
        MOV     R3,#0x0
        LCALL   `??Delay_ms::?relay` ; Banked call to: Delay_ms
//   65    buf[0]=I2C_buf[0];                      //data conbine
        MOV     DPL,?XSP + 0
        MOV     DPH,?XSP + 1
        MOVX    A,@DPTR
        MOV     DPL,R6
        MOV     DPH,R7
        MOVX    @DPTR,A
//   66    buf[1]=I2C_buf[1];
        MOV     A,#0x1
        LCALL   ?XSTACK_DISP0_8
        MOVX    A,@DPTR
        MOV     DPL,R6
        MOV     DPH,R7
        INC     DPTR
        MOVX    @DPTR,A
//   67 
//   68    Delay_ms(180);
        ; Setup parameters for call to function Delay_ms
        MOV     R2,#-0x4c
        MOV     R3,#0x0
        LCALL   `??Delay_ms::?relay` ; Banked call to: Delay_ms
//   69    return 0;
        MOV     R1,#0x0
??BH1750_Read_2:
        MOV     A,#0x2
        LCALL   ?DEALLOC_XSTACK8
          CFI CFA_XSP16 add(XSP16, 9)
        MOV     R7,#0x1
        LJMP    ?BANKED_LEAVE_XDATA
//   70 }
          CFI EndBlock cfiBlock21

        RSEG BANK_RELAYS:CODE:REORDER:NOROOT(0)
`??BH1750_Init::?relay`:
        CODE
        LCALL   ?BDISPATCH
        DATA24
        DC24    BH1750_Init

        RSEG BANK_RELAYS:CODE:REORDER:NOROOT(0)
`??BH1750_Read_Str::?relay`:
        CODE
        LCALL   ?BDISPATCH
        DATA24
        DC24    BH1750_Read_Str

        RSEG BANK_RELAYS:CODE:REORDER:NOROOT(0)
`??BH1750_Read::?relay`:
        CODE
        LCALL   ?BDISPATCH
        DATA24
        DC24    BH1750_Read

        END
// 
// 356 bytes in segment BANKED_CODE
//  18 bytes in segment BANK_RELAYS
// 
// 374 bytes of CODE memory
//
//Errors: none
//Warnings: none
