///////////////////////////////////////////////////////////////////////////////
//
// IAR C/C++ Compiler V9.30.1.3056 for 8051               24/Oct/2017  20:39:36
// Copyright 2004-2015 IAR Systems AB.
// Standalone license - IAR Embedded Workbench for 8051
//
//    Core               =  plain
//    Code model         =  banked
//    Data model         =  large
//    Calling convention =  xdata reentrant
//    Constant location  =  data_rom
//    Dptr setup         =  1,16
//                          
//    Source file        =  
//        F:\Zigbeespace\20171020\ZStack-2.5.1a\Projects\zstack\Samples\SampleApp\Source\BH1750.c
//    Command line       =  
//        -f
//        F:\Zigbeespace\20171020\ZStack-2.5.1a\Projects\zstack\Samples\SampleApp\CC2530DB\..\..\..\Tools\CC2530DB\f8wCoord.cfg
//        (-DCPU32MHZ -DROOT=__near_func -DMAC_CFG_APP_PENDING_QUEUE=TRUE
//        -DMAC_CFG_TX_DATA_MAX=5 -DMAC_CFG_TX_MAX=8 -DMAC_CFG_RX_MAX=5
//        -DZDO_COORDINATOR -DRTR_NWK) -f
//        F:\Zigbeespace\20171020\ZStack-2.5.1a\Projects\zstack\Samples\SampleApp\CC2530DB\..\..\..\Tools\CC2530DB\f8wConfig.cfg
//        (-DZIGBEEPRO -DSECURE=0 -DZG_SECURE_DYNAMIC=0 -DREFLECTOR
//        -DDEFAULT_CHANLIST=0x00000800 -DZDAPP_CONFIG_PAN_ID=0x333;
//        -DNWK_START_DELAY=100 -DEXTENDED_JOINING_RANDOM_MASK=0x007F
//        -DBEACON_REQUEST_DELAY=100 -DBEACON_REQ_DELAY_MASK=0x00FF
//        -DLINK_STATUS_JITTER_MASK=0x007F -DROUTE_EXPIRY_TIME=30
//        -DAPSC_ACK_WAIT_DURATION_POLLED=3000 -DNWK_INDIRECT_MSG_TIMEOUT=7
//        -DMAX_RREQ_ENTRIES=8 -DAPSC_MAX_FRAME_RETRIES=3
//        -DNWK_MAX_DATA_RETRIES=2 -DMAX_POLL_FAILURE_RETRIES=2 -DMAX_BCAST=9
//        -DAPS_MAX_GROUPS=16 -DMAX_RTG_ENTRIES=40 -DNWK_MAX_BINDING_ENTRIES=4
//        -DMAX_BINDING_CLUSTER_IDS=4 "-DDEFAULT_KEY={0x01, 0x03, 0x05, 0x07,
//        0x09, 0x0B, 0x0D, 0x0F, 0x00, 0x02, 0x04, 0x06, 0x08, 0x0A, 0x0C,
//        0x0D}" -DMAC_MAX_FRAME_SIZE=116 -DZDNWKMGR_MIN_TRANSMISSIONS=20
//        "-DCONST=const __code" -DGENERIC=__generic -DRFD_RCVC_ALWAYS_ON=FALSE
//        -DPOLL_RATE=0 -DQUEUED_POLL_RATE=0 -DRESPONSE_POLL_RATE=0)
//        -DREJOIN_POLL_RATE=1000
//        F:\Zigbeespace\20171020\ZStack-2.5.1a\Projects\zstack\Samples\SampleApp\Source\BH1750.c
//        -D ZTOOL_P1 -D xMT_TASK -D xMT_SYS_FUNC -D xMT_ZDO_FUNC -D
//        xLCD_SUPPORTED=DEBUG -lC
//        F:\Zigbeespace\20171020\ZStack-2.5.1a\Projects\zstack\Samples\SampleApp\CC2530DB\CoordinatorEB\List
//        -lA
//        F:\Zigbeespace\20171020\ZStack-2.5.1a\Projects\zstack\Samples\SampleApp\CC2530DB\CoordinatorEB\List
//        --diag_suppress Pe001,Pa010 -o
//        F:\Zigbeespace\20171020\ZStack-2.5.1a\Projects\zstack\Samples\SampleApp\CC2530DB\CoordinatorEB\Obj
//        -e --no_code_motion --debug --core=plain --dptr=16,1
//        --data_model=large --code_model=banked
//        --calling_convention=xdata_reentrant --place_constants=data_rom
//        --nr_virtual_regs 8 -I
//        F:\Zigbeespace\20171020\ZStack-2.5.1a\Projects\zstack\Samples\SampleApp\CC2530DB\
//        -I
//        F:\Zigbeespace\20171020\ZStack-2.5.1a\Projects\zstack\Samples\SampleApp\CC2530DB\..\Source\
//        -I
//        F:\Zigbeespace\20171020\ZStack-2.5.1a\Projects\zstack\Samples\SampleApp\CC2530DB\..\..\..\ZMain\TI2530DB\
//        -I
//        F:\Zigbeespace\20171020\ZStack-2.5.1a\Projects\zstack\Samples\SampleApp\CC2530DB\..\..\..\..\..\Components\hal\include\
//        -I
//        F:\Zigbeespace\20171020\ZStack-2.5.1a\Projects\zstack\Samples\SampleApp\CC2530DB\..\..\..\..\..\Components\hal\target\CC2530EB\
//        -I
//        F:\Zigbeespace\20171020\ZStack-2.5.1a\Projects\zstack\Samples\SampleApp\CC2530DB\..\..\..\..\..\Components\mac\include\
//        -I
//        F:\Zigbeespace\20171020\ZStack-2.5.1a\Projects\zstack\Samples\SampleApp\CC2530DB\..\..\..\..\..\Components\mac\high_level\
//        -I
//        F:\Zigbeespace\20171020\ZStack-2.5.1a\Projects\zstack\Samples\SampleApp\CC2530DB\..\..\..\..\..\Components\mac\low_level\srf04\
//        -I
//        F:\Zigbeespace\20171020\ZStack-2.5.1a\Projects\zstack\Samples\SampleApp\CC2530DB\..\..\..\..\..\Components\mac\low_level\srf04\single_chip\
//        -I
//        F:\Zigbeespace\20171020\ZStack-2.5.1a\Projects\zstack\Samples\SampleApp\CC2530DB\..\..\..\..\..\Components\mt\
//        -I
//        F:\Zigbeespace\20171020\ZStack-2.5.1a\Projects\zstack\Samples\SampleApp\CC2530DB\..\..\..\..\..\Components\osal\include\
//        -I
//        F:\Zigbeespace\20171020\ZStack-2.5.1a\Projects\zstack\Samples\SampleApp\CC2530DB\..\..\..\..\..\Components\services\saddr\
//        -I
//        F:\Zigbeespace\20171020\ZStack-2.5.1a\Projects\zstack\Samples\SampleApp\CC2530DB\..\..\..\..\..\Components\services\sdata\
//        -I
//        F:\Zigbeespace\20171020\ZStack-2.5.1a\Projects\zstack\Samples\SampleApp\CC2530DB\..\..\..\..\..\Components\stack\af\
//        -I
//        F:\Zigbeespace\20171020\ZStack-2.5.1a\Projects\zstack\Samples\SampleApp\CC2530DB\..\..\..\..\..\Components\stack\nwk\
//        -I
//        F:\Zigbeespace\20171020\ZStack-2.5.1a\Projects\zstack\Samples\SampleApp\CC2530DB\..\..\..\..\..\Components\stack\sapi\
//        -I
//        F:\Zigbeespace\20171020\ZStack-2.5.1a\Projects\zstack\Samples\SampleApp\CC2530DB\..\..\..\..\..\Components\stack\sec\
//        -I
//        F:\Zigbeespace\20171020\ZStack-2.5.1a\Projects\zstack\Samples\SampleApp\CC2530DB\..\..\..\..\..\Components\stack\sys\
//        -I
//        F:\Zigbeespace\20171020\ZStack-2.5.1a\Projects\zstack\Samples\SampleApp\CC2530DB\..\..\..\..\..\Components\stack\zdo\
//        -I
//        F:\Zigbeespace\20171020\ZStack-2.5.1a\Projects\zstack\Samples\SampleApp\CC2530DB\..\..\..\..\..\Components\zmac\
//        -I
//        F:\Zigbeespace\20171020\ZStack-2.5.1a\Projects\zstack\Samples\SampleApp\CC2530DB\..\..\..\..\..\Components\zmac\f8w\
//        -Ohz
//    List file          =  
//        F:\Zigbeespace\20171020\ZStack-2.5.1a\Projects\zstack\Samples\SampleApp\CC2530DB\CoordinatorEB\List\BH1750.s51
//
///////////////////////////////////////////////////////////////////////////////

        NAME BH1750

        RTMODEL "__SystemLibrary", "CLib"
        RTMODEL "__calling_convention", "xdata_reentrant"
        RTMODEL "__code_model", "banked"
        RTMODEL "__core", "plain"
        RTMODEL "__data_model", "large"
        RTMODEL "__dptr_size", "16"
        RTMODEL "__extended_stack", "disabled"
        RTMODEL "__location_for_constants", "data"
        RTMODEL "__number_of_dptrs", "1"
        RTMODEL "__rt_version", "1"

        RSEG DOVERLAY:DATA:NOROOT(0)
        RSEG IOVERLAY:IDATA:NOROOT(0)
        RSEG ISTACK:IDATA:NOROOT(0)
        RSEG PSTACK:XDATA:NOROOT(0)
        RSEG XSTACK:XDATA:NOROOT(0)

        EXTERN ?V0
        EXTERN ?BANKED_ENTER_XDATA
        EXTERN ?BANKED_LEAVE_XDATA
        EXTERN ?BDISPATCH
        EXTERN __INIT_XDATA_Z

        PUBLIC `??ReadBH1750::?relay`
        FUNCTION `??ReadBH1750::?relay`,0203H
        PUBLIC `??ReadBH1750Seq::?relay`
        FUNCTION `??ReadBH1750Seq::?relay`,0203H
        PUBLIC `??WriteBH1750::?relay`
        FUNCTION `??WriteBH1750::?relay`,0203H
        PUBLIC BUF
        PUBLIC ReadBH1750
        FUNCTION ReadBH1750,0a1203H
        ARGFRAME XSTACK, 0, STACK
        LOCFRAME ISTACK, 1, STACK
        LOCFRAME XSTACK, 9, STACK
        PUBLIC ReadBH1750Seq
        FUNCTION ReadBH1750Seq,0a1203H
        ARGFRAME XSTACK, 0, STACK
        LOCFRAME ISTACK, 1, STACK
        LOCFRAME XSTACK, 9, STACK
        PUBLIC WriteBH1750
        FUNCTION WriteBH1750,0a1203H
        ARGFRAME XSTACK, 0, STACK
        LOCFRAME XSTACK, 9, STACK
        
          CFI Names cfiNames0
          CFI StackFrame CFA_SP SP IDATA
          CFI StackFrame CFA_PSP16 PSP16 XDATA
          CFI StackFrame CFA_XSP16 XSP16 XDATA
          CFI StaticOverlayFrame CFA_IOVERLAY IOVERLAY
          CFI StaticOverlayFrame CFA_DOVERLAY DOVERLAY
          CFI Resource `PSW.CY`:1, `B.BR0`:1, `B.BR1`:1, `B.BR2`:1, `B.BR3`:1
          CFI Resource `B.BR4`:1, `B.BR5`:1, `B.BR6`:1, `B.BR7`:1, `VB.BR8`:1
          CFI Resource `VB.BR9`:1, `VB.BR10`:1, `VB.BR11`:1, `VB.BR12`:1
          CFI Resource `VB.BR13`:1, `VB.BR14`:1, `VB.BR15`:1, VB:8, B:8, A:8
          CFI Resource PSW:8, DPL0:8, DPH0:8, R0:8, R1:8, R2:8, R3:8, R4:8, R5:8
          CFI Resource R6:8, R7:8, V0:8, V1:8, V2:8, V3:8, V4:8, V5:8, V6:8, V7:8
          CFI Resource SP:8, PSPH:8, PSPL:8, PSP16:16, XSPH:8, XSPL:8, XSP16:16
          CFI VirtualResource ?RET:24
          CFI Resource ?BRET_EXT:8
          CFI VirtualResource ?RET_HIGH:8, ?RET_LOW:8
          CFI ResourceParts PSP16 PSPH, PSPL
          CFI ResourceParts XSP16 XSPH, XSPL
          CFI ResourceParts ?RET ?BRET_EXT, ?RET_HIGH, ?RET_LOW
          CFI EndNames cfiNames0
        
          CFI Common cfiCommon0 Using cfiNames0
          CFI CodeAlign 1
          CFI DataAlign -1
          CFI ReturnAddress ?RET CODE
          CFI CFA_DOVERLAY Used
          CFI CFA_IOVERLAY Used
          CFI CFA_SP SP+-3
          CFI CFA_PSP16 PSP16+0
          CFI CFA_XSP16 XSP16+0
          CFI `PSW.CY` SameValue
          CFI `B.BR0` SameValue
          CFI `B.BR1` SameValue
          CFI `B.BR2` SameValue
          CFI `B.BR3` SameValue
          CFI `B.BR4` SameValue
          CFI `B.BR5` SameValue
          CFI `B.BR6` SameValue
          CFI `B.BR7` SameValue
          CFI `VB.BR8` SameValue
          CFI `VB.BR9` SameValue
          CFI `VB.BR10` SameValue
          CFI `VB.BR11` SameValue
          CFI `VB.BR12` SameValue
          CFI `VB.BR13` SameValue
          CFI `VB.BR14` SameValue
          CFI `VB.BR15` SameValue
          CFI VB SameValue
          CFI B Undefined
          CFI A Undefined
          CFI PSW SameValue
          CFI DPL0 SameValue
          CFI DPH0 SameValue
          CFI R0 Undefined
          CFI R1 Undefined
          CFI R2 Undefined
          CFI R3 Undefined
          CFI R4 Undefined
          CFI R5 Undefined
          CFI R6 SameValue
          CFI R7 SameValue
          CFI V0 SameValue
          CFI V1 SameValue
          CFI V2 SameValue
          CFI V3 SameValue
          CFI V4 SameValue
          CFI V5 SameValue
          CFI V6 SameValue
          CFI V7 SameValue
          CFI PSPH Undefined
          CFI PSPL Undefined
          CFI XSPH Undefined
          CFI XSPL Undefined
          CFI ?RET Concat
          CFI ?BRET_EXT Frame(CFA_SP, 3)
          CFI ?RET_HIGH Frame(CFA_SP, 2)
          CFI ?RET_LOW Frame(CFA_SP, 1)
          CFI EndCommon cfiCommon0
        
ChkACK              SYMBOL "ChkACK"
`??ChkACK::?relay`  SYMBOL "?relay", ChkACK
DelayaMs            SYMBOL "DelayaMs"
`??DelayaMs::?relay` SYMBOL "?relay", DelayaMs
Read8bit            SYMBOL "Read8bit"
`??Read8bit::?relay` SYMBOL "?relay", Read8bit
Send8bit            SYMBOL "Send8bit"
`??Send8bit::?relay` SYMBOL "?relay", Send8bit
Start               SYMBOL "Start"
`??Start::?relay`   SYMBOL "?relay", Start
Stop                SYMBOL "Stop"
`??Stop::?relay`    SYMBOL "?relay", Stop
ReadBH1750          SYMBOL "ReadBH1750"
`??ReadBH1750::?relay` SYMBOL "?relay", ReadBH1750
ReadBH1750Seq       SYMBOL "ReadBH1750Seq"
`??ReadBH1750Seq::?relay` SYMBOL "?relay", ReadBH1750Seq
WriteBH1750         SYMBOL "WriteBH1750"
`??WriteBH1750::?relay` SYMBOL "?relay", WriteBH1750

        EXTERN `??ChkACK::?relay`
        FUNCTION `??ChkACK::?relay`,00H
        EXTERN `??DelayaMs::?relay`
        FUNCTION `??DelayaMs::?relay`,00H
        EXTERN `??Read8bit::?relay`
        FUNCTION `??Read8bit::?relay`,00H
        EXTERN `??Send8bit::?relay`
        FUNCTION `??Send8bit::?relay`,00H
        EXTERN `??Start::?relay`
        FUNCTION `??Start::?relay`,00H
        EXTERN `??Stop::?relay`
        FUNCTION `??Stop::?relay`,00H
        EXTERN ChkACK
        FUNCTION ChkACK,0202H
        ARGFRAME ISTACK, 0, STACK
        ARGFRAME PSTACK, 0, STACK
        ARGFRAME XSTACK, 9, STACK
        ARGFRAME IOVERLAY, 0, STATIC
        ARGFRAME DOVERLAY, 0, STATIC
        EXTERN DelayaMs
        FUNCTION DelayaMs,0202H
        ARGFRAME ISTACK, 0, STACK
        ARGFRAME PSTACK, 0, STACK
        ARGFRAME XSTACK, 9, STACK
        ARGFRAME IOVERLAY, 0, STATIC
        ARGFRAME DOVERLAY, 0, STATIC
        EXTERN Read8bit
        FUNCTION Read8bit,0202H
        ARGFRAME ISTACK, 0, STACK
        ARGFRAME PSTACK, 0, STACK
        ARGFRAME XSTACK, 9, STACK
        ARGFRAME IOVERLAY, 0, STATIC
        ARGFRAME DOVERLAY, 0, STATIC
        EXTERN Send8bit
        FUNCTION Send8bit,0202H
        ARGFRAME ISTACK, 0, STACK
        ARGFRAME PSTACK, 0, STACK
        ARGFRAME XSTACK, 9, STACK
        ARGFRAME IOVERLAY, 0, STATIC
        ARGFRAME DOVERLAY, 0, STATIC
        EXTERN Start
        FUNCTION Start,0202H
        ARGFRAME ISTACK, 0, STACK
        ARGFRAME PSTACK, 0, STACK
        ARGFRAME XSTACK, 9, STACK
        ARGFRAME IOVERLAY, 0, STATIC
        ARGFRAME DOVERLAY, 0, STATIC
        EXTERN Stop
        FUNCTION Stop,0202H
        ARGFRAME ISTACK, 0, STACK
        ARGFRAME PSTACK, 0, STACK
        ARGFRAME XSTACK, 9, STACK
        ARGFRAME IOVERLAY, 0, STATIC
        ARGFRAME DOVERLAY, 0, STATIC

// F:\Zigbeespace\20171020\ZStack-2.5.1a\Projects\zstack\Samples\SampleApp\Source\BH1750.c
//    1 /**************************************************************************************************
//    2 文件名：24c02.c
//    3 编写者：czhang
//    4 描述：24c02子程序。用于135、145、147、149。
//    5 
//    6 版本变更：2003年10月11日   	1.0
//    7           2004年11月   		1.3
//    8           每次读写一个字节改为每次读写多字节
//    9 *****************************************************************************************************/
//   10 #include "BH1750.h"
//   11 #include "IIC.h"
//   12 void DelayaMs(unsigned int ms);

        RSEG XDATA_Z:XDATA:NOROOT(0)
        DATA16
//   13 unsigned char BUF[2];
BUF:
        DS 2
        REQUIRE __INIT_XDATA_Z
//   14 
//   15 /***************************************************************************
//   16 向BH1750中写多个字节
//   17 psrc_data：指向要写入数据数组的指针
//   18 adr：BH1750中要写入数据的首地址
//   19 nbyte：写入的字节数
//   20 返回值:  0：执行完毕；1：执行出现错误
//   21 ***************************************************************************/

        RSEG BANKED_CODE:CODE:NOROOT(0)
//   22 unsigned char WriteBH1750(unsigned int adr,unsigned char nbyte)
WriteBH1750:
          CFI Block cfiBlock0 Using cfiCommon0
          CFI Function WriteBH1750
        CODE
//   23 {
        FUNCALL WriteBH1750, Stop
        LOCFRAME ISTACK, 0, STACK
        LOCFRAME PSTACK, 0, STACK
        LOCFRAME XSTACK, 9, STACK
        LOCFRAME IOVERLAY, 0, STATIC
        LOCFRAME DOVERLAY, 0, STATIC
        ARGFRAME ISTACK, 0, STACK
        ARGFRAME PSTACK, 0, STACK
        ARGFRAME XSTACK, 9, STACK
        ARGFRAME IOVERLAY, 0, STATIC
        ARGFRAME DOVERLAY, 0, STATIC
        FUNCALL WriteBH1750, DelayaMs
        LOCFRAME ISTACK, 0, STACK
        LOCFRAME PSTACK, 0, STACK
        LOCFRAME XSTACK, 9, STACK
        LOCFRAME IOVERLAY, 0, STATIC
        LOCFRAME DOVERLAY, 0, STATIC
        ARGFRAME ISTACK, 0, STACK
        ARGFRAME PSTACK, 0, STACK
        ARGFRAME XSTACK, 9, STACK
        ARGFRAME IOVERLAY, 0, STATIC
        ARGFRAME DOVERLAY, 0, STATIC
        FUNCALL WriteBH1750, Start
        LOCFRAME ISTACK, 0, STACK
        LOCFRAME PSTACK, 0, STACK
        LOCFRAME XSTACK, 9, STACK
        LOCFRAME IOVERLAY, 0, STATIC
        LOCFRAME DOVERLAY, 0, STATIC
        ARGFRAME ISTACK, 0, STACK
        ARGFRAME PSTACK, 0, STACK
        ARGFRAME XSTACK, 9, STACK
        ARGFRAME IOVERLAY, 0, STATIC
        ARGFRAME DOVERLAY, 0, STATIC
        FUNCALL WriteBH1750, Send8bit
        LOCFRAME ISTACK, 0, STACK
        LOCFRAME PSTACK, 0, STACK
        LOCFRAME XSTACK, 9, STACK
        LOCFRAME IOVERLAY, 0, STATIC
        LOCFRAME DOVERLAY, 0, STATIC
        ARGFRAME ISTACK, 0, STACK
        ARGFRAME PSTACK, 0, STACK
        ARGFRAME XSTACK, 9, STACK
        ARGFRAME IOVERLAY, 0, STATIC
        ARGFRAME DOVERLAY, 0, STATIC
        FUNCALL WriteBH1750, ChkACK
        LOCFRAME ISTACK, 0, STACK
        LOCFRAME PSTACK, 0, STACK
        LOCFRAME XSTACK, 9, STACK
        LOCFRAME IOVERLAY, 0, STATIC
        LOCFRAME DOVERLAY, 0, STATIC
        ARGFRAME ISTACK, 0, STACK
        ARGFRAME PSTACK, 0, STACK
        ARGFRAME XSTACK, 9, STACK
        ARGFRAME IOVERLAY, 0, STATIC
        ARGFRAME DOVERLAY, 0, STATIC
        FUNCALL WriteBH1750, Send8bit
        LOCFRAME ISTACK, 0, STACK
        LOCFRAME PSTACK, 0, STACK
        LOCFRAME XSTACK, 9, STACK
        LOCFRAME IOVERLAY, 0, STATIC
        LOCFRAME DOVERLAY, 0, STATIC
        ARGFRAME ISTACK, 0, STACK
        ARGFRAME PSTACK, 0, STACK
        ARGFRAME XSTACK, 9, STACK
        ARGFRAME IOVERLAY, 0, STATIC
        ARGFRAME DOVERLAY, 0, STATIC
        FUNCALL WriteBH1750, ChkACK
        LOCFRAME ISTACK, 0, STACK
        LOCFRAME PSTACK, 0, STACK
        LOCFRAME XSTACK, 9, STACK
        LOCFRAME IOVERLAY, 0, STATIC
        LOCFRAME DOVERLAY, 0, STATIC
        ARGFRAME ISTACK, 0, STACK
        ARGFRAME PSTACK, 0, STACK
        ARGFRAME XSTACK, 9, STACK
        ARGFRAME IOVERLAY, 0, STATIC
        ARGFRAME DOVERLAY, 0, STATIC
        REQUIRE ?V0
        MOV     A,#-0x9
        LCALL   ?BANKED_ENTER_XDATA
          CFI DPH0 load(1, XDATA, add(CFA_XSP16, literal(-1)))
          CFI DPL0 load(1, XDATA, add(CFA_XSP16, literal(-2)))
          CFI ?BRET_EXT load(1, XDATA, add(CFA_XSP16, literal(-3)))
          CFI ?RET_HIGH load(1, XDATA, add(CFA_XSP16, literal(-4)))
          CFI ?RET_LOW load(1, XDATA, add(CFA_XSP16, literal(-5)))
          CFI R7 load(1, XDATA, add(CFA_XSP16, literal(-6)))
          CFI V0 load(1, XDATA, add(CFA_XSP16, literal(-7)))
          CFI VB load(1, XDATA, add(CFA_XSP16, literal(-8)))
          CFI R6 load(1, XDATA, add(CFA_XSP16, literal(-9)))
          CFI CFA_SP SP+0
          CFI CFA_XSP16 add(XSP16, 9)
        ; Saved register size: 9
        ; Auto size: 0
        MOV     A,R2
        MOV     R6,A
        MOV     ?V0,R1
        SJMP    ??WriteBH1750_0
//   24   	for(;nbyte!=0;nbyte--)
//   25 	{
//   26 		Start();			//启动IIC总线
//   27 		Send8bit(W_DEVICE_ADR);	//写24C02的芯片地址以及确定下面执行写操作
//   28 		if(ChkACK()==1)		//检验应答
//   29 			return 1;		//若应答错误，则退出函数，返回错误
//   30 		Send8bit(adr);			//写对24C02操作的地址
//   31 		if(ChkACK()==1)
//   32 			return 1;
//   33 		adr++;				//对24C02的操作地址加1
??WriteBH1750_1:
        INC     R6
        MOV     A,R6
//   34 		Stop();				//停止IIC总线
        ; Setup parameters for call to function Stop
        LCALL   `??Stop::?relay`     ; Banked call to: Stop
//   35 		DelayaMs(10);			//写入延时
        ; Setup parameters for call to function DelayaMs
        MOV     R2,#0xa
        MOV     R3,#0x0
        LCALL   `??DelayaMs::?relay` ; Banked call to: DelayaMs
        DEC     ?V0
??WriteBH1750_0:
        MOV     A,?V0
        JZ      ??WriteBH1750_2
        ; Setup parameters for call to function Start
        LCALL   `??Start::?relay`    ; Banked call to: Start
        ; Setup parameters for call to function Send8bit
        MOV     R1,#0x46
        LCALL   `??Send8bit::?relay` ; Banked call to: Send8bit
        ; Setup parameters for call to function ChkACK
        LCALL   `??ChkACK::?relay`   ; Banked call to: ChkACK
        MOV     A,R1
        XRL     A,#0x1
        JZ      ??WriteBH1750_3
        ; Setup parameters for call to function Send8bit
        MOV     A,R6
        MOV     R1,A
        LCALL   `??Send8bit::?relay` ; Banked call to: Send8bit
        ; Setup parameters for call to function ChkACK
        LCALL   `??ChkACK::?relay`   ; Banked call to: ChkACK
        MOV     A,R1
        XRL     A,#0x1
        JNZ     ??WriteBH1750_1
??WriteBH1750_3:
        MOV     R1,#0x1
        SJMP    ??WriteBH1750_4
//   36 	}
//   37 	return 0;
??WriteBH1750_2:
        MOV     R1,#0x0
??WriteBH1750_4:
          CFI EndBlock cfiBlock0
        REQUIRE ?Subroutine0
        ; // Fall through to label ?Subroutine0
//   38 }

        RSEG BANKED_CODE:CODE:NOROOT(0)
?Subroutine0:
          CFI Block cfiBlock1 Using cfiCommon0
          CFI NoFunction
          CFI CFA_SP SP+0
          CFI CFA_XSP16 add(XSP16, 9)
          CFI VB load(1, XDATA, add(CFA_XSP16, literal(-8)))
          CFI DPL0 load(1, XDATA, add(CFA_XSP16, literal(-2)))
          CFI DPH0 load(1, XDATA, add(CFA_XSP16, literal(-1)))
          CFI R6 load(1, XDATA, add(CFA_XSP16, literal(-9)))
          CFI R7 load(1, XDATA, add(CFA_XSP16, literal(-6)))
          CFI V0 load(1, XDATA, add(CFA_XSP16, literal(-7)))
          CFI ?BRET_EXT load(1, XDATA, add(CFA_XSP16, literal(-3)))
          CFI ?RET_HIGH load(1, XDATA, add(CFA_XSP16, literal(-4)))
          CFI ?RET_LOW load(1, XDATA, add(CFA_XSP16, literal(-5)))
        MOV     R7,#0x1
        LJMP    ?BANKED_LEAVE_XDATA
          CFI EndBlock cfiBlock1
//   39 
//   40 /***************************************************************************
//   41 从BH1750中读一个字节
//   42 pdin_data：指向要保存读出数据的变量的指针
//   43 adr：BH1750中要读出数据的地址
//   44 返回值:  0：执行完毕；1：执行出现错误
//   45 ***************************************************************************/

        RSEG BANKED_CODE:CODE:NOROOT(0)
//   46 unsigned char ReadBH1750(unsigned char *pdin_data,unsigned char adr)
ReadBH1750:
          CFI Block cfiBlock2 Using cfiCommon0
          CFI Function ReadBH1750
        CODE
//   47 {
        FUNCALL ReadBH1750, Start
        LOCFRAME ISTACK, 0, STACK
        LOCFRAME PSTACK, 0, STACK
        LOCFRAME XSTACK, 9, STACK
        LOCFRAME IOVERLAY, 0, STATIC
        LOCFRAME DOVERLAY, 0, STATIC
        ARGFRAME ISTACK, 0, STACK
        ARGFRAME PSTACK, 0, STACK
        ARGFRAME XSTACK, 9, STACK
        ARGFRAME IOVERLAY, 0, STATIC
        ARGFRAME DOVERLAY, 0, STATIC
        FUNCALL ReadBH1750, Send8bit
        LOCFRAME ISTACK, 0, STACK
        LOCFRAME PSTACK, 0, STACK
        LOCFRAME XSTACK, 9, STACK
        LOCFRAME IOVERLAY, 0, STATIC
        LOCFRAME DOVERLAY, 0, STATIC
        ARGFRAME ISTACK, 0, STACK
        ARGFRAME PSTACK, 0, STACK
        ARGFRAME XSTACK, 9, STACK
        ARGFRAME IOVERLAY, 0, STATIC
        ARGFRAME DOVERLAY, 0, STATIC
        FUNCALL ReadBH1750, ChkACK
        LOCFRAME ISTACK, 0, STACK
        LOCFRAME PSTACK, 0, STACK
        LOCFRAME XSTACK, 9, STACK
        LOCFRAME IOVERLAY, 0, STATIC
        LOCFRAME DOVERLAY, 0, STATIC
        ARGFRAME ISTACK, 0, STACK
        ARGFRAME PSTACK, 0, STACK
        ARGFRAME XSTACK, 9, STACK
        ARGFRAME IOVERLAY, 0, STATIC
        ARGFRAME DOVERLAY, 0, STATIC
        FUNCALL ReadBH1750, Send8bit
        LOCFRAME ISTACK, 0, STACK
        LOCFRAME PSTACK, 0, STACK
        LOCFRAME XSTACK, 9, STACK
        LOCFRAME IOVERLAY, 0, STATIC
        LOCFRAME DOVERLAY, 0, STATIC
        ARGFRAME ISTACK, 0, STACK
        ARGFRAME PSTACK, 0, STACK
        ARGFRAME XSTACK, 9, STACK
        ARGFRAME IOVERLAY, 0, STATIC
        ARGFRAME DOVERLAY, 0, STATIC
        FUNCALL ReadBH1750, ChkACK
        LOCFRAME ISTACK, 0, STACK
        LOCFRAME PSTACK, 0, STACK
        LOCFRAME XSTACK, 9, STACK
        LOCFRAME IOVERLAY, 0, STATIC
        LOCFRAME DOVERLAY, 0, STATIC
        ARGFRAME ISTACK, 0, STACK
        ARGFRAME PSTACK, 0, STACK
        ARGFRAME XSTACK, 9, STACK
        ARGFRAME IOVERLAY, 0, STATIC
        ARGFRAME DOVERLAY, 0, STATIC
        FUNCALL ReadBH1750, Start
        LOCFRAME ISTACK, 0, STACK
        LOCFRAME PSTACK, 0, STACK
        LOCFRAME XSTACK, 9, STACK
        LOCFRAME IOVERLAY, 0, STATIC
        LOCFRAME DOVERLAY, 0, STATIC
        ARGFRAME ISTACK, 0, STACK
        ARGFRAME PSTACK, 0, STACK
        ARGFRAME XSTACK, 9, STACK
        ARGFRAME IOVERLAY, 0, STATIC
        ARGFRAME DOVERLAY, 0, STATIC
        FUNCALL ReadBH1750, Send8bit
        LOCFRAME ISTACK, 0, STACK
        LOCFRAME PSTACK, 0, STACK
        LOCFRAME XSTACK, 9, STACK
        LOCFRAME IOVERLAY, 0, STATIC
        LOCFRAME DOVERLAY, 0, STATIC
        ARGFRAME ISTACK, 0, STACK
        ARGFRAME PSTACK, 0, STACK
        ARGFRAME XSTACK, 9, STACK
        ARGFRAME IOVERLAY, 0, STATIC
        ARGFRAME DOVERLAY, 0, STATIC
        FUNCALL ReadBH1750, ChkACK
        LOCFRAME ISTACK, 0, STACK
        LOCFRAME PSTACK, 0, STACK
        LOCFRAME XSTACK, 9, STACK
        LOCFRAME IOVERLAY, 0, STATIC
        LOCFRAME DOVERLAY, 0, STATIC
        ARGFRAME ISTACK, 0, STACK
        ARGFRAME PSTACK, 0, STACK
        ARGFRAME XSTACK, 9, STACK
        ARGFRAME IOVERLAY, 0, STATIC
        ARGFRAME DOVERLAY, 0, STATIC
        FUNCALL ReadBH1750, Read8bit
        LOCFRAME ISTACK, 0, STACK
        LOCFRAME PSTACK, 0, STACK
        LOCFRAME XSTACK, 9, STACK
        LOCFRAME IOVERLAY, 0, STATIC
        LOCFRAME DOVERLAY, 0, STATIC
        ARGFRAME ISTACK, 0, STACK
        ARGFRAME PSTACK, 0, STACK
        ARGFRAME XSTACK, 9, STACK
        ARGFRAME IOVERLAY, 0, STATIC
        ARGFRAME DOVERLAY, 0, STATIC
        FUNCALL ReadBH1750, Stop
        LOCFRAME ISTACK, 0, STACK
        LOCFRAME PSTACK, 0, STACK
        LOCFRAME XSTACK, 9, STACK
        LOCFRAME IOVERLAY, 0, STATIC
        LOCFRAME DOVERLAY, 0, STATIC
        ARGFRAME ISTACK, 0, STACK
        ARGFRAME PSTACK, 0, STACK
        ARGFRAME XSTACK, 9, STACK
        ARGFRAME IOVERLAY, 0, STATIC
        ARGFRAME DOVERLAY, 0, STATIC
        REQUIRE ?V0
        MOV     A,#-0x9
        LCALL   ?BANKED_ENTER_XDATA
          CFI DPH0 load(1, XDATA, add(CFA_XSP16, literal(-1)))
          CFI DPL0 load(1, XDATA, add(CFA_XSP16, literal(-2)))
          CFI ?BRET_EXT load(1, XDATA, add(CFA_XSP16, literal(-3)))
          CFI ?RET_HIGH load(1, XDATA, add(CFA_XSP16, literal(-4)))
          CFI ?RET_LOW load(1, XDATA, add(CFA_XSP16, literal(-5)))
          CFI R7 load(1, XDATA, add(CFA_XSP16, literal(-6)))
          CFI V0 load(1, XDATA, add(CFA_XSP16, literal(-7)))
          CFI VB load(1, XDATA, add(CFA_XSP16, literal(-8)))
          CFI R6 load(1, XDATA, add(CFA_XSP16, literal(-9)))
          CFI CFA_SP SP+0
          CFI CFA_XSP16 add(XSP16, 9)
        ; Saved register size: 9
        ; Auto size: 0
        MOV     A,R2
        MOV     R6,A
        MOV     A,R3
        MOV     R7,A
        MOV     ?V0,R1
//   48 	Start();			//启动IIC总线
        ; Setup parameters for call to function Start
        LCALL   `??Start::?relay`    ; Banked call to: Start
//   49 	Send8bit(W_DEVICE_ADR);	//写24C02的芯片地址以及确定下面执行写操作
        ; Setup parameters for call to function Send8bit
        MOV     R1,#0x46
        LCALL   `??Send8bit::?relay` ; Banked call to: Send8bit
//   50 	if(ChkACK()==1)
        ; Setup parameters for call to function ChkACK
        LCALL   `??ChkACK::?relay`   ; Banked call to: ChkACK
        MOV     A,R1
        XRL     A,#0x1
        JZ      ??ReadBH1750_0
//   51 		return 1;
//   52 	Send8bit(adr);			//写对24C02操作的地址
        ; Setup parameters for call to function Send8bit
        MOV     R1,?V0
        LCALL   `??Send8bit::?relay` ; Banked call to: Send8bit
//   53 	if(ChkACK()==1)
        ; Setup parameters for call to function ChkACK
        LCALL   `??ChkACK::?relay`   ; Banked call to: ChkACK
        MOV     A,R1
        XRL     A,#0x1
        JZ      ??ReadBH1750_0
//   54 		return 1;
//   55 
//   56 	Start();			//再次启动IIC总线
        ; Setup parameters for call to function Start
        LCALL   `??Start::?relay`    ; Banked call to: Start
//   57 	Send8bit(R_DEVICE_ADR);	//写24C02的芯片地址以及确定下面执行读操作
        ; Setup parameters for call to function Send8bit
        MOV     R1,#0x47
        LCALL   `??Send8bit::?relay` ; Banked call to: Send8bit
//   58 	if(ChkACK()==1)
        ; Setup parameters for call to function ChkACK
        LCALL   `??ChkACK::?relay`   ; Banked call to: ChkACK
        MOV     A,R1
        XRL     A,#0x1
        JNZ     ??ReadBH1750_1
//   59 		return 1;
??ReadBH1750_0:
        MOV     R1,#0x1
        SJMP    ??ReadBH1750_2
//   60 	*pdin_data=Read8bit(0);		//从24C02中读数据，存入pdin_data所指的存储器中
??ReadBH1750_1:
        ; Setup parameters for call to function Read8bit
        MOV     R1,#0x0
        LCALL   `??Read8bit::?relay` ; Banked call to: Read8bit
        MOV     A,R1
        MOV     DPL,R6
        MOV     DPH,R7
        MOVX    @DPTR,A
//   61 //	NoAck();			//IIC无应答操作
//   62 	Stop();				//停止IIC总线
        ; Setup parameters for call to function Stop
        LCALL   `??Stop::?relay`     ; Banked call to: Stop
//   63 
//   64 	return 0;
        MOV     R1,#0x0
??ReadBH1750_2:
        SJMP    ?Subroutine0
//   65 }
          CFI EndBlock cfiBlock2
//   66 
//   67 /***************************************************************************
//   68 从BH1750读多个字节
//   69 pdin_data：指向要保存读出数据的数组的指针
//   70 adr：BH1750中要读出数据的首地址
//   71 nbyte：读出的字节数
//   72 返回值:  0：执行完毕；1：执行出现错误
//   73 ***************************************************************************/

        RSEG BANKED_CODE:CODE:NOROOT(0)
//   74 unsigned char ReadBH1750Seq(unsigned char adr)
ReadBH1750Seq:
          CFI Block cfiBlock3 Using cfiCommon0
          CFI Function ReadBH1750Seq
        CODE
//   75 {
        FUNCALL ReadBH1750Seq, Start
        LOCFRAME ISTACK, 0, STACK
        LOCFRAME PSTACK, 0, STACK
        LOCFRAME XSTACK, 9, STACK
        LOCFRAME IOVERLAY, 0, STATIC
        LOCFRAME DOVERLAY, 0, STATIC
        ARGFRAME ISTACK, 0, STACK
        ARGFRAME PSTACK, 0, STACK
        ARGFRAME XSTACK, 9, STACK
        ARGFRAME IOVERLAY, 0, STATIC
        ARGFRAME DOVERLAY, 0, STATIC
        FUNCALL ReadBH1750Seq, Send8bit
        LOCFRAME ISTACK, 0, STACK
        LOCFRAME PSTACK, 0, STACK
        LOCFRAME XSTACK, 9, STACK
        LOCFRAME IOVERLAY, 0, STATIC
        LOCFRAME DOVERLAY, 0, STATIC
        ARGFRAME ISTACK, 0, STACK
        ARGFRAME PSTACK, 0, STACK
        ARGFRAME XSTACK, 9, STACK
        ARGFRAME IOVERLAY, 0, STATIC
        ARGFRAME DOVERLAY, 0, STATIC
        FUNCALL ReadBH1750Seq, ChkACK
        LOCFRAME ISTACK, 0, STACK
        LOCFRAME PSTACK, 0, STACK
        LOCFRAME XSTACK, 9, STACK
        LOCFRAME IOVERLAY, 0, STATIC
        LOCFRAME DOVERLAY, 0, STATIC
        ARGFRAME ISTACK, 0, STACK
        ARGFRAME PSTACK, 0, STACK
        ARGFRAME XSTACK, 9, STACK
        ARGFRAME IOVERLAY, 0, STATIC
        ARGFRAME DOVERLAY, 0, STATIC
        FUNCALL ReadBH1750Seq, Send8bit
        LOCFRAME ISTACK, 0, STACK
        LOCFRAME PSTACK, 0, STACK
        LOCFRAME XSTACK, 9, STACK
        LOCFRAME IOVERLAY, 0, STATIC
        LOCFRAME DOVERLAY, 0, STATIC
        ARGFRAME ISTACK, 0, STACK
        ARGFRAME PSTACK, 0, STACK
        ARGFRAME XSTACK, 9, STACK
        ARGFRAME IOVERLAY, 0, STATIC
        ARGFRAME DOVERLAY, 0, STATIC
        FUNCALL ReadBH1750Seq, ChkACK
        LOCFRAME ISTACK, 0, STACK
        LOCFRAME PSTACK, 0, STACK
        LOCFRAME XSTACK, 9, STACK
        LOCFRAME IOVERLAY, 0, STATIC
        LOCFRAME DOVERLAY, 0, STATIC
        ARGFRAME ISTACK, 0, STACK
        ARGFRAME PSTACK, 0, STACK
        ARGFRAME XSTACK, 9, STACK
        ARGFRAME IOVERLAY, 0, STATIC
        ARGFRAME DOVERLAY, 0, STATIC
        FUNCALL ReadBH1750Seq, Start
        LOCFRAME ISTACK, 0, STACK
        LOCFRAME PSTACK, 0, STACK
        LOCFRAME XSTACK, 9, STACK
        LOCFRAME IOVERLAY, 0, STATIC
        LOCFRAME DOVERLAY, 0, STATIC
        ARGFRAME ISTACK, 0, STACK
        ARGFRAME PSTACK, 0, STACK
        ARGFRAME XSTACK, 9, STACK
        ARGFRAME IOVERLAY, 0, STATIC
        ARGFRAME DOVERLAY, 0, STATIC
        FUNCALL ReadBH1750Seq, Send8bit
        LOCFRAME ISTACK, 0, STACK
        LOCFRAME PSTACK, 0, STACK
        LOCFRAME XSTACK, 9, STACK
        LOCFRAME IOVERLAY, 0, STATIC
        LOCFRAME DOVERLAY, 0, STATIC
        ARGFRAME ISTACK, 0, STACK
        ARGFRAME PSTACK, 0, STACK
        ARGFRAME XSTACK, 9, STACK
        ARGFRAME IOVERLAY, 0, STATIC
        ARGFRAME DOVERLAY, 0, STATIC
        FUNCALL ReadBH1750Seq, ChkACK
        LOCFRAME ISTACK, 0, STACK
        LOCFRAME PSTACK, 0, STACK
        LOCFRAME XSTACK, 9, STACK
        LOCFRAME IOVERLAY, 0, STATIC
        LOCFRAME DOVERLAY, 0, STATIC
        ARGFRAME ISTACK, 0, STACK
        ARGFRAME PSTACK, 0, STACK
        ARGFRAME XSTACK, 9, STACK
        ARGFRAME IOVERLAY, 0, STATIC
        ARGFRAME DOVERLAY, 0, STATIC
        FUNCALL ReadBH1750Seq, Read8bit
        LOCFRAME ISTACK, 0, STACK
        LOCFRAME PSTACK, 0, STACK
        LOCFRAME XSTACK, 9, STACK
        LOCFRAME IOVERLAY, 0, STATIC
        LOCFRAME DOVERLAY, 0, STATIC
        ARGFRAME ISTACK, 0, STACK
        ARGFRAME PSTACK, 0, STACK
        ARGFRAME XSTACK, 9, STACK
        ARGFRAME IOVERLAY, 0, STATIC
        ARGFRAME DOVERLAY, 0, STATIC
        FUNCALL ReadBH1750Seq, Stop
        LOCFRAME ISTACK, 0, STACK
        LOCFRAME PSTACK, 0, STACK
        LOCFRAME XSTACK, 9, STACK
        LOCFRAME IOVERLAY, 0, STATIC
        LOCFRAME DOVERLAY, 0, STATIC
        ARGFRAME ISTACK, 0, STACK
        ARGFRAME PSTACK, 0, STACK
        ARGFRAME XSTACK, 9, STACK
        ARGFRAME IOVERLAY, 0, STATIC
        ARGFRAME DOVERLAY, 0, STATIC
        REQUIRE ?V0
        MOV     A,#-0x9
        LCALL   ?BANKED_ENTER_XDATA
          CFI DPH0 load(1, XDATA, add(CFA_XSP16, literal(-1)))
          CFI DPL0 load(1, XDATA, add(CFA_XSP16, literal(-2)))
          CFI ?BRET_EXT load(1, XDATA, add(CFA_XSP16, literal(-3)))
          CFI ?RET_HIGH load(1, XDATA, add(CFA_XSP16, literal(-4)))
          CFI ?RET_LOW load(1, XDATA, add(CFA_XSP16, literal(-5)))
          CFI R7 load(1, XDATA, add(CFA_XSP16, literal(-6)))
          CFI V0 load(1, XDATA, add(CFA_XSP16, literal(-7)))
          CFI VB load(1, XDATA, add(CFA_XSP16, literal(-8)))
          CFI R6 load(1, XDATA, add(CFA_XSP16, literal(-9)))
          CFI CFA_SP SP+0
          CFI CFA_XSP16 add(XSP16, 9)
        ; Saved register size: 9
        ; Auto size: 0
        MOV     ?V0,R1
//   76 	Start();			//启动IIC总线
        ; Setup parameters for call to function Start
        LCALL   `??Start::?relay`    ; Banked call to: Start
//   77 	Send8bit(W_DEVICE_ADR);	//写24C02的芯片地址以及确定下面执行写操作
        ; Setup parameters for call to function Send8bit
        MOV     R1,#0x46
        LCALL   `??Send8bit::?relay` ; Banked call to: Send8bit
//   78 	if(ChkACK()==1)
        ; Setup parameters for call to function ChkACK
        LCALL   `??ChkACK::?relay`   ; Banked call to: ChkACK
        MOV     A,R1
        XRL     A,#0x1
        JZ      ??ReadBH1750Seq_0
//   79 		return 1;
//   80 	Send8bit(adr);			//写对24C02操作的地址
        ; Setup parameters for call to function Send8bit
        MOV     R1,?V0
        LCALL   `??Send8bit::?relay` ; Banked call to: Send8bit
//   81 	if(ChkACK()==1)
        ; Setup parameters for call to function ChkACK
        LCALL   `??ChkACK::?relay`   ; Banked call to: ChkACK
        MOV     A,R1
        XRL     A,#0x1
        JZ      ??ReadBH1750Seq_0
//   82 		return 1;
//   83 
//   84 	Start();			//再次启动IIC总线
        ; Setup parameters for call to function Start
        LCALL   `??Start::?relay`    ; Banked call to: Start
//   85 	Send8bit(R_DEVICE_ADR);	//写24C02的芯片地址以及确定下面执行读操作
        ; Setup parameters for call to function Send8bit
        MOV     R1,#0x47
        LCALL   `??Send8bit::?relay` ; Banked call to: Send8bit
//   86 	if(ChkACK()==1)
        ; Setup parameters for call to function ChkACK
        LCALL   `??ChkACK::?relay`   ; Banked call to: ChkACK
        MOV     A,R1
        XRL     A,#0x1
        JNZ     ??ReadBH1750Seq_1
//   87 		return 1;
??ReadBH1750Seq_0:
        MOV     R1,#0x1
        SJMP    ??ReadBH1750Seq_2
//   88         for(int i=0;i<2;i++)
??ReadBH1750Seq_1:
        MOV     R6,#0x0
        MOV     R7,#0x0
//   89         {
//   90           BUF[i]=Read8bit(0);
??ReadBH1750Seq_3:
        ; Setup parameters for call to function Read8bit
        MOV     R1,#0x0
        LCALL   `??Read8bit::?relay` ; Banked call to: Read8bit
        MOV     A,#BUF & 0xff
        ADD     A,R6
        MOV     DPL,A
        MOV     A,#(BUF >> 8) & 0xff
        ADDC    A,R7
        MOV     DPH,A
        MOV     A,R1
        MOVX    @DPTR,A
//   91 //          if(i==2)
//   92 //          {
//   93 //            NoAck();	
//   94 //          }
//   95 //          else
//   96 //          {
//   97 //            Ack();
//   98 //          }
//   99         }
        INC     R6
        MOV     A,R6
        JNZ     ??ReadBH1750Seq_4
        INC     R7
??ReadBH1750Seq_4:
        CLR     C
        SUBB    A,#0x2
        MOV     A,R7
        SUBB    A,#0x0
        MOV     C,0xD0 /* PSW */.2
        XRL     A,PSW
        RLC     A
        JC      ??ReadBH1750Seq_3
//  100 	Stop();
        ; Setup parameters for call to function Stop
        LCALL   `??Stop::?relay`     ; Banked call to: Stop
//  101 	return 0;
        MOV     R1,#0x0
??ReadBH1750Seq_2:
        LJMP    ?Subroutine0 & 0xFFFF
//  102 }
          CFI EndBlock cfiBlock3

        RSEG BANK_RELAYS:CODE:REORDER:NOROOT(0)
`??WriteBH1750::?relay`:
        CODE
        LCALL   ?BDISPATCH
        DATA24
        DC24    WriteBH1750

        RSEG BANK_RELAYS:CODE:REORDER:NOROOT(0)
`??ReadBH1750::?relay`:
        CODE
        LCALL   ?BDISPATCH
        DATA24
        DC24    ReadBH1750

        RSEG BANK_RELAYS:CODE:REORDER:NOROOT(0)
`??ReadBH1750Seq::?relay`:
        CODE
        LCALL   ?BDISPATCH
        DATA24
        DC24    ReadBH1750Seq

        END
// 
// 250 bytes in segment BANKED_CODE
//  18 bytes in segment BANK_RELAYS
//   2 bytes in segment XDATA_Z
// 
// 268 bytes of CODE  memory
//   2 bytes of XDATA memory
//
//Errors: none
//Warnings: none
