///////////////////////////////////////////////////////////////////////////////
//
// IAR C/C++ Compiler V9.30.1.3056 for 8051               08/Nov/2017  15:29:24
// Copyright 2004-2015 IAR Systems AB.
// Standalone license - IAR Embedded Workbench for 8051
//
//    Core               =  plain
//    Code model         =  banked
//    Data model         =  large
//    Calling convention =  xdata reentrant
//    Constant location  =  data_rom
//    Dptr setup         =  1,16
//                          
//    Source file        =  
//        F:\Zigbeespace\20171020\ZStack-2.5.1a\Components\hal\target\CC2530EB\hal_lcd.c
//    Command line       =  
//        -f
//        F:\Zigbeespace\20171020\ZStack-2.5.1a\Projects\zstack\Samples\SampleApp\CC2530DB\..\..\..\Tools\CC2530DB\f8wCoord.cfg
//        (-DCPU32MHZ -DROOT=__near_func -DMAC_CFG_APP_PENDING_QUEUE=TRUE
//        -DMAC_CFG_TX_DATA_MAX=5 -DMAC_CFG_TX_MAX=8 -DMAC_CFG_RX_MAX=5
//        -DZDO_COORDINATOR -DRTR_NWK) -f
//        F:\Zigbeespace\20171020\ZStack-2.5.1a\Projects\zstack\Samples\SampleApp\CC2530DB\..\..\..\Tools\CC2530DB\f8wConfig.cfg
//        (-DZIGBEEPRO -DSECURE=0 -DZG_SECURE_DYNAMIC=0 -DREFLECTOR
//        -DDEFAULT_CHANLIST=0x00000800 -DZDAPP_CONFIG_PAN_ID=0x333;
//        -DNWK_START_DELAY=100 -DEXTENDED_JOINING_RANDOM_MASK=0x007F
//        -DBEACON_REQUEST_DELAY=100 -DBEACON_REQ_DELAY_MASK=0x00FF
//        -DLINK_STATUS_JITTER_MASK=0x007F -DROUTE_EXPIRY_TIME=30
//        -DAPSC_ACK_WAIT_DURATION_POLLED=3000 -DNWK_INDIRECT_MSG_TIMEOUT=7
//        -DMAX_RREQ_ENTRIES=8 -DAPSC_MAX_FRAME_RETRIES=3
//        -DNWK_MAX_DATA_RETRIES=2 -DMAX_POLL_FAILURE_RETRIES=2 -DMAX_BCAST=9
//        -DAPS_MAX_GROUPS=16 -DMAX_RTG_ENTRIES=40 -DNWK_MAX_BINDING_ENTRIES=4
//        -DMAX_BINDING_CLUSTER_IDS=4 "-DDEFAULT_KEY={0x01, 0x03, 0x05, 0x07,
//        0x09, 0x0B, 0x0D, 0x0F, 0x00, 0x02, 0x04, 0x06, 0x08, 0x0A, 0x0C,
//        0x0D}" -DMAC_MAX_FRAME_SIZE=116 -DZDNWKMGR_MIN_TRANSMISSIONS=20
//        "-DCONST=const __code" -DGENERIC=__generic -DRFD_RCVC_ALWAYS_ON=FALSE
//        -DPOLL_RATE=0 -DQUEUED_POLL_RATE=0 -DRESPONSE_POLL_RATE=0)
//        -DREJOIN_POLL_RATE=1000
//        F:\Zigbeespace\20171020\ZStack-2.5.1a\Components\hal\target\CC2530EB\hal_lcd.c
//        -D ZTOOL_P1 -D xMT_TASK -D xMT_SYS_FUNC -D xMT_ZDO_FUNC -D
//        xLCD_SUPPORTED=DEBUG -lC
//        F:\Zigbeespace\20171020\ZStack-2.5.1a\Projects\zstack\Samples\SampleApp\CC2530DB\CoordinatorEB\List
//        -lA
//        F:\Zigbeespace\20171020\ZStack-2.5.1a\Projects\zstack\Samples\SampleApp\CC2530DB\CoordinatorEB\List
//        --diag_suppress Pe001,Pa010 -o
//        F:\Zigbeespace\20171020\ZStack-2.5.1a\Projects\zstack\Samples\SampleApp\CC2530DB\CoordinatorEB\Obj
//        -e --no_code_motion --debug --core=plain --dptr=16,1
//        --data_model=large --code_model=banked
//        --calling_convention=xdata_reentrant --place_constants=data_rom
//        --nr_virtual_regs 8 -I
//        F:\Zigbeespace\20171020\ZStack-2.5.1a\Projects\zstack\Samples\SampleApp\CC2530DB\
//        -I
//        F:\Zigbeespace\20171020\ZStack-2.5.1a\Projects\zstack\Samples\SampleApp\CC2530DB\..\Source\
//        -I
//        F:\Zigbeespace\20171020\ZStack-2.5.1a\Projects\zstack\Samples\SampleApp\CC2530DB\..\..\..\ZMain\TI2530DB\
//        -I
//        F:\Zigbeespace\20171020\ZStack-2.5.1a\Projects\zstack\Samples\SampleApp\CC2530DB\..\..\..\..\..\Components\hal\include\
//        -I
//        F:\Zigbeespace\20171020\ZStack-2.5.1a\Projects\zstack\Samples\SampleApp\CC2530DB\..\..\..\..\..\Components\hal\target\CC2530EB\
//        -I
//        F:\Zigbeespace\20171020\ZStack-2.5.1a\Projects\zstack\Samples\SampleApp\CC2530DB\..\..\..\..\..\Components\mac\include\
//        -I
//        F:\Zigbeespace\20171020\ZStack-2.5.1a\Projects\zstack\Samples\SampleApp\CC2530DB\..\..\..\..\..\Components\mac\high_level\
//        -I
//        F:\Zigbeespace\20171020\ZStack-2.5.1a\Projects\zstack\Samples\SampleApp\CC2530DB\..\..\..\..\..\Components\mac\low_level\srf04\
//        -I
//        F:\Zigbeespace\20171020\ZStack-2.5.1a\Projects\zstack\Samples\SampleApp\CC2530DB\..\..\..\..\..\Components\mac\low_level\srf04\single_chip\
//        -I
//        F:\Zigbeespace\20171020\ZStack-2.5.1a\Projects\zstack\Samples\SampleApp\CC2530DB\..\..\..\..\..\Components\mt\
//        -I
//        F:\Zigbeespace\20171020\ZStack-2.5.1a\Projects\zstack\Samples\SampleApp\CC2530DB\..\..\..\..\..\Components\osal\include\
//        -I
//        F:\Zigbeespace\20171020\ZStack-2.5.1a\Projects\zstack\Samples\SampleApp\CC2530DB\..\..\..\..\..\Components\services\saddr\
//        -I
//        F:\Zigbeespace\20171020\ZStack-2.5.1a\Projects\zstack\Samples\SampleApp\CC2530DB\..\..\..\..\..\Components\services\sdata\
//        -I
//        F:\Zigbeespace\20171020\ZStack-2.5.1a\Projects\zstack\Samples\SampleApp\CC2530DB\..\..\..\..\..\Components\stack\af\
//        -I
//        F:\Zigbeespace\20171020\ZStack-2.5.1a\Projects\zstack\Samples\SampleApp\CC2530DB\..\..\..\..\..\Components\stack\nwk\
//        -I
//        F:\Zigbeespace\20171020\ZStack-2.5.1a\Projects\zstack\Samples\SampleApp\CC2530DB\..\..\..\..\..\Components\stack\sapi\
//        -I
//        F:\Zigbeespace\20171020\ZStack-2.5.1a\Projects\zstack\Samples\SampleApp\CC2530DB\..\..\..\..\..\Components\stack\sec\
//        -I
//        F:\Zigbeespace\20171020\ZStack-2.5.1a\Projects\zstack\Samples\SampleApp\CC2530DB\..\..\..\..\..\Components\stack\sys\
//        -I
//        F:\Zigbeespace\20171020\ZStack-2.5.1a\Projects\zstack\Samples\SampleApp\CC2530DB\..\..\..\..\..\Components\stack\zdo\
//        -I
//        F:\Zigbeespace\20171020\ZStack-2.5.1a\Projects\zstack\Samples\SampleApp\CC2530DB\..\..\..\..\..\Components\zmac\
//        -I
//        F:\Zigbeespace\20171020\ZStack-2.5.1a\Projects\zstack\Samples\SampleApp\CC2530DB\..\..\..\..\..\Components\zmac\f8w\
//        -Ohz
//    List file          =  
//        F:\Zigbeespace\20171020\ZStack-2.5.1a\Projects\zstack\Samples\SampleApp\CC2530DB\CoordinatorEB\List\hal_lcd.s51
//
///////////////////////////////////////////////////////////////////////////////

        NAME hal_lcd

        RTMODEL "__SystemLibrary", "CLib"
        RTMODEL "__calling_convention", "xdata_reentrant"
        RTMODEL "__code_model", "banked"
        RTMODEL "__core", "plain"
        RTMODEL "__data_model", "large"
        RTMODEL "__dptr_size", "16"
        RTMODEL "__extended_stack", "disabled"
        RTMODEL "__location_for_constants", "data"
        RTMODEL "__number_of_dptrs", "1"
        RTMODEL "__rt_version", "1"

        RSEG DOVERLAY:DATA:NOROOT(0)
        RSEG IOVERLAY:IDATA:NOROOT(0)
        RSEG ISTACK:IDATA:NOROOT(0)
        RSEG PSTACK:XDATA:NOROOT(0)
        RSEG XSTACK:XDATA:NOROOT(0)

        EXTERN ?V0
        EXTERN ?V1
        EXTERN ?V2
        EXTERN ?V3
        EXTERN ?V4
        EXTERN ?V5
        EXTERN ?V6
        EXTERN ?V7
        EXTERN ?ALLOC_XSTACK8
        EXTERN ?BANKED_ENTER_XDATA
        EXTERN ?BANKED_LEAVE_XDATA
        EXTERN ?BDISPATCH
        EXTERN ?BRET
        EXTERN ?DEALLOC_XSTACK8
        EXTERN ?PUSH_XSTACK8_X_TWO
        EXTERN ?PUSH_XSTACK_I_THREE
        EXTERN ?PUSH_XSTACK_I_TWO
        EXTERN ?US_SHR
        EXTERN ?XSP
        EXTERN ?XSTACK_DISP0_8
        EXTERN ?XSTACK_DISP101_8
        EXTERN __INIT_XDATA_I
        EXTERN __INIT_XDATA_Z

        PUBLIC `??DelayMS::?relay`
        FUNCTION `??DelayMS::?relay`,0203H
        PUBLIC `??DrawHorizonLine::?relay`
        FUNCTION `??DrawHorizonLine::?relay`,0203H
        PUBLIC `??DrawPixel::?relay`
        FUNCTION `??DrawPixel::?relay`,0203H
        PUBLIC `??DrawRect::?relay`
        FUNCTION `??DrawRect::?relay`,0203H
        PUBLIC `??DrawRectFill::?relay`
        FUNCTION `??DrawRectFill::?relay`,0203H
        PUBLIC `??DrawVerticalLine::?relay`
        FUNCTION `??DrawVerticalLine::?relay`,0203H
        PUBLIC `??HalLcdInit::?relay`
        FUNCTION `??HalLcdInit::?relay`,0203H
        PUBLIC `??HalLcdWriteEnString::?relay`
        FUNCTION `??HalLcdWriteEnString::?relay`,0203H
        PUBLIC `??HalLcdWriteScreen::?relay`
        FUNCTION `??HalLcdWriteScreen::?relay`,0203H
        PUBLIC `??HalLcdWriteString::?relay`
        FUNCTION `??HalLcdWriteString::?relay`,0203H
        PUBLIC `??HalLcdWriteStringValue::?relay`
        FUNCTION `??HalLcdWriteStringValue::?relay`,0203H
        PUBLIC `??HalLcdWriteStringValueValue::?relay`
        FUNCTION `??HalLcdWriteStringValueValue::?relay`,0203H
        PUBLIC `??HalLcdWriteValue::?relay`
        FUNCTION `??HalLcdWriteValue::?relay`,0203H
        PUBLIC `??HalLcd_HW_Init::?relay`
        FUNCTION `??HalLcd_HW_Init::?relay`,0203H
        PUBLIC `??LCD_WrCmd::?relay`
        FUNCTION `??LCD_WrCmd::?relay`,0203H
        PUBLIC `??LCD_WrDat::?relay`
        FUNCTION `??LCD_WrDat::?relay`,0203H
        PUBLIC `??LCD_WriteData_16Bit::?relay`
        FUNCTION `??LCD_WriteData_16Bit::?relay`,0203H
        PUBLIC `??LCD_clear::?relay`
        FUNCTION `??LCD_clear::?relay`,0203H
        FUNCTION `??LCD_set_window::?relay`,0203H
        FUNCTION `??LCD_write_CN::?relay`,0203H
        PUBLIC `??LCD_write_CN_string::?relay`
        FUNCTION `??LCD_write_CN_string::?relay`,0203H
        FUNCTION `??LCD_write_EN::?relay`,0203H
        PUBLIC `??LCD_write_EN_string::?relay`
        FUNCTION `??LCD_write_EN_string::?relay`,0203H
        FUNCTION `??LCD_write_byte::?relay`,0203H
        PUBLIC `??Lcd_Reset::?relay`
        FUNCTION `??Lcd_Reset::?relay`,0203H
        PUBLIC `??SPI_WriteData::?relay`
        FUNCTION `??SPI_WriteData::?relay`,0203H
        PUBLIC `??SendByte::?relay`
        FUNCTION `??SendByte::?relay`,0203H
        PUBLIC `??ShowImage::?relay`
        FUNCTION `??ShowImage::?relay`,0203H
        PUBLIC ASCII7x14
        PUBLIC CN14x14
        PUBLIC CN14x14_Index
        PUBLIC Color
        PUBLIC Color_BK
        PUBLIC DelayMS
        FUNCTION DelayMS,080203H
        ARGFRAME XSTACK, 0, STACK
        ARGFRAME IOVERLAY, 0, STATIC
        ARGFRAME DOVERLAY, 0, STATIC
        PUBLIC DrawHorizonLine
        FUNCTION DrawHorizonLine,0a1203H
        ARGFRAME XSTACK, 20, STACK
        ARGFRAME IOVERLAY, 0, STATIC
        ARGFRAME DOVERLAY, 0, STATIC
        LOCFRAME XSTACK, 18, STACK
        PUBLIC DrawPixel
        FUNCTION DrawPixel,021203H
        ARGFRAME XSTACK, 2, STACK
        LOCFRAME XSTACK, 9, STACK
        PUBLIC DrawRect
        FUNCTION DrawRect,0a1203H
        ARGFRAME XSTACK, 6, STACK
        LOCFRAME XSTACK, 20, STACK
        PUBLIC DrawRectFill
        FUNCTION DrawRectFill,0a1203H
        ARGFRAME XSTACK, 19, STACK
        ARGFRAME IOVERLAY, 0, STATIC
        ARGFRAME DOVERLAY, 0, STATIC
        LOCFRAME XSTACK, 20, STACK
        PUBLIC DrawVerticalLine
        FUNCTION DrawVerticalLine,0a1203H
        ARGFRAME XSTACK, 20, STACK
        ARGFRAME IOVERLAY, 0, STATIC
        ARGFRAME DOVERLAY, 0, STATIC
        LOCFRAME XSTACK, 18, STACK
        PUBLIC HalLcdInit
        FUNCTION HalLcdInit,021203H
        ARGFRAME XSTACK, 0, STACK
        LOCFRAME ISTACK, 2, STACK
        PUBLIC HalLcdWriteEnString
        FUNCTION HalLcdWriteEnString,0a1203H
        ARGFRAME XSTACK, 0, STACK
        LOCFRAME XSTACK, 18, STACK
        PUBLIC HalLcdWriteScreen
        FUNCTION HalLcdWriteScreen,021203H
        ARGFRAME XSTACK, 0, STACK
        LOCFRAME XSTACK, 9, STACK
        PUBLIC HalLcdWriteString
        FUNCTION HalLcdWriteString,0a1203H
        ARGFRAME XSTACK, 39, STACK
        ARGFRAME IOVERLAY, 0, STATIC
        ARGFRAME DOVERLAY, 0, STATIC
        LOCFRAME XSTACK, 18, STACK
        PUBLIC HalLcdWriteStringValue
        FUNCTION HalLcdWriteStringValue,0a1203H
        ARGFRAME XSTACK, 1, STACK
        LOCFRAME XSTACK, 41, STACK
        PUBLIC HalLcdWriteStringValueValue
        FUNCTION HalLcdWriteStringValueValue,0a1203H
        ARGFRAME XSTACK, 4, STACK
        LOCFRAME XSTACK, 41, STACK
        PUBLIC HalLcdWriteValue
        FUNCTION HalLcdWriteValue,0a1203H
        ARGFRAME XSTACK, 1, STACK
        LOCFRAME XSTACK, 41, STACK
        PUBLIC HalLcd_HW_Init
        FUNCTION HalLcd_HW_Init,021203H
        ARGFRAME XSTACK, 0, STACK
        ARGFRAME IOVERLAY, 0, STATIC
        ARGFRAME DOVERLAY, 0, STATIC
        LOCFRAME ISTACK, 2, STACK
        PUBLIC LCD_WrCmd
        FUNCTION LCD_WrCmd,021203H
        ARGFRAME XSTACK, 9, STACK
        ARGFRAME IOVERLAY, 0, STATIC
        ARGFRAME DOVERLAY, 0, STATIC
        LOCFRAME XSTACK, 9, STACK
        PUBLIC LCD_WrDat
        FUNCTION LCD_WrDat,021203H
        ARGFRAME XSTACK, 9, STACK
        ARGFRAME IOVERLAY, 0, STATIC
        ARGFRAME DOVERLAY, 0, STATIC
        LOCFRAME XSTACK, 9, STACK
        PUBLIC LCD_WriteData_16Bit
        FUNCTION LCD_WriteData_16Bit,021203H
        ARGFRAME XSTACK, 12, STACK
        ARGFRAME IOVERLAY, 0, STATIC
        ARGFRAME DOVERLAY, 0, STATIC
        LOCFRAME XSTACK, 9, STACK
        PUBLIC LCD_clear
        FUNCTION LCD_clear,0a1203H
        ARGFRAME XSTACK, 0, STACK
        ARGFRAME IOVERLAY, 0, STATIC
        ARGFRAME DOVERLAY, 0, STATIC
        LOCFRAME XSTACK, 14, STACK
        FUNCTION LCD_set_window,0a1203H
        ARGFRAME XSTACK, 20, STACK
        ARGFRAME IOVERLAY, 0, STATIC
        ARGFRAME DOVERLAY, 0, STATIC
        LOCFRAME XSTACK, 12, STACK
        FUNCTION LCD_write_CN,0a1203H
        ARGFRAME XSTACK, 13, STACK
        ARGFRAME IOVERLAY, 0, STATIC
        ARGFRAME DOVERLAY, 0, STATIC
        LOCFRAME XSTACK, 14, STACK
        PUBLIC LCD_write_CN_string
        FUNCTION LCD_write_CN_string,0a1203H
        ARGFRAME XSTACK, 0, STACK
        LOCFRAME XSTACK, 19, STACK
        FUNCTION LCD_write_EN,0a1203H
        ARGFRAME XSTACK, 14, STACK
        ARGFRAME IOVERLAY, 0, STATIC
        ARGFRAME DOVERLAY, 0, STATIC
        LOCFRAME XSTACK, 14, STACK
        PUBLIC LCD_write_EN_string
        FUNCTION LCD_write_EN_string,0a1203H
        ARGFRAME XSTACK, 12, STACK
        ARGFRAME IOVERLAY, 0, STATIC
        ARGFRAME DOVERLAY, 0, STATIC
        LOCFRAME XSTACK, 14, STACK
        FUNCTION LCD_write_byte,021203H
        ARGFRAME XSTACK, 16, STACK
        ARGFRAME IOVERLAY, 0, STATIC
        ARGFRAME DOVERLAY, 0, STATIC
        LOCFRAME XSTACK, 9, STACK
        PUBLIC Lcd_Reset
        FUNCTION Lcd_Reset,021203H
        ARGFRAME XSTACK, 0, STACK
        ARGFRAME IOVERLAY, 0, STATIC
        ARGFRAME DOVERLAY, 0, STATIC
        LOCFRAME ISTACK, 2, STACK
        PUBWEAK P0DIR
        PUBWEAK P0SEL
        PUBWEAK P1DIR
        PUBWEAK P1SEL
        PUBLIC SPI_WriteData
        FUNCTION SPI_WriteData,0203H
        ARGFRAME XSTACK, 9, STACK
        ARGFRAME IOVERLAY, 0, STATIC
        ARGFRAME DOVERLAY, 0, STATIC
        PUBLIC SendByte
        FUNCTION SendByte,0203H
        ARGFRAME XSTACK, 16, STACK
        ARGFRAME IOVERLAY, 0, STATIC
        ARGFRAME DOVERLAY, 0, STATIC
        PUBLIC ShowImage
        FUNCTION ShowImage,0a1203H
        ARGFRAME XSTACK, 0, STACK
        LOCFRAME XSTACK, 16, STACK
        PUBWEAK _A_P0
        PUBWEAK _A_P1
        
          CFI Names cfiNames0
          CFI StackFrame CFA_SP SP IDATA
          CFI StackFrame CFA_PSP16 PSP16 XDATA
          CFI StackFrame CFA_XSP16 XSP16 XDATA
          CFI StaticOverlayFrame CFA_IOVERLAY IOVERLAY
          CFI StaticOverlayFrame CFA_DOVERLAY DOVERLAY
          CFI Resource `PSW.CY`:1, `B.BR0`:1, `B.BR1`:1, `B.BR2`:1, `B.BR3`:1
          CFI Resource `B.BR4`:1, `B.BR5`:1, `B.BR6`:1, `B.BR7`:1, `VB.BR8`:1
          CFI Resource `VB.BR9`:1, `VB.BR10`:1, `VB.BR11`:1, `VB.BR12`:1
          CFI Resource `VB.BR13`:1, `VB.BR14`:1, `VB.BR15`:1, VB:8, B:8, A:8
          CFI Resource PSW:8, DPL0:8, DPH0:8, R0:8, R1:8, R2:8, R3:8, R4:8, R5:8
          CFI Resource R6:8, R7:8, V0:8, V1:8, V2:8, V3:8, V4:8, V5:8, V6:8, V7:8
          CFI Resource SP:8, PSPH:8, PSPL:8, PSP16:16, XSPH:8, XSPL:8, XSP16:16
          CFI VirtualResource ?RET:24
          CFI Resource ?BRET_EXT:8
          CFI VirtualResource ?RET_HIGH:8, ?RET_LOW:8
          CFI ResourceParts PSP16 PSPH, PSPL
          CFI ResourceParts XSP16 XSPH, XSPL
          CFI ResourceParts ?RET ?BRET_EXT, ?RET_HIGH, ?RET_LOW
          CFI EndNames cfiNames0
        
          CFI Common cfiCommon0 Using cfiNames0
          CFI CodeAlign 1
          CFI DataAlign -1
          CFI ReturnAddress ?RET CODE
          CFI CFA_DOVERLAY Used
          CFI CFA_IOVERLAY Used
          CFI CFA_SP SP+-3
          CFI CFA_PSP16 PSP16+0
          CFI CFA_XSP16 XSP16+0
          CFI `PSW.CY` SameValue
          CFI `B.BR0` SameValue
          CFI `B.BR1` SameValue
          CFI `B.BR2` SameValue
          CFI `B.BR3` SameValue
          CFI `B.BR4` SameValue
          CFI `B.BR5` SameValue
          CFI `B.BR6` SameValue
          CFI `B.BR7` SameValue
          CFI `VB.BR8` SameValue
          CFI `VB.BR9` SameValue
          CFI `VB.BR10` SameValue
          CFI `VB.BR11` SameValue
          CFI `VB.BR12` SameValue
          CFI `VB.BR13` SameValue
          CFI `VB.BR14` SameValue
          CFI `VB.BR15` SameValue
          CFI VB SameValue
          CFI B Undefined
          CFI A Undefined
          CFI PSW SameValue
          CFI DPL0 SameValue
          CFI DPH0 SameValue
          CFI R0 Undefined
          CFI R1 Undefined
          CFI R2 Undefined
          CFI R3 Undefined
          CFI R4 Undefined
          CFI R5 Undefined
          CFI R6 SameValue
          CFI R7 SameValue
          CFI V0 SameValue
          CFI V1 SameValue
          CFI V2 SameValue
          CFI V3 SameValue
          CFI V4 SameValue
          CFI V5 SameValue
          CFI V6 SameValue
          CFI V7 SameValue
          CFI PSPH Undefined
          CFI PSPL Undefined
          CFI XSPH Undefined
          CFI XSPL Undefined
          CFI ?RET Concat
          CFI ?BRET_EXT Frame(CFA_SP, 3)
          CFI ?RET_HIGH Frame(CFA_SP, 2)
          CFI ?RET_LOW Frame(CFA_SP, 1)
          CFI EndCommon cfiCommon0
        
        
          CFI Common cfiCommon1 Using cfiNames0
          CFI CodeAlign 1
          CFI DataAlign -1
          CFI ReturnAddress ?RET CODE
          CFI CFA_DOVERLAY Used
          CFI CFA_IOVERLAY Used
          CFI CFA_SP SP+-2
          CFI CFA_PSP16 PSP16+0
          CFI CFA_XSP16 XSP16+0
          CFI `PSW.CY` SameValue
          CFI `B.BR0` SameValue
          CFI `B.BR1` SameValue
          CFI `B.BR2` SameValue
          CFI `B.BR3` SameValue
          CFI `B.BR4` SameValue
          CFI `B.BR5` SameValue
          CFI `B.BR6` SameValue
          CFI `B.BR7` SameValue
          CFI `VB.BR8` SameValue
          CFI `VB.BR9` SameValue
          CFI `VB.BR10` SameValue
          CFI `VB.BR11` SameValue
          CFI `VB.BR12` SameValue
          CFI `VB.BR13` SameValue
          CFI `VB.BR14` SameValue
          CFI `VB.BR15` SameValue
          CFI VB SameValue
          CFI B SameValue
          CFI A SameValue
          CFI PSW SameValue
          CFI DPL0 SameValue
          CFI DPH0 SameValue
          CFI R0 SameValue
          CFI R1 SameValue
          CFI R2 SameValue
          CFI R3 SameValue
          CFI R4 SameValue
          CFI R5 SameValue
          CFI R6 SameValue
          CFI R7 SameValue
          CFI V0 SameValue
          CFI V1 SameValue
          CFI V2 SameValue
          CFI V3 SameValue
          CFI V4 SameValue
          CFI V5 SameValue
          CFI V6 SameValue
          CFI V7 SameValue
          CFI PSPH Undefined
          CFI PSPL Undefined
          CFI XSPH Undefined
          CFI XSPL Undefined
          CFI ?RET Concat
          CFI ?BRET_EXT SameValue
          CFI ?RET_HIGH Frame(CFA_SP, 2)
          CFI ?RET_LOW Frame(CFA_SP, 1)
          CFI EndCommon cfiCommon1
        
_ltoa               SYMBOL "_ltoa"
`??_ltoa::?relay`   SYMBOL "?relay", _ltoa
osal_memcpy         SYMBOL "osal_memcpy"
`??osal_memcpy::?relay` SYMBOL "?relay", osal_memcpy
osal_strlen         SYMBOL "osal_strlen"
`??osal_strlen::?relay` SYMBOL "?relay", osal_strlen
DelayMS             SYMBOL "DelayMS"
`??DelayMS::?relay` SYMBOL "?relay", DelayMS
DrawHorizonLine     SYMBOL "DrawHorizonLine"
`??DrawHorizonLine::?relay` SYMBOL "?relay", DrawHorizonLine
DrawPixel           SYMBOL "DrawPixel"
`??DrawPixel::?relay` SYMBOL "?relay", DrawPixel
DrawRect            SYMBOL "DrawRect"
`??DrawRect::?relay` SYMBOL "?relay", DrawRect
DrawRectFill        SYMBOL "DrawRectFill"
`??DrawRectFill::?relay` SYMBOL "?relay", DrawRectFill
DrawVerticalLine    SYMBOL "DrawVerticalLine"
`??DrawVerticalLine::?relay` SYMBOL "?relay", DrawVerticalLine
HalLcdInit          SYMBOL "HalLcdInit"
`??HalLcdInit::?relay` SYMBOL "?relay", HalLcdInit
HalLcdWriteEnString SYMBOL "HalLcdWriteEnString"
`??HalLcdWriteEnString::?relay` SYMBOL "?relay", HalLcdWriteEnString
HalLcdWriteScreen   SYMBOL "HalLcdWriteScreen"
`??HalLcdWriteScreen::?relay` SYMBOL "?relay", HalLcdWriteScreen
HalLcdWriteString   SYMBOL "HalLcdWriteString"
`??HalLcdWriteString::?relay` SYMBOL "?relay", HalLcdWriteString
HalLcdWriteStringValue SYMBOL "HalLcdWriteStringValue"
`??HalLcdWriteStringValue::?relay` SYMBOL "?relay", HalLcdWriteStringValue
HalLcdWriteStringValueValue SYMBOL "HalLcdWriteStringValueValue"
`??HalLcdWriteStringValueValue::?relay` SYMBOL "?relay", HalLcdWriteStringValueValue
HalLcdWriteValue    SYMBOL "HalLcdWriteValue"
`??HalLcdWriteValue::?relay` SYMBOL "?relay", HalLcdWriteValue
HalLcd_HW_Init      SYMBOL "HalLcd_HW_Init"
`??HalLcd_HW_Init::?relay` SYMBOL "?relay", HalLcd_HW_Init
LCD_WrCmd           SYMBOL "LCD_WrCmd"
`??LCD_WrCmd::?relay` SYMBOL "?relay", LCD_WrCmd
LCD_WrDat           SYMBOL "LCD_WrDat"
`??LCD_WrDat::?relay` SYMBOL "?relay", LCD_WrDat
LCD_WriteData_16Bit SYMBOL "LCD_WriteData_16Bit"
`??LCD_WriteData_16Bit::?relay` SYMBOL "?relay", LCD_WriteData_16Bit
LCD_clear           SYMBOL "LCD_clear"
`??LCD_clear::?relay` SYMBOL "?relay", LCD_clear
LCD_write_CN_string SYMBOL "LCD_write_CN_string"
`??LCD_write_CN_string::?relay` SYMBOL "?relay", LCD_write_CN_string
LCD_write_EN_string SYMBOL "LCD_write_EN_string"
`??LCD_write_EN_string::?relay` SYMBOL "?relay", LCD_write_EN_string
Lcd_Reset           SYMBOL "Lcd_Reset"
`??Lcd_Reset::?relay` SYMBOL "?relay", Lcd_Reset
SPI_WriteData       SYMBOL "SPI_WriteData"
`??SPI_WriteData::?relay` SYMBOL "?relay", SPI_WriteData
SendByte            SYMBOL "SendByte"
`??SendByte::?relay` SYMBOL "?relay", SendByte
ShowImage           SYMBOL "ShowImage"
`??ShowImage::?relay` SYMBOL "?relay", ShowImage

        EXTERN `??_ltoa::?relay`
        FUNCTION `??_ltoa::?relay`,00H
        EXTERN `??osal_memcpy::?relay`
        FUNCTION `??osal_memcpy::?relay`,00H
        EXTERN `??osal_strlen::?relay`
        FUNCTION `??osal_strlen::?relay`,00H
        EXTERN _ltoa
        FUNCTION _ltoa,0202H
        ARGFRAME ISTACK, 0, STACK
        ARGFRAME PSTACK, 0, STACK
        ARGFRAME XSTACK, 41, STACK
        ARGFRAME IOVERLAY, 0, STATIC
        ARGFRAME DOVERLAY, 0, STATIC
        EXTERN osal_memcpy
        FUNCTION osal_memcpy,0202H
        ARGFRAME ISTACK, 0, STACK
        ARGFRAME PSTACK, 0, STACK
        ARGFRAME XSTACK, 41, STACK
        ARGFRAME IOVERLAY, 0, STATIC
        ARGFRAME DOVERLAY, 0, STATIC
        EXTERN osal_strlen
        FUNCTION osal_strlen,0202H
        ARGFRAME ISTACK, 0, STACK
        ARGFRAME PSTACK, 0, STACK
        ARGFRAME XSTACK, 38, STACK
        ARGFRAME IOVERLAY, 0, STATIC
        ARGFRAME DOVERLAY, 0, STATIC

// F:\Zigbeespace\20171020\ZStack-2.5.1a\Components\hal\target\CC2530EB\hal_lcd.c
//    1 /****************************************************************************
//    2 * Filename: hal_lcd.c
//    3 * Author:      Andy  https://aldsz.taobao.com
//    4 * Date:        2015-06-16
//    5 * Version:     1.0
//    6 * Description: OLED driver
//    7 ****************************************************************************/
//    8 #include "hal_types.h"
//    9 #include "hal_lcd.h"

        ASEGN SFR_AN:DATA:NOROOT,080H
// union <unnamed> volatile __sfr _A_P0
_A_P0:
        DATA8
        DS 1

        ASEGN SFR_AN:DATA:NOROOT,090H
// union <unnamed> volatile __sfr _A_P1
_A_P1:
        DATA8
        DS 1

        ASEGN SFR_AN:DATA:NOROOT,0f3H
// unsigned char volatile __sfr P0SEL
P0SEL:
        DATA8
        DS 1

        ASEGN SFR_AN:DATA:NOROOT,0f4H
// unsigned char volatile __sfr P1SEL
P1SEL:
        DATA8
        DS 1

        ASEGN SFR_AN:DATA:NOROOT,0fdH
// unsigned char volatile __sfr P0DIR
P0DIR:
        DATA8
        DS 1

        ASEGN SFR_AN:DATA:NOROOT,0feH
// unsigned char volatile __sfr P1DIR
P1DIR:
        DATA8
        DS 1
//   10 #include "OSAL.h"
//   11 #include "OnBoard.h"
//   12 #include "hal_assert.h"
//   13 #include <string.h>
//   14 
//   15 #if defined (ZTOOL_P1) || defined (ZTOOL_P2)
//   16   #include "DebugTrace.h"
//   17 #endif
//   18 
//   19 
//   20 //------------------------------------------------------------------------------
//   21 #define LCD_COMMAND 0x00
//   22 #define LCD_DATA    0x01
//   23 
//   24 #define LCD_MAX_BUF 25
//   25 
//   26 #define SOFTWARE_SPI
//   27 //#define HARDWARE_SPI //采用硬件SPI通讯
//   28 
//   29 #define COL_SPACE   2  //字符间距
//   30 #define ROW_SPACE   4  //行间距
//   31 #define ALL_CNS     128
//   32 #define X_MAX_PIXEL 128
//   33 #define Y_MAX_PIXEL 128
//   34 
//   35 // SPI TFT LCD端口定义
//   36 #define LCD_DC           P0_0  // 数据/命令选择
//   37 #define LCD_SDA          P1_3  // 双向数据 
//   38 #define LCD_SCL          P1_2  // 时钟   
//   39 //#define LCD_CS         P1_2  // 片选, L_S 将片选接地
//   40 #define LCD_RST          P1_7  // 控制lcd复位   
//   41 
//   42 //液晶控制口置1操作语句宏定义
//   43 //#define LCD_CS_SET  	(LCD_CS_CLRx01)   
//   44 #define	LCD_DC_SET  	(LCD_DC = 0x01)  
//   45 #define	LCD_SDA_SET  	(LCD_SDA = 0x01)    
//   46 #define	LCD_SCL_SET  	(LCD_SCL = 0x01)   
//   47 #define	LCD_RST_SET  	(LCD_RST = 0x01)  
//   48 
//   49 //液晶控制口置0操作语句宏定义
//   50 //#define LCD_CS_CLR  	(LCD_CS_CLRx00)    
//   51 #define	LCD_DC_CLR  	(LCD_DC = 0x00)  
//   52 #define	LCD_SDA_CLR  	(LCD_SDA = 0x00)     
//   53 #define	LCD_SCL_CLR  	(LCD_SCL = 0x00)
//   54 #define	LCD_RST_CLR  	(LCD_RST = 0x00)   
//   55 
//   56 
//   57 void SPI_Init(void);
//   58 void LCD_clear(unsigned int color);
//   59 void HalLcdWriteEnString(uint8 x, uint8 y, char *title);
//   60 void LCD_write_EN_string(unsigned char X,unsigned char Y,uint8 *s);
//   61 static void LCD_set_window(unsigned int X, unsigned int Y, 
//   62                            unsigned Width,unsigned int Height);
//   63 static void LCD_write_EN(unsigned int X, unsigned int Y, unsigned char c);
//   64 static void LCD_write_CN(unsigned int X, unsigned int Y, unsigned char c);
//   65 

        RSEG XDATA_I:XDATA:NOROOT(0)
//   66 unsigned int  Color    = BLUE; //默认前景颜色
Color:
        DATA16
        DS 2
        REQUIRE `?<Initializer for Color>`
        REQUIRE __INIT_XDATA_I

        RSEG XDATA_I:XDATA:NOROOT(0)
//   67 unsigned int  Color_BK = GREEN;//默认背景颜色
Color_BK:
        DATA16
        DS 2
        REQUIRE `?<Initializer for Color_BK>`
        REQUIRE __INIT_XDATA_I
//   68 //------------------------------------------------------------------------------
//   69 
//   70 #define XLevelL            0x00
//   71 #define XLevelH            0x10
//   72 #define XLevel             ((XLevelH&0x0F)*16+XLevelL)
//   73 #define Max_Column         128
//   74 #define Max_Row            64
//   75 #define Brightness         0xCF 
//   76 #define X_WIDTH            128
//   77 #define Y_WIDTH            64
//   78 
//   79 #define LCD_MAX_BUF        25
//   80 #define HAL_LCD_MAX_CHARS  16   // Max number of chars on a single LCD line 
//   81 
//   82 
//   83 #if (HAL_LCD == TRUE)
//   84 void HalLcd_HW_Init(void);
//   85 void HalLcd_HW_WaitUs(uint16 i);
//   86 void HalLcd_HW_Clear(void);
//   87 void HalLcd_HW_Control(uint8 cmd);
//   88 void HalLcd_HW_Write(uint8 data);
//   89 void HalLcd_HW_SetContrast(uint8 value);
//   90 void HalLcd_HW_WriteChar(uint8 line, uint8 col, char text);
//   91 void HalLcd_HW_WriteLine(uint8 line, const char *pText);
//   92 
//   93 void DelayMS(unsigned int msec);
//   94 void LCD_WrDat(unsigned char dat);
//   95 void LCD_WrCmd(unsigned char cmd);
//   96 void LCD_Set_Pos(unsigned char x, unsigned char y);
//   97 void LCD_Fill(unsigned char bmp_dat) ;
//   98 void LCD_CLS(void);
//   99 
//  100 //-----------------------------------------------------------------------------
//  101 void DrawRect(unsigned int Xpos, unsigned int Ypos, unsigned int Width, 
//  102               unsigned int Height,unsigned Color);
//  103 void DrawRectFill(unsigned int Xpos  , unsigned int Ypos, unsigned int Width, 
//  104                   unsigned int Height, unsigned Color);
//  105 void  SendByte(unsigned char Data);
//  106 void  SPI_WriteData(unsigned char Data);
//  107 void LCD_write_byte(unsigned char data, unsigned char command);
//  108 void LCD_WriteData_16Bit(unsigned short Data);
//  109 void LCD_write_CN_string(unsigned char X,unsigned char Y,uint8 *s);
//  110 void ShowImage(const unsigned char *p);
//  111 
//  112 void DrawPixel(unsigned int x, unsigned int y, unsigned int color);
//  113 void DrawVerticalLine(unsigned int x, unsigned int y, 
//  114                       unsigned int Length,unsigned int Color);
//  115 void DrawHorizonLine(unsigned int x, unsigned int y, 
//  116                      unsigned int Length,unsigned int Color);               
//  117 void Lcd_Reset(void);
//  118 
//  119 
//  120 //中文14x14点阵字符索引 ALD

        RSEG CODE_C:CODE:REORDER:NOROOT(0)
        DATA8
//  121 __code const  unsigned char CN14x14_Index[] =
CN14x14_Index:
        DB 0C0H, 0AFH, 0B1H, 0CAH, 0D0H, 0A1H, 0D0H, 0C2H
        DB 0C8H, 0BCH, 0C6H, 0F8H, 0CEH, 0C2H, 0CAH, 0AAH
        DB 0B6H, 0C8H, 0D6H, 0D5H, 0B6H, 0CBH, 0D2H, 0BBH
        DB 0B6H, 0FEH, 0C8H, 0FDH, 0CBH, 0C4H, 0CDH, 0A3H
        DB 0CBH, 0AEH, 0B5H, 0E7H, 0D7H, 0C5H, 0BBH, 0F0H
        DB 0B6H, 0CFH, 0CDH, 0F8H, 0B5H, 0D8H, 0D6H, 0B7H
        DB 0D0H, 0ADH, 0B5H, 0F7H, 0C6H, 0F7H, 0C2H, 0B7H
        DB 0D3H, 0C9H, 0A3H, 0BAH, 0A1H, 0E6H, 0A3H, 0A5H
        DB 0
//  122 {
//  123   "蜡笔小新燃气温湿度终端一二三四停水电着火断网地址协调器路由：℃％"
//  124 };
//  125 
//  126 //中文14x14点阵字符 ald

        RSEG CODE_C:CODE:REORDER:NOROOT(0)
        DATA8
//  127 __code const unsigned char CN14x14[][28] =
CN14x14:
        DB 16
        DB 72
        DB 16
        DB 72
        DB 125
        DB 254
        DB 84
        DB 72
        DB 84
        DB 72
        DB 85
        DB 254
        DB 84
        DB 0
        DB 124
        DB 252
        DB 80
        DB 132
        DB 16
        DB 132
        DB 20
        DB 252
        DB 62
        DB 132
        DB 98
        DB 132
        DB 64
        DB 252
        DB 16
        DB 64
        DB 63
        DB 124
        DB 104
        DB 208
        DB 5
        DB 0
        DB 3
        DB 248
        DB 31
        DB 128
        DB 1
        DB 0
        DB 63
        DB 248
        DB 1
        DB 0
        DB 1
        DB 0
        DB 127
        DB 252
        DB 1
        DB 0
        DB 1
        DB 2
        DB 1
        DB 254
        DB 1
        DB 0
        DB 1
        DB 0
        DB 1
        DB 0
        DB 1
        DB 0
        DB 9
        DB 16
        DB 25
        DB 24
        DB 49
        DB 12
        DB 97
        DB 4
        DB 65
        DB 6
        DB 65
        DB 2
        DB 1
        DB 0
        DB 1
        DB 0
        DB 5
        DB 0
        DB 3
        DB 0
        DB 16
        DB 12
        DB 8
        DB 120
        DB 127
        DB 64
        DB 34
        DB 64
        DB 20
        DB 64
        DB 127
        DB 126
        DB 8
        DB 72
        DB 8
        DB 72
        DB 127
        DB 72
        DB 8
        DB 72
        DB 42
        DB 72
        DB 73
        DB 72
        DB 8
        DB 72
        DB 24
        DB 200
        DB 17
        DB 20
        DB 17
        DB 210
        DB 22
        DB 80
        DB 90
        DB 126
        DB 85
        DB 80
        DB 80
        DB 144
        DB 18
        DB 168
        DB 17
        DB 40
        DB 17
        DB 68
        DB 18
        DB 68
        DB 44
        DB 130
        DB 36
        DB 8
        DB 66
        DB 164
        DB 66
        DB 82
        DB 8
        DB 0
        DB 8
        DB 0
        DB 31
        DB 252
        DB 48
        DB 0
        DB 103
        DB 240
        DB 0
        DB 0
        DB 31
        DB 240
        DB 0
        DB 16
        DB 0
        DB 16
        DB 0
        DB 16
        DB 0
        DB 16
        DB 0
        DB 18
        DB 0
        DB 10
        DB 0
        DB 6
        DB 7
        DB 224
        DB 68
        DB 32
        DB 36
        DB 32
        DB 7
        DB 224
        DB 132
        DB 32
        DB 68
        DB 32
        DB 7
        DB 224
        DB 32
        DB 0
        DB 47
        DB 240
        DB 74
        DB 80
        DB 74
        DB 80
        DB 138
        DB 80
        DB 138
        DB 80
        DB 31
        DB 248
        DB 0
        DB 0
        DB 79
        DB 240
        DB 40
        DB 16
        DB 8
        DB 16
        DB 143
        DB 240
        DB 72
        DB 16
        DB 8
        DB 16
        DB 47
        DB 240
        DB 34
        DB 64
        DB 82
        DB 72
        DB 74
        DB 80
        DB 134
        DB 96
        DB 130
        DB 64
        DB 31
        DB 248
        DB 2
        DB 0
        DB 1
        DB 0
        DB 63
        DB 248
        DB 36
        DB 32
        DB 63
        DB 248
        DB 36
        DB 32
        DB 39
        DB 224
        DB 32
        DB 0
        DB 47
        DB 240
        DB 36
        DB 32
        DB 34
        DB 64
        DB 65
        DB 128
        DB 70
        DB 96
        DB 152
        DB 24
        DB 33
        DB 0
        DB 33
        DB 0
        DB 65
        DB 224
        DB 146
        DB 32
        DB 245
        DB 64
        DB 32
        DB 128
        DB 65
        DB 64
        DB 130
        DB 32
        DB 244
        DB 24
        DB 1
        DB 128
        DB 0
        DB 96
        DB 51
        DB 0
        DB 192
        DB 192
        DB 0
        DB 32
        DB 32
        DB 64
        DB 18
        DB 72
        DB 18
        DB 72
        DB 250
        DB 72
        DB 3
        DB 248
        DB 8
        DB 0
        DB 139
        DB 248
        DB 72
        DB 128
        DB 83
        DB 248
        DB 82
        DB 168
        DB 2
        DB 168
        DB 26
        DB 168
        DB 226
        DB 168
        DB 2
        DB 24
        DB 0
        DB 0
        DB 0
        DB 0
        DB 0
        DB 0
        DB 0
        DB 0
        DB 0
        DB 0
        DB 0
        DB 0
        DB 255
        DB 248
        DB 0
        DB 0
        DB 0
        DB 0
        DB 0
        DB 0
        DB 0
        DB 0
        DB 0
        DB 0
        DB 0
        DB 0
        DB 0
        DB 0
        DB 0
        DB 0
        DB 0
        DB 0
        DB 127
        DB 240
        DB 0
        DB 0
        DB 0
        DB 0
        DB 0
        DB 0
        DB 0
        DB 0
        DB 0
        DB 0
        DB 0
        DB 0
        DB 0
        DB 0
        DB 0
        DB 0
        DB 0
        DB 0
        DB 255
        DB 248
        DB 0
        DB 0
        DB 0
        DB 0
        DB 127
        DB 240
        DB 0
        DB 0
        DB 0
        DB 0
        DB 0
        DB 0
        DB 0
        DB 0
        DB 0
        DB 0
        DB 63
        DB 224
        DB 0
        DB 0
        DB 0
        DB 0
        DB 0
        DB 0
        DB 0
        DB 0
        DB 0
        DB 0
        DB 255
        DB 248
        DB 0
        DB 0
        DB 127
        DB 248
        DB 68
        DB 136
        DB 68
        DB 136
        DB 68
        DB 136
        DB 68
        DB 136
        DB 68
        DB 136
        DB 68
        DB 136
        DB 68
        DB 136
        DB 72
        DB 120
        DB 80
        DB 8
        DB 64
        DB 8
        DB 127
        DB 248
        DB 64
        DB 8
        DB 16
        DB 128
        DB 31
        DB 248
        DB 16
        DB 0
        DB 39
        DB 240
        DB 36
        DB 16
        DB 103
        DB 240
        DB 160
        DB 0
        DB 47
        DB 248
        DB 40
        DB 8
        DB 39
        DB 240
        DB 32
        DB 64
        DB 32
        DB 64
        DB 32
        DB 64
        DB 33
        DB 192
        DB 2
        DB 0
        DB 2
        DB 0
        DB 2
        DB 0
        DB 2
        DB 16
        DB 123
        DB 32
        DB 11
        DB 64
        DB 10
        DB 128
        DB 18
        DB 128
        DB 18
        DB 64
        DB 34
        DB 32
        DB 66
        DB 16
        DB 130
        DB 8
        DB 2
        DB 0
        DB 14
        DB 0
        DB 2
        DB 0
        DB 2
        DB 0
        DB 2
        DB 0
        DB 127
        DB 240
        DB 66
        DB 16
        DB 66
        DB 16
        DB 127
        DB 240
        DB 66
        DB 16
        DB 66
        DB 16
        DB 127
        DB 240
        DB 66
        DB 0
        DB 2
        DB 8
        DB 2
        DB 8
        DB 1
        DB 248
        DB 16
        DB 64
        DB 127
        DB 240
        DB 2
        DB 0
        DB 63
        DB 224
        DB 4
        DB 0
        DB 255
        DB 248
        DB 8
        DB 0
        DB 31
        DB 224
        DB 48
        DB 32
        DB 95
        DB 224
        DB 144
        DB 32
        DB 31
        DB 224
        DB 16
        DB 32
        DB 31
        DB 224
        DB 2
        DB 0
        DB 2
        DB 0
        DB 2
        DB 0
        DB 34
        DB 16
        DB 34
        DB 16
        DB 34
        DB 32
        DB 69
        DB 64
        DB 133
        DB 0
        DB 5
        DB 0
        DB 8
        DB 128
        DB 8
        DB 128
        DB 16
        DB 64
        DB 32
        DB 32
        DB 192
        DB 24
        DB 16
        DB 48
        DB 145
        DB 192
        DB 213
        DB 0
        DB 185
        DB 0
        DB 145
        DB 0
        DB 253
        DB 248
        DB 145
        DB 32
        DB 185
        DB 32
        DB 213
        DB 32
        DB 149
        DB 32
        DB 145
        DB 32
        DB 145
        DB 32
        DB 130
        DB 32
        DB 252
        DB 32
        DB 0
        DB 0
        DB 127
        DB 248
        DB 64
        DB 8
        DB 66
        DB 40
        DB 83
        DB 40
        DB 74
        DB 168
        DB 68
        DB 72
        DB 68
        DB 72
        DB 74
        DB 168
        DB 74
        DB 168
        DB 81
        DB 8
        DB 98
        DB 8
        DB 64
        DB 8
        DB 64
        DB 56
        DB 32
        DB 128
        DB 32
        DB 128
        DB 36
        DB 144
        DB 36
        DB 176
        DB 245
        DB 208
        DB 46
        DB 144
        DB 36
        DB 144
        DB 36
        DB 144
        DB 36
        DB 144
        DB 36
        DB 176
        DB 52
        DB 128
        DB 196
        DB 8
        DB 4
        DB 8
        DB 3
        DB 248
        DB 32
        DB 64
        DB 32
        DB 64
        DB 32
        DB 64
        DB 32
        DB 64
        DB 250
        DB 64
        DB 34
        DB 120
        DB 34
        DB 64
        DB 34
        DB 64
        DB 34
        DB 64
        DB 34
        DB 64
        DB 58
        DB 64
        DB 226
        DB 64
        DB 2
        DB 64
        DB 15
        DB 248
        DB 33
        DB 0
        DB 33
        DB 0
        DB 33
        DB 0
        DB 251
        DB 224
        DB 33
        DB 32
        DB 33
        DB 32
        DB 33
        DB 32
        DB 37
        DB 48
        DB 37
        DB 40
        DB 41
        DB 40
        DB 34
        DB 32
        DB 34
        DB 32
        DB 36
        DB 32
        DB 40
        DB 192
        DB 64
        DB 0
        DB 39
        DB 248
        DB 36
        DB 136
        DB 4
        DB 136
        DB 229
        DB 232
        DB 36
        DB 136
        DB 39
        DB 248
        DB 36
        DB 8
        DB 37
        DB 232
        DB 45
        DB 40
        DB 53
        DB 40
        DB 37
        DB 232
        DB 4
        DB 8
        DB 8
        DB 56
        DB 125
        DB 240
        DB 69
        DB 16
        DB 69
        DB 16
        DB 125
        DB 240
        DB 0
        DB 64
        DB 2
        DB 32
        DB 255
        DB 248
        DB 8
        DB 128
        DB 48
        DB 96
        DB 192
        DB 24
        DB 125
        DB 240
        DB 69
        DB 16
        DB 69
        DB 16
        DB 125
        DB 240
        DB 0
        DB 128
        DB 120
        DB 128
        DB 72
        DB 240
        DB 73
        DB 16
        DB 74
        DB 160
        DB 120
        DB 64
        DB 16
        DB 160
        DB 83
        DB 24
        DB 92
        DB 0
        DB 81
        DB 240
        DB 81
        DB 16
        DB 93
        DB 16
        DB 225
        DB 240
        DB 1
        DB 16
        DB 2
        DB 0
        DB 2
        DB 0
        DB 2
        DB 0
        DB 127
        DB 240
        DB 66
        DB 16
        DB 66
        DB 16
        DB 66
        DB 16
        DB 66
        DB 16
        DB 127
        DB 240
        DB 66
        DB 16
        DB 66
        DB 16
        DB 66
        DB 16
        DB 66
        DB 16
        DB 127
        DB 240
        DB 0
        DB 0
        DB 0
        DB 0
        DB 0
        DB 0
        DB 0
        DB 0
        DB 0
        DB 0
        DB 0
        DB 0
        DB 24
        DB 0
        DB 24
        DB 0
        DB 0
        DB 0
        DB 0
        DB 0
        DB 24
        DB 0
        DB 24
        DB 0
        DB 0
        DB 0
        DB 0
        DB 0
        DB 96
        DB 0
        DB 144
        DB 0
        DB 151
        DB 232
        DB 104
        DB 24
        DB 16
        DB 8
        DB 16
        DB 8
        DB 16
        DB 0
        DB 16
        DB 0
        DB 16
        DB 0
        DB 16
        DB 0
        DB 16
        DB 8
        DB 8
        DB 16
        DB 7
        DB 224
        DB 0
        DB 0
        DB 24
        DB 0
        DB 36
        DB 8
        DB 36
        DB 16
        DB 36
        DB 32
        DB 36
        DB 64
        DB 36
        DB 128
        DB 25
        DB 0
        DB 2
        DB 96
        DB 4
        DB 144
        DB 8
        DB 144
        DB 16
        DB 144
        DB 32
        DB 144
        DB 64
        DB 144
        DB 0
        DB 96
//  128 {
//  129 /*--  文字:  蜡  --*/
//  130 /*--  宋体12;  此字体下对应的点阵为：宽x高=14x14   --*/
//  131 0x10,0x48,0x10,0x48,0x7D,0xFE,0x54,0x48,0x54,0x48,0x55,0xFE,0x54,0x00,
//  132 0x7C,0xFC,0x50,0x84,0x10,0x84,0x14,0xFC,0x3E,0x84,0x62,0x84,0x40,0xFC,
//  133 
//  134 /*--  文字:  笔  --*/
//  135 /*--  宋体12;  此字体下对应的点阵为：宽x高=14x14   --*/
//  136 0x10,0x40,0x3F,0x7C,0x68,0xD0,0x05,0x00,0x03,0xF8,0x1F,0x80,0x01,0x00,
//  137 0x3F,0xF8,0x01,0x00,0x01,0x00,0x7F,0xFC,0x01,0x00,0x01,0x02,0x01,0xFE,
//  138 
//  139 /*--  文字:  小  --*/
//  140 /*--  宋体12;  此字体下对应的点阵为：宽x高=14x14   --*/
//  141 0x01,0x00,0x01,0x00,0x01,0x00,0x01,0x00,0x09,0x10,0x19,0x18,0x31,0x0C,
//  142 0x61,0x04,0x41,0x06,0x41,0x02,0x01,0x00,0x01,0x00,0x05,0x00,0x03,0x00,
//  143 
//  144 /*--  文字:  新  --*/
//  145 /*--  宋体12;  此字体下对应的点阵为：宽x高=14x14   --*/
//  146 0x10,0x0C,0x08,0x78,0x7F,0x40,0x22,0x40,0x14,0x40,0x7F,0x7E,0x08,0x48,
//  147 0x08,0x48,0x7F,0x48,0x08,0x48,0x2A,0x48,0x49,0x48,0x08,0x48,0x18,0xC8,
//  148 
//  149 /*--  文字:  燃  --*/
//  150 /*--  宋体12;  此字体下对应的点阵为：宽x高=14x14   --*/
//  151 0x11,0x14,0x11,0xD2,0x16,0x50,0x5A,0x7E,0x55,0x50,0x50,0x90,0x12,0xA8,
//  152 0x11,0x28,0x11,0x44,0x12,0x44,0x2C,0x82,0x24,0x08,0x42,0xA4,0x42,0x52,
//  153 
//  154 /*--  文字:  气  --*/
//  155 /*--  宋体12;  此字体下对应的点阵为：宽x高=14x14   --*/
//  156 0x08,0x00,0x08,0x00,0x1F,0xFC,0x30,0x00,0x67,0xF0,0x00,0x00,0x1F,0xF0,
//  157 0x00,0x10,0x00,0x10,0x00,0x10,0x00,0x10,0x00,0x12,0x00,0x0A,0x00,0x06,
//  158 
//  159 0x07,0xE0,0x44,0x20,0x24,0x20,0x07,0xE0,0x84,0x20,0x44,0x20,0x07,0xE0,0x20,0x00,
//  160 0x2F,0xF0,0x4A,0x50,0x4A,0x50,0x8A,0x50,0x8A,0x50,0x1F,0xF8,/*"温",39*/
//  161 
//  162 0x00,0x00,0x4F,0xF0,0x28,0x10,0x08,0x10,0x8F,0xF0,0x48,0x10,0x08,0x10,0x2F,0xF0,
//  163 0x22,0x40,0x52,0x48,0x4A,0x50,0x86,0x60,0x82,0x40,0x1F,0xF8,/*"湿",40*/
//  164 
//  165 0x02,0x00,0x01,0x00,0x3F,0xF8,0x24,0x20,0x3F,0xF8,0x24,0x20,0x27,0xE0,0x20,0x00,
//  166 0x2F,0xF0,0x24,0x20,0x22,0x40,0x41,0x80,0x46,0x60,0x98,0x18,/*"度",41*/
//  167 
//  168 0x21,0x00,0x21,0x00,0x41,0xE0,0x92,0x20,0xF5,0x40,0x20,0x80,0x41,0x40,0x82,0x20,
//  169 0xF4,0x18,0x01,0x80,0x00,0x60,0x33,0x00,0xC0,0xC0,0x00,0x20,/*"终",42*/
//  170 
//  171 0x20,0x40,0x12,0x48,0x12,0x48,0xFA,0x48,0x03,0xF8,0x08,0x00,0x8B,0xF8,0x48,0x80,
//  172 0x53,0xF8,0x52,0xA8,0x02,0xA8,0x1A,0xA8,0xE2,0xA8,0x02,0x18,/*"端",43*/
//  173 
//  174 0x00,0x00,0x00,0x00,0x00,0x00,0x00,0x00,0x00,0x00,0x00,0x00,0xFF,0xF8,0x00,0x00,
//  175 0x00,0x00,0x00,0x00,0x00,0x00,0x00,0x00,0x00,0x00,0x00,0x00,/*"一",44*/
//  176 
//  177 0x00,0x00,0x00,0x00,0x7F,0xF0,0x00,0x00,0x00,0x00,0x00,0x00,0x00,0x00,0x00,0x00,
//  178 0x00,0x00,0x00,0x00,0x00,0x00,0x00,0x00,0xFF,0xF8,0x00,0x00,/*"二",45*/
//  179 
//  180 0x00,0x00,0x7F,0xF0,0x00,0x00,0x00,0x00,0x00,0x00,0x00,0x00,0x00,0x00,0x3F,0xE0,
//  181 0x00,0x00,0x00,0x00,0x00,0x00,0x00,0x00,0x00,0x00,0xFF,0xF8,/*"三",46*/
//  182 
//  183 0x00,0x00,0x7F,0xF8,0x44,0x88,0x44,0x88,0x44,0x88,0x44,0x88,0x44,0x88,0x44,0x88,
//  184 0x44,0x88,0x48,0x78,0x50,0x08,0x40,0x08,0x7F,0xF8,0x40,0x08,/*"四",47*/
//  185 
//  186 0x10,0x80,0x1F,0xF8,0x10,0x00,0x27,0xF0,0x24,0x10,0x67,0xF0,0xA0,0x00,0x2F,0xF8,
//  187 0x28,0x08,0x27,0xF0,0x20,0x40,0x20,0x40,0x20,0x40,0x21,0xC0,/*"停",48*/
//  188 
//  189 0x02,0x00,0x02,0x00,0x02,0x00,0x02,0x10,0x7B,0x20,0x0B,0x40,0x0A,0x80,0x12,0x80,
//  190 0x12,0x40,0x22,0x20,0x42,0x10,0x82,0x08,0x02,0x00,0x0E,0x00,/*"水",49*/
//  191 
//  192 0x02,0x00,0x02,0x00,0x02,0x00,0x7F,0xF0,0x42,0x10,0x42,0x10,0x7F,0xF0,0x42,0x10,
//  193 0x42,0x10,0x7F,0xF0,0x42,0x00,0x02,0x08,0x02,0x08,0x01,0xF8,/*"电",50*/
//  194 
//  195 0x10,0x40,0x7F,0xF0,0x02,0x00,0x3F,0xE0,0x04,0x00,0xFF,0xF8,0x08,0x00,0x1F,0xE0,
//  196 0x30,0x20,0x5F,0xE0,0x90,0x20,0x1F,0xE0,0x10,0x20,0x1F,0xE0,/*"着",51*/
//  197 
//  198 0x02,0x00,0x02,0x00,0x02,0x00,0x22,0x10,0x22,0x10,0x22,0x20,0x45,0x40,0x85,0x00,
//  199 0x05,0x00,0x08,0x80,0x08,0x80,0x10,0x40,0x20,0x20,0xC0,0x18,/*"火",52*/
//  200 
//  201 0x10,0x30,0x91,0xC0,0xD5,0x00,0xB9,0x00,0x91,0x00,0xFD,0xF8,0x91,0x20,0xB9,0x20,
//  202 0xD5,0x20,0x95,0x20,0x91,0x20,0x91,0x20,0x82,0x20,0xFC,0x20,/*"断",53*/
//  203 
//  204 0x00,0x00,0x7F,0xF8,0x40,0x08,0x42,0x28,0x53,0x28,0x4A,0xA8,0x44,0x48,0x44,0x48,
//  205 0x4A,0xA8,0x4A,0xA8,0x51,0x08,0x62,0x08,0x40,0x08,0x40,0x38,/*"网",54*/
//  206 
//  207 0x20,0x80,0x20,0x80,0x24,0x90,0x24,0xB0,0xF5,0xD0,0x2E,0x90,0x24,0x90,0x24,0x90,
//  208 0x24,0x90,0x24,0xB0,0x34,0x80,0xC4,0x08,0x04,0x08,0x03,0xF8,/*"地",55*/
//  209 
//  210 0x20,0x40,0x20,0x40,0x20,0x40,0x20,0x40,0xFA,0x40,0x22,0x78,0x22,0x40,0x22,0x40,
//  211 0x22,0x40,0x22,0x40,0x3A,0x40,0xE2,0x40,0x02,0x40,0x0F,0xF8,/*"址",56*/
//  212 
//  213 0x21,0x00,0x21,0x00,0x21,0x00,0xFB,0xE0,0x21,0x20,0x21,0x20,0x21,0x20,0x25,0x30,
//  214 0x25,0x28,0x29,0x28,0x22,0x20,0x22,0x20,0x24,0x20,0x28,0xC0,/*"协",57*/
//  215 
//  216 0x40,0x00,0x27,0xF8,0x24,0x88,0x04,0x88,0xE5,0xE8,0x24,0x88,0x27,0xF8,0x24,0x08,
//  217 0x25,0xE8,0x2D,0x28,0x35,0x28,0x25,0xE8,0x04,0x08,0x08,0x38,/*"调",58*/
//  218 
//  219 0x7D,0xF0,0x45,0x10,0x45,0x10,0x7D,0xF0,0x00,0x40,0x02,0x20,0xFF,0xF8,0x08,0x80,
//  220 0x30,0x60,0xC0,0x18,0x7D,0xF0,0x45,0x10,0x45,0x10,0x7D,0xF0,/*"器",59*/
//  221 
//  222 0x00,0x80,0x78,0x80,0x48,0xF0,0x49,0x10,0x4A,0xA0,0x78,0x40,0x10,0xA0,0x53,0x18,
//  223 0x5C,0x00,0x51,0xF0,0x51,0x10,0x5D,0x10,0xE1,0xF0,0x01,0x10,/*"路",60*/
//  224 
//  225 0x02,0x00,0x02,0x00,0x02,0x00,0x7F,0xF0,0x42,0x10,0x42,0x10,0x42,0x10,0x42,0x10,
//  226 0x7F,0xF0,0x42,0x10,0x42,0x10,0x42,0x10,0x42,0x10,0x7F,0xF0,/*"由",61*/
//  227 
//  228 0x00,0x00,0x00,0x00,0x00,0x00,0x00,0x00,0x00,0x00,0x00,0x00,0x18,0x00,0x18,0x00,
//  229 0x00,0x00,0x00,0x00,0x18,0x00,0x18,0x00,0x00,0x00,0x00,0x00,/*"：",62*/
//  230 
//  231 0x60,0x00,0x90,0x00,0x97,0xE8,0x68,0x18,0x10,0x08,0x10,0x08,0x10,0x00,0x10,0x00,
//  232 0x10,0x00,0x10,0x00,0x10,0x08,0x08,0x10,0x07,0xE0,0x00,0x00,/*"℃",63*/
//  233 
//  234 0x18,0x00,0x24,0x08,0x24,0x10,0x24,0x20,0x24,0x40,0x24,0x80,0x19,0x00,0x02,0x60,
//  235 0x04,0x90,0x08,0x90,0x10,0x90,0x20,0x90,0x40,0x90,0x00,0x60,/*"％",64*/
//  236 
//  237 };
//  238 
//  239 //英文7x14点阵字符 andy

        RSEG CODE_C:CODE:REORDER:NOROOT(0)
        DATA8
//  240 __code const unsigned char ASCII7x14[][14] =
ASCII7x14:
        DB 0
        DB 0
        DB 0
        DB 0
        DB 0
        DB 0
        DB 0
        DB 0
        DB 0
        DB 0
        DB 0
        DB 0
        DB 0
        DB 0
        DB 0
        DB 0
        DB 16
        DB 16
        DB 16
        DB 16
        DB 16
        DB 16
        DB 0
        DB 0
        DB 48
        DB 48
        DB 0
        DB 0
        DB 0
        DB 20
        DB 40
        DB 80
        DB 0
        DB 0
        DB 0
        DB 0
        DB 0
        DB 0
        DB 0
        DB 0
        DB 0
        DB 0
        DB 0
        DB 0
        DB 0
        DB 40
        DB 40
        DB 252
        DB 40
        DB 72
        DB 80
        DB 252
        DB 80
        DB 80
        DB 0
        DB 0
        DB 0
        DB 0
        DB 16
        DB 56
        DB 84
        DB 84
        DB 48
        DB 24
        DB 20
        DB 84
        DB 84
        DB 56
        DB 16
        DB 0
        DB 0
        DB 0
        DB 0
        DB 68
        DB 168
        DB 168
        DB 176
        DB 84
        DB 26
        DB 42
        DB 42
        DB 68
        DB 0
        DB 0
        DB 0
        DB 0
        DB 0
        DB 32
        DB 80
        DB 80
        DB 96
        DB 172
        DB 168
        DB 152
        DB 146
        DB 124
        DB 0
        DB 0
        DB 0
        DB 96
        DB 96
        DB 32
        DB 192
        DB 0
        DB 0
        DB 0
        DB 0
        DB 0
        DB 0
        DB 0
        DB 0
        DB 0
        DB 0
        DB 4
        DB 8
        DB 8
        DB 16
        DB 16
        DB 16
        DB 16
        DB 16
        DB 16
        DB 8
        DB 8
        DB 4
        DB 0
        DB 0
        DB 0
        DB 64
        DB 32
        DB 16
        DB 8
        DB 4
        DB 8
        DB 16
        DB 32
        DB 64
        DB 0
        DB 0
        DB 0
        DB 0
        DB 0
        DB 0
        DB 16
        DB 16
        DB 214
        DB 56
        DB 56
        DB 214
        DB 16
        DB 16
        DB 0
        DB 0
        DB 0
        DB 0
        DB 0
        DB 0
        DB 16
        DB 16
        DB 16
        DB 254
        DB 16
        DB 16
        DB 16
        DB 0
        DB 0
        DB 0
        DB 0
        DB 0
        DB 0
        DB 0
        DB 0
        DB 0
        DB 0
        DB 0
        DB 0
        DB 0
        DB 0
        DB 96
        DB 96
        DB 32
        DB 192
        DB 0
        DB 0
        DB 0
        DB 0
        DB 0
        DB 0
        DB 252
        DB 0
        DB 0
        DB 0
        DB 0
        DB 0
        DB 0
        DB 0
        DB 0
        DB 0
        DB 0
        DB 0
        DB 0
        DB 0
        DB 0
        DB 0
        DB 0
        DB 0
        DB 96
        DB 96
        DB 0
        DB 0
        DB 0
        DB 2
        DB 4
        DB 4
        DB 4
        DB 8
        DB 8
        DB 16
        DB 16
        DB 32
        DB 32
        DB 32
        DB 64
        DB 0
        DB 0
        DB 0
        DB 0
        DB 48
        DB 72
        DB 132
        DB 132
        DB 132
        DB 132
        DB 132
        DB 72
        DB 48
        DB 0
        DB 0
        DB 0
        DB 0
        DB 0
        DB 16
        DB 112
        DB 16
        DB 16
        DB 16
        DB 16
        DB 16
        DB 16
        DB 124
        DB 0
        DB 0
        DB 0
        DB 0
        DB 0
        DB 56
        DB 68
        DB 68
        DB 4
        DB 8
        DB 16
        DB 32
        DB 68
        DB 124
        DB 0
        DB 0
        DB 0
        DB 0
        DB 0
        DB 56
        DB 68
        DB 68
        DB 24
        DB 4
        DB 4
        DB 68
        DB 68
        DB 56
        DB 0
        DB 0
        DB 0
        DB 0
        DB 8
        DB 8
        DB 24
        DB 40
        DB 72
        DB 72
        DB 136
        DB 124
        DB 8
        DB 28
        DB 0
        DB 0
        DB 0
        DB 0
        DB 0
        DB 124
        DB 64
        DB 64
        DB 120
        DB 68
        DB 4
        DB 68
        DB 68
        DB 56
        DB 0
        DB 0
        DB 0
        DB 0
        DB 0
        DB 60
        DB 68
        DB 128
        DB 184
        DB 196
        DB 132
        DB 132
        DB 132
        DB 120
        DB 0
        DB 0
        DB 0
        DB 0
        DB 0
        DB 124
        DB 68
        DB 72
        DB 8
        DB 16
        DB 16
        DB 16
        DB 16
        DB 16
        DB 0
        DB 0
        DB 0
        DB 0
        DB 0
        DB 120
        DB 132
        DB 132
        DB 72
        DB 120
        DB 132
        DB 132
        DB 132
        DB 120
        DB 0
        DB 0
        DB 0
        DB 0
        DB 0
        DB 120
        DB 132
        DB 132
        DB 132
        DB 140
        DB 116
        DB 4
        DB 136
        DB 240
        DB 0
        DB 0
        DB 0
        DB 0
        DB 0
        DB 0
        DB 0
        DB 48
        DB 48
        DB 0
        DB 0
        DB 0
        DB 48
        DB 48
        DB 0
        DB 0
        DB 0
        DB 0
        DB 0
        DB 0
        DB 0
        DB 0
        DB 16
        DB 0
        DB 0
        DB 0
        DB 0
        DB 16
        DB 16
        DB 32
        DB 0
        DB 0
        DB 4
        DB 8
        DB 16
        DB 32
        DB 64
        DB 32
        DB 16
        DB 8
        DB 4
        DB 0
        DB 0
        DB 0
        DB 0
        DB 0
        DB 0
        DB 0
        DB 0
        DB 252
        DB 0
        DB 0
        DB 252
        DB 0
        DB 0
        DB 0
        DB 0
        DB 0
        DB 0
        DB 0
        DB 64
        DB 32
        DB 16
        DB 8
        DB 4
        DB 8
        DB 16
        DB 32
        DB 64
        DB 0
        DB 0
        DB 0
        DB 0
        DB 0
        DB 120
        DB 132
        DB 132
        DB 132
        DB 8
        DB 16
        DB 16
        DB 0
        DB 48
        DB 48
        DB 0
        DB 0
        DB 0
        DB 0
        DB 0
        DB 56
        DB 68
        DB 154
        DB 170
        DB 170
        DB 170
        DB 180
        DB 66
        DB 60
        DB 0
        DB 0
        DB 0
        DB 0
        DB 0
        DB 16
        DB 16
        DB 40
        DB 40
        DB 40
        DB 56
        DB 68
        DB 68
        DB 238
        DB 0
        DB 0
        DB 0
        DB 0
        DB 0
        DB 248
        DB 68
        DB 68
        DB 120
        DB 68
        DB 68
        DB 68
        DB 68
        DB 248
        DB 0
        DB 0
        DB 0
        DB 0
        DB 0
        DB 60
        DB 68
        DB 132
        DB 128
        DB 128
        DB 128
        DB 128
        DB 68
        DB 56
        DB 0
        DB 0
        DB 0
        DB 0
        DB 0
        DB 240
        DB 72
        DB 68
        DB 68
        DB 68
        DB 68
        DB 68
        DB 72
        DB 240
        DB 0
        DB 0
        DB 0
        DB 0
        DB 0
        DB 252
        DB 68
        DB 64
        DB 72
        DB 120
        DB 72
        DB 64
        DB 68
        DB 252
        DB 0
        DB 0
        DB 0
        DB 0
        DB 0
        DB 252
        DB 66
        DB 64
        DB 72
        DB 120
        DB 72
        DB 64
        DB 64
        DB 224
        DB 0
        DB 0
        DB 0
        DB 0
        DB 0
        DB 60
        DB 68
        DB 132
        DB 128
        DB 128
        DB 142
        DB 132
        DB 68
        DB 56
        DB 0
        DB 0
        DB 0
        DB 0
        DB 0
        DB 238
        DB 68
        DB 68
        DB 68
        DB 124
        DB 68
        DB 68
        DB 68
        DB 238
        DB 0
        DB 0
        DB 0
        DB 0
        DB 0
        DB 124
        DB 16
        DB 16
        DB 16
        DB 16
        DB 16
        DB 16
        DB 16
        DB 124
        DB 0
        DB 0
        DB 0
        DB 0
        DB 0
        DB 124
        DB 16
        DB 16
        DB 16
        DB 16
        DB 16
        DB 16
        DB 16
        DB 16
        DB 144
        DB 224
        DB 0
        DB 0
        DB 0
        DB 238
        DB 68
        DB 72
        DB 80
        DB 112
        DB 72
        DB 72
        DB 68
        DB 238
        DB 0
        DB 0
        DB 0
        DB 0
        DB 0
        DB 224
        DB 64
        DB 64
        DB 64
        DB 64
        DB 64
        DB 64
        DB 68
        DB 252
        DB 0
        DB 0
        DB 0
        DB 0
        DB 0
        DB 238
        DB 108
        DB 108
        DB 108
        DB 84
        DB 84
        DB 84
        DB 84
        DB 214
        DB 0
        DB 0
        DB 0
        DB 0
        DB 0
        DB 238
        DB 100
        DB 100
        DB 84
        DB 84
        DB 84
        DB 76
        DB 76
        DB 228
        DB 0
        DB 0
        DB 0
        DB 0
        DB 0
        DB 48
        DB 72
        DB 132
        DB 132
        DB 132
        DB 132
        DB 132
        DB 72
        DB 48
        DB 0
        DB 0
        DB 0
        DB 0
        DB 0
        DB 248
        DB 68
        DB 68
        DB 68
        DB 120
        DB 64
        DB 64
        DB 64
        DB 224
        DB 0
        DB 0
        DB 0
        DB 0
        DB 0
        DB 48
        DB 72
        DB 132
        DB 132
        DB 132
        DB 132
        DB 180
        DB 72
        DB 56
        DB 12
        DB 0
        DB 0
        DB 0
        DB 0
        DB 248
        DB 68
        DB 68
        DB 120
        DB 80
        DB 72
        DB 72
        DB 68
        DB 230
        DB 0
        DB 0
        DB 0
        DB 0
        DB 0
        DB 60
        DB 68
        DB 64
        DB 32
        DB 24
        DB 4
        DB 4
        DB 68
        DB 120
        DB 0
        DB 0
        DB 0
        DB 0
        DB 0
        DB 254
        DB 146
        DB 16
        DB 16
        DB 16
        DB 16
        DB 16
        DB 16
        DB 56
        DB 0
        DB 0
        DB 0
        DB 0
        DB 0
        DB 238
        DB 68
        DB 68
        DB 68
        DB 68
        DB 68
        DB 68
        DB 68
        DB 56
        DB 0
        DB 0
        DB 0
        DB 0
        DB 0
        DB 238
        DB 68
        DB 68
        DB 40
        DB 40
        DB 40
        DB 40
        DB 16
        DB 16
        DB 0
        DB 0
        DB 0
        DB 0
        DB 0
        DB 214
        DB 84
        DB 84
        DB 84
        DB 84
        DB 108
        DB 40
        DB 40
        DB 40
        DB 0
        DB 0
        DB 0
        DB 0
        DB 0
        DB 238
        DB 68
        DB 40
        DB 40
        DB 16
        DB 40
        DB 40
        DB 68
        DB 238
        DB 0
        DB 0
        DB 0
        DB 0
        DB 0
        DB 238
        DB 68
        DB 40
        DB 40
        DB 16
        DB 16
        DB 16
        DB 16
        DB 56
        DB 0
        DB 0
        DB 0
        DB 0
        DB 0
        DB 124
        DB 136
        DB 8
        DB 16
        DB 32
        DB 32
        DB 64
        DB 68
        DB 252
        DB 0
        DB 0
        DB 0
        DB 28
        DB 16
        DB 16
        DB 16
        DB 16
        DB 16
        DB 16
        DB 16
        DB 16
        DB 16
        DB 16
        DB 28
        DB 0
        DB 0
        DB 112
        DB 16
        DB 16
        DB 16
        DB 16
        DB 16
        DB 16
        DB 16
        DB 16
        DB 16
        DB 16
        DB 112
        DB 0
        DB 0
        DB 112
        DB 16
        DB 16
        DB 16
        DB 16
        DB 16
        DB 16
        DB 16
        DB 16
        DB 16
        DB 16
        DB 112
        DB 0
        DB 0
        DB 16
        DB 40
        DB 0
        DB 0
        DB 0
        DB 0
        DB 0
        DB 0
        DB 0
        DB 0
        DB 0
        DB 0
        DB 0
        DB 0
        DB 0
        DB 0
        DB 0
        DB 0
        DB 0
        DB 0
        DB 0
        DB 0
        DB 0
        DB 0
        DB 0
        DB 0
        DB 254
        DB 0
        DB 96
        DB 96
        DB 32
        DB 192
        DB 0
        DB 0
        DB 0
        DB 0
        DB 0
        DB 0
        DB 0
        DB 0
        DB 0
        DB 0
        DB 0
        DB 0
        DB 0
        DB 0
        DB 0
        DB 56
        DB 68
        DB 28
        DB 36
        DB 68
        DB 62
        DB 0
        DB 0
        DB 0
        DB 0
        DB 0
        DB 192
        DB 64
        DB 64
        DB 120
        DB 68
        DB 68
        DB 68
        DB 68
        DB 120
        DB 0
        DB 0
        DB 0
        DB 0
        DB 0
        DB 0
        DB 0
        DB 0
        DB 60
        DB 68
        DB 64
        DB 64
        DB 68
        DB 56
        DB 0
        DB 0
        DB 0
        DB 0
        DB 0
        DB 12
        DB 4
        DB 4
        DB 60
        DB 68
        DB 68
        DB 68
        DB 68
        DB 62
        DB 0
        DB 0
        DB 0
        DB 0
        DB 0
        DB 0
        DB 0
        DB 0
        DB 56
        DB 68
        DB 124
        DB 64
        DB 68
        DB 56
        DB 0
        DB 0
        DB 0
        DB 0
        DB 0
        DB 28
        DB 36
        DB 32
        DB 248
        DB 32
        DB 32
        DB 32
        DB 32
        DB 120
        DB 0
        DB 0
        DB 0
        DB 0
        DB 0
        DB 0
        DB 0
        DB 0
        DB 60
        DB 72
        DB 72
        DB 48
        DB 64
        DB 120
        DB 68
        DB 56
        DB 0
        DB 0
        DB 0
        DB 192
        DB 64
        DB 64
        DB 88
        DB 100
        DB 68
        DB 68
        DB 68
        DB 238
        DB 0
        DB 0
        DB 0
        DB 0
        DB 0
        DB 16
        DB 0
        DB 0
        DB 112
        DB 16
        DB 16
        DB 16
        DB 16
        DB 124
        DB 0
        DB 0
        DB 0
        DB 0
        DB 0
        DB 8
        DB 0
        DB 0
        DB 56
        DB 8
        DB 8
        DB 8
        DB 8
        DB 8
        DB 8
        DB 112
        DB 0
        DB 0
        DB 0
        DB 192
        DB 64
        DB 64
        DB 92
        DB 72
        DB 80
        DB 112
        DB 72
        DB 236
        DB 0
        DB 0
        DB 0
        DB 0
        DB 0
        DB 112
        DB 16
        DB 16
        DB 16
        DB 16
        DB 16
        DB 16
        DB 16
        DB 124
        DB 0
        DB 0
        DB 0
        DB 0
        DB 0
        DB 0
        DB 0
        DB 0
        DB 248
        DB 84
        DB 84
        DB 84
        DB 84
        DB 214
        DB 0
        DB 0
        DB 0
        DB 0
        DB 0
        DB 0
        DB 0
        DB 0
        DB 216
        DB 100
        DB 68
        DB 68
        DB 68
        DB 238
        DB 0
        DB 0
        DB 0
        DB 0
        DB 0
        DB 0
        DB 0
        DB 0
        DB 56
        DB 68
        DB 68
        DB 68
        DB 68
        DB 56
        DB 0
        DB 0
        DB 0
        DB 0
        DB 0
        DB 0
        DB 0
        DB 0
        DB 248
        DB 68
        DB 68
        DB 68
        DB 68
        DB 120
        DB 64
        DB 224
        DB 0
        DB 0
        DB 0
        DB 0
        DB 0
        DB 0
        DB 60
        DB 68
        DB 68
        DB 68
        DB 68
        DB 60
        DB 4
        DB 14
        DB 0
        DB 0
        DB 0
        DB 0
        DB 0
        DB 0
        DB 236
        DB 48
        DB 32
        DB 32
        DB 32
        DB 248
        DB 0
        DB 0
        DB 0
        DB 0
        DB 0
        DB 0
        DB 0
        DB 0
        DB 60
        DB 68
        DB 48
        DB 8
        DB 68
        DB 120
        DB 0
        DB 0
        DB 0
        DB 0
        DB 0
        DB 0
        DB 16
        DB 16
        DB 124
        DB 16
        DB 16
        DB 16
        DB 16
        DB 12
        DB 0
        DB 0
        DB 0
        DB 0
        DB 0
        DB 0
        DB 0
        DB 0
        DB 204
        DB 68
        DB 68
        DB 68
        DB 68
        DB 62
        DB 0
        DB 0
        DB 0
        DB 0
        DB 0
        DB 0
        DB 0
        DB 0
        DB 238
        DB 68
        DB 40
        DB 40
        DB 40
        DB 16
        DB 0
        DB 0
        DB 0
        DB 0
        DB 0
        DB 0
        DB 0
        DB 0
        DB 214
        DB 84
        DB 84
        DB 84
        DB 40
        DB 40
        DB 0
        DB 0
        DB 0
        DB 0
        DB 0
        DB 0
        DB 0
        DB 0
        DB 220
        DB 72
        DB 48
        DB 48
        DB 72
        DB 236
        DB 0
        DB 0
        DB 0
        DB 0
        DB 0
        DB 0
        DB 0
        DB 0
        DB 238
        DB 68
        DB 40
        DB 40
        DB 16
        DB 16
        DB 32
        DB 224
        DB 0
        DB 0
        DB 0
        DB 0
        DB 0
        DB 0
        DB 124
        DB 72
        DB 16
        DB 16
        DB 36
        DB 124
        DB 0
        DB 0
        DB 16
        DB 16
        DB 16
        DB 16
        DB 16
        DB 16
        DB 16
        DB 16
        DB 16
        DB 16
        DB 16
        DB 16
        DB 16
        DB 16
//  241 {
//  242 {0x00,0x00,0x00,0x00,0x00,0x00,0x00,0x00,0x00,0x00,0x00,0x00,0x00,0x00},//" ",0//
//  243 {0x00,0x00,0x10,0x10,0x10,0x10,0x10,0x10,0x00,0x00,0x30,0x30,0x00,0x00},//"!",1//
//  244 {0x00,0x14,0x28,0x50,0x00,0x00,0x00,0x00,0x00,0x00,0x00,0x00,0x00,0x00},//""",2//
//  245 {0x00,0x00,0x00,0x28,0x28,0xFC,0x28,0x48,0x50,0xFC,0x50,0x50,0x00,0x00},//"#",3//
//  246 {0x00,0x00,0x10,0x38,0x54,0x54,0x30,0x18,0x14,0x54,0x54,0x38,0x10,0x00},//"$",4//
//  247 {0x00,0x00,0x00,0x44,0xA8,0xA8,0xB0,0x54,0x1A,0x2A,0x2A,0x44,0x00,0x00},//"%",5//
//  248 {0x00,0x00,0x00,0x20,0x50,0x50,0x60,0xAC,0xA8,0x98,0x92,0x7C,0x00,0x00},//"&",6//
//  249 {0x00,0x60,0x60,0x20,0xC0,0x00,0x00,0x00,0x00,0x00,0x00,0x00,0x00,0x00},//"'",7//
//  250 {0x00,0x04,0x08,0x08,0x10,0x10,0x10,0x10,0x10,0x10,0x08,0x08,0x04,0x00},//"(",8//
//  251 {0x00,0x00,0x40,0x20,0x10,0x08,0x04,0x08,0x10,0x20,0x40,0x00,0x00,0x00},//">",9//
//  252 {0x00,0x00,0x00,0x10,0x10,0xD6,0x38,0x38,0xD6,0x10,0x10,0x00,0x00,0x00},//"*",10//
//  253 {0x00,0x00,0x00,0x10,0x10,0x10,0xFE,0x10,0x10,0x10,0x00,0x00,0x00,0x00},//"+",11//
//  254 {0x00,0x00,0x00,0x00,0x00,0x00,0x00,0x00,0x00,0x00,0x60,0x60,0x20,0xC0},//",",12//
//  255 {0x00,0x00,0x00,0x00,0x00,0x00,0xFC,0x00,0x00,0x00,0x00,0x00,0x00,0x00},//"-",13//
//  256 {0x00,0x00,0x00,0x00,0x00,0x00,0x00,0x00,0x00,0x00,0x60,0x60,0x00,0x00},//".",14//
//  257 {0x00,0x02,0x04,0x04,0x04,0x08,0x08,0x10,0x10,0x20,0x20,0x20,0x40,0x00},//"/",15//
//  258 {0x00,0x00,0x00,0x30,0x48,0x84,0x84,0x84,0x84,0x84,0x48,0x30,0x00,0x00},//"0",16//
//  259 {0x00,0x00,0x00,0x10,0x70,0x10,0x10,0x10,0x10,0x10,0x10,0x7C,0x00,0x00},//"1",17//
//  260 {0x00,0x00,0x00,0x38,0x44,0x44,0x04,0x08,0x10,0x20,0x44,0x7C,0x00,0x00},//"2",18//
//  261 {0x00,0x00,0x00,0x38,0x44,0x44,0x18,0x04,0x04,0x44,0x44,0x38,0x00,0x00},//"3",19//
//  262 {0x00,0x00,0x08,0x08,0x18,0x28,0x48,0x48,0x88,0x7C,0x08,0x1C,0x00,0x00},//"4",20//
//  263 {0x00,0x00,0x00,0x7C,0x40,0x40,0x78,0x44,0x04,0x44,0x44,0x38,0x00,0x00},//"5",21//
//  264 {0x00,0x00,0x00,0x3C,0x44,0x80,0xB8,0xC4,0x84,0x84,0x84,0x78,0x00,0x00},//"6",22//
//  265 {0x00,0x00,0x00,0x7C,0x44,0x48,0x08,0x10,0x10,0x10,0x10,0x10,0x00,0x00},//"7",23//
//  266 {0x00,0x00,0x00,0x78,0x84,0x84,0x48,0x78,0x84,0x84,0x84,0x78,0x00,0x00},//"8",24//
//  267 {0x00,0x00,0x00,0x78,0x84,0x84,0x84,0x8C,0x74,0x04,0x88,0xF0,0x00,0x00},//"9",25//
//  268 {0x00,0x00,0x00,0x00,0x00,0x30,0x30,0x00,0x00,0x00,0x30,0x30,0x00,0x00},//":",26//
//  269 {0x00,0x00,0x00,0x00,0x00,0x00,0x10,0x00,0x00,0x00,0x00,0x10,0x10,0x20},//";",27//
//  270 {0x00,0x00,0x04,0x08,0x10,0x20,0x40,0x20,0x10,0x08,0x04,0x00,0x00,0x00},//"<",28//
//  271 {0x00,0x00,0x00,0x00,0x00,0xFC,0x00,0x00,0xFC,0x00,0x00,0x00,0x00,0x00},//"=",29//
//  272 {0x00,0x00,0x40,0x20,0x10,0x08,0x04,0x08,0x10,0x20,0x40,0x00,0x00,0x00},//">",30//
//  273 {0x00,0x00,0x78,0x84,0x84,0x84,0x08,0x10,0x10,0x00,0x30,0x30,0x00,0x00},//"?",31//
//  274 {0x00,0x00,0x00,0x38,0x44,0x9A,0xAA,0xAA,0xAA,0xB4,0x42,0x3C,0x00,0x00},//"@",32//
//  275 {0x00,0x00,0x00,0x10,0x10,0x28,0x28,0x28,0x38,0x44,0x44,0xEE,0x00,0x00},//"A",33//
//  276 {0x00,0x00,0x00,0xF8,0x44,0x44,0x78,0x44,0x44,0x44,0x44,0xF8,0x00,0x00},//"B",34//
//  277 {0x00,0x00,0x00,0x3C,0x44,0x84,0x80,0x80,0x80,0x80,0x44,0x38,0x00,0x00},//"C",35//
//  278 {0x00,0x00,0x00,0xF0,0x48,0x44,0x44,0x44,0x44,0x44,0x48,0xF0,0x00,0x00},//"D",36//
//  279 {0x00,0x00,0x00,0xFC,0x44,0x40,0x48,0x78,0x48,0x40,0x44,0xFC,0x00,0x00},//"E",37//
//  280 {0x00,0x00,0x00,0xFC,0x42,0x40,0x48,0x78,0x48,0x40,0x40,0xE0,0x00,0x00},//"F",38//
//  281 {0x00,0x00,0x00,0x3C,0x44,0x84,0x80,0x80,0x8E,0x84,0x44,0x38,0x00,0x00},//"G",39//
//  282 {0x00,0x00,0x00,0xEE,0x44,0x44,0x44,0x7C,0x44,0x44,0x44,0xEE,0x00,0x00},//"H",40//
//  283 {0x00,0x00,0x00,0x7C,0x10,0x10,0x10,0x10,0x10,0x10,0x10,0x7C,0x00,0x00},//"I",41//
//  284 {0x00,0x00,0x00,0x7C,0x10,0x10,0x10,0x10,0x10,0x10,0x10,0x10,0x90,0xE0},//"J",42//
//  285 {0x00,0x00,0x00,0xEE,0x44,0x48,0x50,0x70,0x48,0x48,0x44,0xEE,0x00,0x00},//"K",43//
//  286 {0x00,0x00,0x00,0xE0,0x40,0x40,0x40,0x40,0x40,0x40,0x44,0xFC,0x00,0x00},//"L",44//
//  287 {0x00,0x00,0x00,0xEE,0x6C,0x6C,0x6C,0x54,0x54,0x54,0x54,0xD6,0x00,0x00},//"M",45//
//  288 {0x00,0x00,0x00,0xEE,0x64,0x64,0x54,0x54,0x54,0x4C,0x4C,0xE4,0x00,0x00},//"N",46//
//  289 {0x00,0x00,0x00,0x30,0x48,0x84,0x84,0x84,0x84,0x84,0x48,0x30,0x00,0x00},//"O",47//
//  290 {0x00,0x00,0x00,0xF8,0x44,0x44,0x44,0x78,0x40,0x40,0x40,0xE0,0x00,0x00},//"P",48//
//  291 {0x00,0x00,0x00,0x30,0x48,0x84,0x84,0x84,0x84,0xB4,0x48,0x38,0x0C,0x00},//"Q",49//
//  292 {0x00,0x00,0x00,0xF8,0x44,0x44,0x78,0x50,0x48,0x48,0x44,0xE6,0x00,0x00},//"R",50//
//  293 {0x00,0x00,0x00,0x3C,0x44,0x40,0x20,0x18,0x04,0x04,0x44,0x78,0x00,0x00},//"S",51//
//  294 {0x00,0x00,0x00,0xFE,0x92,0x10,0x10,0x10,0x10,0x10,0x10,0x38,0x00,0x00},//"T",52//
//  295 {0x00,0x00,0x00,0xEE,0x44,0x44,0x44,0x44,0x44,0x44,0x44,0x38,0x00,0x00},//"U",53//
//  296 {0x00,0x00,0x00,0xEE,0x44,0x44,0x28,0x28,0x28,0x28,0x10,0x10,0x00,0x00},//"V",54//
//  297 {0x00,0x00,0x00,0xD6,0x54,0x54,0x54,0x54,0x6C,0x28,0x28,0x28,0x00,0x00},//"W",55//
//  298 {0x00,0x00,0x00,0xEE,0x44,0x28,0x28,0x10,0x28,0x28,0x44,0xEE,0x00,0x00},//"X",56//
//  299 {0x00,0x00,0x00,0xEE,0x44,0x28,0x28,0x10,0x10,0x10,0x10,0x38,0x00,0x00},//"Y",57//
//  300 {0x00,0x00,0x00,0x7C,0x88,0x08,0x10,0x20,0x20,0x40,0x44,0xFC,0x00,0x00},//"Z",58//
//  301 {0x00,0x1C,0x10,0x10,0x10,0x10,0x10,0x10,0x10,0x10,0x10,0x10,0x1C,0x00},//"[",59//
//  302 {0x00,0x70,0x10,0x10,0x10,0x10,0x10,0x10,0x10,0x10,0x10,0x10,0x70,0x00},//"]",60//
//  303 {0x00,0x70,0x10,0x10,0x10,0x10,0x10,0x10,0x10,0x10,0x10,0x10,0x70,0x00},//"]",61//
//  304 {0x00,0x10,0x28,0x00,0x00,0x00,0x00,0x00,0x00,0x00,0x00,0x00,0x00,0x00},//"^",62//
//  305 {0x00,0x00,0x00,0x00,0x00,0x00,0x00,0x00,0x00,0x00,0x00,0x00,0x00,0xFE},//"_",63//
//  306 {0x00,0x60,0x60,0x20,0xC0,0x00,0x00,0x00,0x00,0x00,0x00,0x00,0x00,0x00},//"'",64//
//  307 {0x00,0x00,0x00,0x00,0x00,0x00,0x38,0x44,0x1C,0x24,0x44,0x3E,0x00,0x00},//"a",65//
//  308 {0x00,0x00,0x00,0xC0,0x40,0x40,0x78,0x44,0x44,0x44,0x44,0x78,0x00,0x00},//"b",66//
//  309 {0x00,0x00,0x00,0x00,0x00,0x00,0x3C,0x44,0x40,0x40,0x44,0x38,0x00,0x00},//"c",67//
//  310 {0x00,0x00,0x00,0x0C,0x04,0x04,0x3C,0x44,0x44,0x44,0x44,0x3E,0x00,0x00},//"d",68//
//  311 {0x00,0x00,0x00,0x00,0x00,0x00,0x38,0x44,0x7C,0x40,0x44,0x38,0x00,0x00},//"e",69//
//  312 {0x00,0x00,0x00,0x1C,0x24,0x20,0xF8,0x20,0x20,0x20,0x20,0x78,0x00,0x00},//"f",70//
//  313 {0x00,0x00,0x00,0x00,0x00,0x00,0x3C,0x48,0x48,0x30,0x40,0x78,0x44,0x38},//"g",71//
//  314 {0x00,0x00,0x00,0xC0,0x40,0x40,0x58,0x64,0x44,0x44,0x44,0xEE,0x00,0x00},//"h",72//
//  315 {0x00,0x00,0x00,0x10,0x00,0x00,0x70,0x10,0x10,0x10,0x10,0x7C,0x00,0x00},//"i",73//
//  316 {0x00,0x00,0x00,0x08,0x00,0x00,0x38,0x08,0x08,0x08,0x08,0x08,0x08,0x70},//"j",74//
//  317 {0x00,0x00,0x00,0xC0,0x40,0x40,0x5C,0x48,0x50,0x70,0x48,0xEC,0x00,0x00},//"k",75//
//  318 {0x00,0x00,0x00,0x70,0x10,0x10,0x10,0x10,0x10,0x10,0x10,0x7C,0x00,0x00},//"l",76//
//  319 {0x00,0x00,0x00,0x00,0x00,0x00,0xF8,0x54,0x54,0x54,0x54,0xD6,0x00,0x00},//"m",77//
//  320 {0x00,0x00,0x00,0x00,0x00,0x00,0xD8,0x64,0x44,0x44,0x44,0xEE,0x00,0x00},//"n",78//
//  321 {0x00,0x00,0x00,0x00,0x00,0x00,0x38,0x44,0x44,0x44,0x44,0x38,0x00,0x00},//"o",79//
//  322 {0x00,0x00,0x00,0x00,0x00,0x00,0xF8,0x44,0x44,0x44,0x44,0x78,0x40,0xE0},//"p",80//
//  323 {0x00,0x00,0x00,0x00,0x00,0x00,0x3C,0x44,0x44,0x44,0x44,0x3C,0x04,0x0E},//"q",81//
//  324 {0x00,0x00,0x00,0x00,0x00,0x00,0xEC,0x30,0x20,0x20,0x20,0xF8,0x00,0x00},//"r",82//
//  325 {0x00,0x00,0x00,0x00,0x00,0x00,0x3C,0x44,0x30,0x08,0x44,0x78,0x00,0x00},//"s",83//
//  326 {0x00,0x00,0x00,0x00,0x10,0x10,0x7C,0x10,0x10,0x10,0x10,0x0C,0x00,0x00},//"t",84//
//  327 {0x00,0x00,0x00,0x00,0x00,0x00,0xCC,0x44,0x44,0x44,0x44,0x3E,0x00,0x00},//"u",85//
//  328 {0x00,0x00,0x00,0x00,0x00,0x00,0xEE,0x44,0x28,0x28,0x28,0x10,0x00,0x00},//"v",86//
//  329 {0x00,0x00,0x00,0x00,0x00,0x00,0xD6,0x54,0x54,0x54,0x28,0x28,0x00,0x00},//"w",87//
//  330 {0x00,0x00,0x00,0x00,0x00,0x00,0xDC,0x48,0x30,0x30,0x48,0xEC,0x00,0x00},//"x",88//
//  331 {0x00,0x00,0x00,0x00,0x00,0x00,0xEE,0x44,0x28,0x28,0x10,0x10,0x20,0xE0},//"y",89//
//  332 {0x00,0x00,0x00,0x00,0x00,0x00,0x7C,0x48,0x10,0x10,0x24,0x7C,0x00,0x00},//"z",90//
//  333 {0x10,0x10,0x10,0x10,0x10,0x10,0x10,0x10,0x10,0x10,0x10,0x10,0x10,0x10},//"|",91//
//  334 };
//  335 //-----------------------------------------------------------------------------
//  336 #endif //LCD
//  337 
//  338 
//  339 /**************************************************************************************************
//  340  * @fn      HalLcdInit
//  341  *
//  342  * @brief   Initilize LCD Service
//  343  *
//  344  * @param   init - pointer to void that contains the initialized value
//  345  *
//  346  * @return  None
//  347  **************************************************************************************************/

        RSEG BANKED_CODE:CODE:NOROOT(0)
//  348 void HalLcdInit(void)
HalLcdInit:
          CFI Block cfiBlock0 Using cfiCommon0
          CFI Function HalLcdInit
        CODE
//  349 {
        FUNCALL HalLcdInit, HalLcd_HW_Init
        LOCFRAME ISTACK, 2, STACK
        LOCFRAME PSTACK, 0, STACK
        LOCFRAME XSTACK, 0, STACK
        LOCFRAME IOVERLAY, 0, STATIC
        LOCFRAME DOVERLAY, 0, STATIC
        ARGFRAME ISTACK, 2, STACK
        ARGFRAME PSTACK, 0, STACK
        ARGFRAME XSTACK, 0, STACK
        ARGFRAME IOVERLAY, 0, STATIC
        ARGFRAME DOVERLAY, 0, STATIC
        PUSH    DPL
          CFI DPL0 Frame(CFA_SP, 4)
          CFI CFA_SP SP+-4
        PUSH    DPH
          CFI DPH0 Frame(CFA_SP, 5)
          CFI CFA_SP SP+-5
        ; Saved register size: 2
        ; Auto size: 0
//  350 #if (HAL_LCD == TRUE)
//  351   HalLcd_HW_Init();
        ; Setup parameters for call to function HalLcd_HW_Init
        LCALL   `??HalLcd_HW_Init::?relay`; Banked call to: HalLcd_HW_Init
//  352 #endif
//  353 }
          CFI EndBlock cfiBlock0
        REQUIRE ?Subroutine0
        ; // Fall through to label ?Subroutine0

        RSEG BANKED_CODE:CODE:NOROOT(0)
?Subroutine0:
          CFI Block cfiBlock1 Using cfiCommon0
          CFI NoFunction
          CFI CFA_SP SP+-5
          CFI DPL0 Frame(CFA_SP, 4)
          CFI DPH0 Frame(CFA_SP, 5)
        POP     DPH
          CFI CFA_SP SP+-4
          CFI DPH0 SameValue
        POP     DPL
          CFI CFA_SP SP+-3
          CFI DPL0 SameValue
        LJMP    ?BRET
          CFI EndBlock cfiBlock1
//  354 
//  355 /**************************************************************************************************
//  356  * @fn      HalLcdWriteValue
//  357  *
//  358  * @brief   Write a value to the LCD
//  359  *
//  360  * @param   value  - value that will be displayed
//  361  *          radix  - 8, 10, 16
//  362  *          option - display options
//  363  *
//  364  * @return  None
//  365  **************************************************************************************************/

        RSEG BANKED_CODE:CODE:NOROOT(0)
//  366 void HalLcdWriteValue ( uint32 value, const uint8 radix, uint8 option)
HalLcdWriteValue:
          CFI Block cfiBlock2 Using cfiCommon0
          CFI Function HalLcdWriteValue
        CODE
//  367 {
        FUNCALL HalLcdWriteValue, _ltoa
        LOCFRAME ISTACK, 0, STACK
        LOCFRAME PSTACK, 0, STACK
        LOCFRAME XSTACK, 41, STACK
        LOCFRAME IOVERLAY, 0, STATIC
        LOCFRAME DOVERLAY, 0, STATIC
        ARGFRAME ISTACK, 0, STACK
        ARGFRAME PSTACK, 0, STACK
        ARGFRAME XSTACK, 41, STACK
        ARGFRAME IOVERLAY, 0, STATIC
        ARGFRAME DOVERLAY, 0, STATIC
        FUNCALL HalLcdWriteValue, HalLcdWriteString
        LOCFRAME ISTACK, 0, STACK
        LOCFRAME PSTACK, 0, STACK
        LOCFRAME XSTACK, 39, STACK
        LOCFRAME IOVERLAY, 0, STATIC
        LOCFRAME DOVERLAY, 0, STATIC
        ARGFRAME ISTACK, 0, STACK
        ARGFRAME PSTACK, 0, STACK
        ARGFRAME XSTACK, 39, STACK
        ARGFRAME IOVERLAY, 0, STATIC
        ARGFRAME DOVERLAY, 0, STATIC
        REQUIRE ?V0
        REQUIRE ?V1
        REQUIRE ?V2
        REQUIRE ?V3
        REQUIRE ?V4
        REQUIRE ?V5
        MOV     A,#-0xe
        LCALL   ?BANKED_ENTER_XDATA
          CFI DPH0 load(1, XDATA, add(CFA_XSP16, literal(-1)))
          CFI DPL0 load(1, XDATA, add(CFA_XSP16, literal(-2)))
          CFI ?BRET_EXT load(1, XDATA, add(CFA_XSP16, literal(-3)))
          CFI ?RET_HIGH load(1, XDATA, add(CFA_XSP16, literal(-4)))
          CFI ?RET_LOW load(1, XDATA, add(CFA_XSP16, literal(-5)))
          CFI R7 load(1, XDATA, add(CFA_XSP16, literal(-6)))
          CFI V5 load(1, XDATA, add(CFA_XSP16, literal(-7)))
          CFI V4 load(1, XDATA, add(CFA_XSP16, literal(-8)))
          CFI V3 load(1, XDATA, add(CFA_XSP16, literal(-9)))
          CFI V2 load(1, XDATA, add(CFA_XSP16, literal(-10)))
          CFI V1 load(1, XDATA, add(CFA_XSP16, literal(-11)))
          CFI V0 load(1, XDATA, add(CFA_XSP16, literal(-12)))
          CFI VB load(1, XDATA, add(CFA_XSP16, literal(-13)))
          CFI R6 load(1, XDATA, add(CFA_XSP16, literal(-14)))
          CFI CFA_SP SP+0
          CFI CFA_XSP16 add(XSP16, 14)
        ; Saved register size: 14
        ; Auto size: 25
        MOV     A,#-0x19
        LCALL   ?ALLOC_XSTACK8
          CFI CFA_XSP16 add(XSP16, 39)
        MOV     A,R1
        MOV     R6,A
//  368 #if (HAL_LCD == TRUE)
//  369   uint8 buf[LCD_MAX_BUF];
//  370 
//  371   _ltoa( value, &buf[0], radix );
        ; Setup parameters for call to function _ltoa
        MOV     R0,?XSP + 0
        MOV     R1,?XSP + 1
        MOV     ?V4,R0
        MOV     ?V5,R1
        MOV     R0,#?V4
        LCALL   ?PUSH_XSTACK_I_TWO
          CFI CFA_XSP16 add(XSP16, 41)
        MOV     A,R6
        MOV     R1,A
        LCALL   `??_ltoa::?relay`    ; Banked call to: _ltoa
        MOV     A,#0x2
        LCALL   ?DEALLOC_XSTACK8
          CFI CFA_XSP16 add(XSP16, 39)
//  372   HalLcdWriteString( (char*)buf, option );
        ; Setup parameters for call to function HalLcdWriteString
        MOV     A,#0x27
        LCALL   ?XSTACK_DISP0_8
        MOVX    A,@DPTR
        MOV     R1,A
        MOV     R2,?XSP + 0
        MOV     R3,?XSP + 1
        LCALL   `??HalLcdWriteString::?relay`; Banked call to: HalLcdWriteString
//  373 #endif
//  374 }
        MOV     A,#0x19
        LJMP    ?Subroutine1 & 0xFFFF
          CFI EndBlock cfiBlock2
//  375 
//  376 /**************************************************************************************************
//  377  * @fn      HalLcdWriteScreen
//  378  *
//  379  * @brief   Write a value to the LCD
//  380  *
//  381  * @param   line1  - string that will be displayed on line 1
//  382  *          line2  - string that will be displayed on line 2
//  383  *
//  384  * @return  None
//  385  **************************************************************************************************/

        RSEG BANKED_CODE:CODE:NOROOT(0)
//  386 void HalLcdWriteScreen( char *line1, char *line2 )
HalLcdWriteScreen:
          CFI Block cfiBlock3 Using cfiCommon0
          CFI Function HalLcdWriteScreen
        CODE
//  387 {
        FUNCALL HalLcdWriteScreen, HalLcdWriteString
        LOCFRAME ISTACK, 0, STACK
        LOCFRAME PSTACK, 0, STACK
        LOCFRAME XSTACK, 9, STACK
        LOCFRAME IOVERLAY, 0, STATIC
        LOCFRAME DOVERLAY, 0, STATIC
        ARGFRAME ISTACK, 0, STACK
        ARGFRAME PSTACK, 0, STACK
        ARGFRAME XSTACK, 9, STACK
        ARGFRAME IOVERLAY, 0, STATIC
        ARGFRAME DOVERLAY, 0, STATIC
        FUNCALL HalLcdWriteScreen, HalLcdWriteString
        LOCFRAME ISTACK, 0, STACK
        LOCFRAME PSTACK, 0, STACK
        LOCFRAME XSTACK, 9, STACK
        LOCFRAME IOVERLAY, 0, STATIC
        LOCFRAME DOVERLAY, 0, STATIC
        ARGFRAME ISTACK, 0, STACK
        ARGFRAME PSTACK, 0, STACK
        ARGFRAME XSTACK, 9, STACK
        ARGFRAME IOVERLAY, 0, STATIC
        ARGFRAME DOVERLAY, 0, STATIC
        MOV     A,#-0x9
        LCALL   ?BANKED_ENTER_XDATA
          CFI DPH0 load(1, XDATA, add(CFA_XSP16, literal(-1)))
          CFI DPL0 load(1, XDATA, add(CFA_XSP16, literal(-2)))
          CFI ?BRET_EXT load(1, XDATA, add(CFA_XSP16, literal(-3)))
          CFI ?RET_HIGH load(1, XDATA, add(CFA_XSP16, literal(-4)))
          CFI ?RET_LOW load(1, XDATA, add(CFA_XSP16, literal(-5)))
          CFI R7 load(1, XDATA, add(CFA_XSP16, literal(-6)))
          CFI V0 load(1, XDATA, add(CFA_XSP16, literal(-7)))
          CFI VB load(1, XDATA, add(CFA_XSP16, literal(-8)))
          CFI R6 load(1, XDATA, add(CFA_XSP16, literal(-9)))
          CFI CFA_SP SP+0
          CFI CFA_XSP16 add(XSP16, 9)
        ; Saved register size: 9
        ; Auto size: 0
        MOV     A,R4
        MOV     R6,A
        MOV     A,R5
        MOV     R7,A
//  388 #if (HAL_LCD == TRUE)
//  389   HalLcdWriteString( line1, 0 );//andy 
        ; Setup parameters for call to function HalLcdWriteString
        MOV     R1,#0x0
        LCALL   `??HalLcdWriteString::?relay`; Banked call to: HalLcdWriteString
//  390   HalLcdWriteString( line2, 1 );
        ; Setup parameters for call to function HalLcdWriteString
        MOV     R1,#0x1
        MOV     A,R6
        MOV     R2,A
        MOV     A,R7
        MOV     R3,A
        LCALL   `??HalLcdWriteString::?relay`; Banked call to: HalLcdWriteString
//  391 #endif
//  392 }
        SJMP    ??Subroutine10_0
          CFI EndBlock cfiBlock3

        RSEG BANKED_CODE:CODE:NOROOT(0)
?Subroutine2:
          CFI Block cfiBlock4 Using cfiCommon0
          CFI NoFunction
          CFI CFA_SP SP+0
          CFI CFA_XSP16 add(XSP16, 9)
          CFI VB load(1, XDATA, add(CFA_XSP16, literal(-8)))
          CFI DPL0 load(1, XDATA, add(CFA_XSP16, literal(-2)))
          CFI DPH0 load(1, XDATA, add(CFA_XSP16, literal(-1)))
          CFI R6 load(1, XDATA, add(CFA_XSP16, literal(-9)))
          CFI R7 load(1, XDATA, add(CFA_XSP16, literal(-6)))
          CFI V0 load(1, XDATA, add(CFA_XSP16, literal(-7)))
          CFI ?BRET_EXT load(1, XDATA, add(CFA_XSP16, literal(-3)))
          CFI ?RET_HIGH load(1, XDATA, add(CFA_XSP16, literal(-4)))
          CFI ?RET_LOW load(1, XDATA, add(CFA_XSP16, literal(-5)))
        LCALL   `??SPI_WriteData::?relay`; Banked call to: SPI_WriteData
          CFI EndBlock cfiBlock4
        REQUIRE ??Subroutine10_0
        ; // Fall through to label ??Subroutine10_0

        RSEG BANKED_CODE:CODE:NOROOT(0)
??Subroutine10_0:
          CFI Block cfiBlock5 Using cfiCommon0
          CFI NoFunction
          CFI CFA_SP SP+0
          CFI CFA_XSP16 add(XSP16, 9)
          CFI VB load(1, XDATA, add(CFA_XSP16, literal(-8)))
          CFI DPL0 load(1, XDATA, add(CFA_XSP16, literal(-2)))
          CFI DPH0 load(1, XDATA, add(CFA_XSP16, literal(-1)))
          CFI R6 load(1, XDATA, add(CFA_XSP16, literal(-9)))
          CFI R7 load(1, XDATA, add(CFA_XSP16, literal(-6)))
          CFI V0 load(1, XDATA, add(CFA_XSP16, literal(-7)))
          CFI ?BRET_EXT load(1, XDATA, add(CFA_XSP16, literal(-3)))
          CFI ?RET_HIGH load(1, XDATA, add(CFA_XSP16, literal(-4)))
          CFI ?RET_LOW load(1, XDATA, add(CFA_XSP16, literal(-5)))
        MOV     R7,#0x1
        LJMP    ?BANKED_LEAVE_XDATA
          CFI EndBlock cfiBlock5
//  393 
//  394 /**************************************************************************************************
//  395  * @fn      HalLcdWriteStringValue
//  396  *
//  397  * @brief   Write a string followed by a value to the LCD
//  398  *
//  399  * @param   title  - Title that will be displayed before the value
//  400  *          value  - value
//  401  *          format - redix
//  402  *          line   - line number
//  403  *
//  404  * @return  None
//  405  **************************************************************************************************/

        RSEG BANKED_CODE:CODE:NOROOT(0)
//  406 void HalLcdWriteStringValue( char *title, uint16 value, uint8 format, uint8 line )
HalLcdWriteStringValue:
          CFI Block cfiBlock6 Using cfiCommon0
          CFI Function HalLcdWriteStringValue
        CODE
//  407 {
        FUNCALL HalLcdWriteStringValue, osal_strlen
        LOCFRAME ISTACK, 0, STACK
        LOCFRAME PSTACK, 0, STACK
        LOCFRAME XSTACK, 38, STACK
        LOCFRAME IOVERLAY, 0, STATIC
        LOCFRAME DOVERLAY, 0, STATIC
        ARGFRAME ISTACK, 0, STACK
        ARGFRAME PSTACK, 0, STACK
        ARGFRAME XSTACK, 38, STACK
        ARGFRAME IOVERLAY, 0, STATIC
        ARGFRAME DOVERLAY, 0, STATIC
        FUNCALL HalLcdWriteStringValue, osal_memcpy
        LOCFRAME ISTACK, 0, STACK
        LOCFRAME PSTACK, 0, STACK
        LOCFRAME XSTACK, 41, STACK
        LOCFRAME IOVERLAY, 0, STATIC
        LOCFRAME DOVERLAY, 0, STATIC
        ARGFRAME ISTACK, 0, STACK
        ARGFRAME PSTACK, 0, STACK
        ARGFRAME XSTACK, 41, STACK
        ARGFRAME IOVERLAY, 0, STATIC
        ARGFRAME DOVERLAY, 0, STATIC
        FUNCALL HalLcdWriteStringValue, _ltoa
        LOCFRAME ISTACK, 0, STACK
        LOCFRAME PSTACK, 0, STACK
        LOCFRAME XSTACK, 40, STACK
        LOCFRAME IOVERLAY, 0, STATIC
        LOCFRAME DOVERLAY, 0, STATIC
        ARGFRAME ISTACK, 0, STACK
        ARGFRAME PSTACK, 0, STACK
        ARGFRAME XSTACK, 40, STACK
        ARGFRAME IOVERLAY, 0, STATIC
        ARGFRAME DOVERLAY, 0, STATIC
        FUNCALL HalLcdWriteStringValue, HalLcdWriteString
        LOCFRAME ISTACK, 0, STACK
        LOCFRAME PSTACK, 0, STACK
        LOCFRAME XSTACK, 38, STACK
        LOCFRAME IOVERLAY, 0, STATIC
        LOCFRAME DOVERLAY, 0, STATIC
        ARGFRAME ISTACK, 0, STACK
        ARGFRAME PSTACK, 0, STACK
        ARGFRAME XSTACK, 38, STACK
        ARGFRAME IOVERLAY, 0, STATIC
        ARGFRAME DOVERLAY, 0, STATIC
        REQUIRE ?V0
        REQUIRE ?V1
        REQUIRE ?V2
        REQUIRE ?V3
        REQUIRE ?V4
        MOV     A,#-0xd
        LCALL   ?BANKED_ENTER_XDATA
          CFI DPH0 load(1, XDATA, add(CFA_XSP16, literal(-1)))
          CFI DPL0 load(1, XDATA, add(CFA_XSP16, literal(-2)))
          CFI ?BRET_EXT load(1, XDATA, add(CFA_XSP16, literal(-3)))
          CFI ?RET_HIGH load(1, XDATA, add(CFA_XSP16, literal(-4)))
          CFI ?RET_LOW load(1, XDATA, add(CFA_XSP16, literal(-5)))
          CFI R7 load(1, XDATA, add(CFA_XSP16, literal(-6)))
          CFI V4 load(1, XDATA, add(CFA_XSP16, literal(-7)))
          CFI V3 load(1, XDATA, add(CFA_XSP16, literal(-8)))
          CFI V2 load(1, XDATA, add(CFA_XSP16, literal(-9)))
          CFI V1 load(1, XDATA, add(CFA_XSP16, literal(-10)))
          CFI V0 load(1, XDATA, add(CFA_XSP16, literal(-11)))
          CFI VB load(1, XDATA, add(CFA_XSP16, literal(-12)))
          CFI R6 load(1, XDATA, add(CFA_XSP16, literal(-13)))
          CFI CFA_SP SP+0
          CFI CFA_XSP16 add(XSP16, 13)
        ; Saved register size: 13
        ; Auto size: 25
        MOV     A,#-0x19
        LCALL   ?ALLOC_XSTACK8
          CFI CFA_XSP16 add(XSP16, 38)
        MOV     ?V0,R2
        MOV     ?V1,R3
        MOV     A,R4
        MOV     R6,A
        MOV     A,R5
        MOV     R7,A
        MOV     ?V4,R1
//  408 #if (HAL_LCD == TRUE)
//  409   uint8 tmpLen;
//  410   uint8 buf[LCD_MAX_BUF];
//  411   uint32 err;
//  412 
//  413   tmpLen = (uint8)osal_strlen( (char*)title );
        ; Setup parameters for call to function osal_strlen
        LCALL   `??osal_strlen::?relay`; Banked call to: osal_strlen
        MOV     A,R2
        MOV     ?V3,A
//  414   osal_memcpy( buf, title, tmpLen );
        ; Setup parameters for call to function osal_memcpy
        MOV     ?V2,#0x0
        MOV     R0,#?V0
        LCALL   ?PUSH_XSTACK_I_THREE
          CFI CFA_XSP16 add(XSP16, 41)
        MOV     R4,?V3
        MOV     R5,#0x0
        MOV     A,#0x3
        LCALL   ?XSTACK_DISP101_8
        LCALL   `??osal_memcpy::?relay`; Banked call to: osal_memcpy
        MOV     A,#0x3
        LCALL   ?DEALLOC_XSTACK8
          CFI CFA_XSP16 add(XSP16, 38)
//  415   //buf[tmpLen] = ' ';
//  416   err = (uint32)(value);
//  417   _ltoa( err, &buf[tmpLen], format );
        ; Setup parameters for call to function _ltoa
        LCALL   ?Subroutine6 & 0xFFFF
??CrossCallReturnLabel_9:
        LCALL   ?PUSH_XSTACK_I_TWO
          CFI CFA_XSP16 add(XSP16, 40)
        MOV     R1,?V4
        MOV     ?V0,R6
        MOV     ?V1,R7
        MOV     R2,?V0
        MOV     R3,?V1
        CLR     A
        MOV     R4,A
        MOV     R5,A
        LCALL   `??_ltoa::?relay`    ; Banked call to: _ltoa
        MOV     A,#0x2
        LCALL   ?DEALLOC_XSTACK8
          CFI CFA_XSP16 add(XSP16, 38)
//  418   HalLcdWriteString( (char*)buf, line );
        ; Setup parameters for call to function HalLcdWriteString
        MOV     A,#0x26
          CFI EndBlock cfiBlock6
        REQUIRE ?Subroutine3
        ; // Fall through to label ?Subroutine3
//  419 #endif
//  420 }

        RSEG BANKED_CODE:CODE:NOROOT(0)
?Subroutine3:
          CFI Block cfiBlock7 Using cfiCommon0
          CFI NoFunction
          CFI CFA_SP SP+0
          CFI CFA_XSP16 add(XSP16, 38)
          CFI VB load(1, XDATA, add(CFA_XSP16, literal(-12)))
          CFI DPL0 load(1, XDATA, add(CFA_XSP16, literal(-2)))
          CFI DPH0 load(1, XDATA, add(CFA_XSP16, literal(-1)))
          CFI R6 load(1, XDATA, add(CFA_XSP16, literal(-13)))
          CFI R7 load(1, XDATA, add(CFA_XSP16, literal(-6)))
          CFI V0 load(1, XDATA, add(CFA_XSP16, literal(-11)))
          CFI V1 load(1, XDATA, add(CFA_XSP16, literal(-10)))
          CFI V2 load(1, XDATA, add(CFA_XSP16, literal(-9)))
          CFI V3 load(1, XDATA, add(CFA_XSP16, literal(-8)))
          CFI V4 load(1, XDATA, add(CFA_XSP16, literal(-7)))
          CFI ?BRET_EXT load(1, XDATA, add(CFA_XSP16, literal(-3)))
          CFI ?RET_HIGH load(1, XDATA, add(CFA_XSP16, literal(-4)))
          CFI ?RET_LOW load(1, XDATA, add(CFA_XSP16, literal(-5)))
        LCALL   ?XSTACK_DISP0_8
        MOVX    A,@DPTR
        MOV     R1,A
        MOV     R2,?XSP + 0
        MOV     R3,?XSP + 1
        LCALL   `??HalLcdWriteString::?relay`; Banked call to: HalLcdWriteString
        MOV     A,#0x19
        LCALL   ?DEALLOC_XSTACK8
          CFI EndBlock cfiBlock7
        REQUIRE ??Subroutine11_0
        ; // Fall through to label ??Subroutine11_0

        RSEG BANKED_CODE:CODE:NOROOT(0)
??Subroutine11_0:
          CFI Block cfiBlock8 Using cfiCommon0
          CFI NoFunction
          CFI CFA_SP SP+0
          CFI CFA_XSP16 add(XSP16, 13)
          CFI VB load(1, XDATA, add(CFA_XSP16, literal(-12)))
          CFI DPL0 load(1, XDATA, add(CFA_XSP16, literal(-2)))
          CFI DPH0 load(1, XDATA, add(CFA_XSP16, literal(-1)))
          CFI R6 load(1, XDATA, add(CFA_XSP16, literal(-13)))
          CFI R7 load(1, XDATA, add(CFA_XSP16, literal(-6)))
          CFI V0 load(1, XDATA, add(CFA_XSP16, literal(-11)))
          CFI V1 load(1, XDATA, add(CFA_XSP16, literal(-10)))
          CFI V2 load(1, XDATA, add(CFA_XSP16, literal(-9)))
          CFI V3 load(1, XDATA, add(CFA_XSP16, literal(-8)))
          CFI V4 load(1, XDATA, add(CFA_XSP16, literal(-7)))
          CFI ?BRET_EXT load(1, XDATA, add(CFA_XSP16, literal(-3)))
          CFI ?RET_HIGH load(1, XDATA, add(CFA_XSP16, literal(-4)))
          CFI ?RET_LOW load(1, XDATA, add(CFA_XSP16, literal(-5)))
        MOV     R7,#0x5
        LJMP    ?BANKED_LEAVE_XDATA
          CFI EndBlock cfiBlock8

        RSEG BANKED_CODE:CODE:NOROOT(0)
?Subroutine6:
          CFI Block cfiCond9 Using cfiCommon0
          CFI Function HalLcdWriteStringValue
          CFI Conditional ??CrossCallReturnLabel_9
          CFI R6 load(1, XDATA, add(CFA_XSP16, literal(-13)))
          CFI VB load(1, XDATA, add(CFA_XSP16, literal(-12)))
          CFI V0 load(1, XDATA, add(CFA_XSP16, literal(-11)))
          CFI V1 load(1, XDATA, add(CFA_XSP16, literal(-10)))
          CFI V2 load(1, XDATA, add(CFA_XSP16, literal(-9)))
          CFI V3 load(1, XDATA, add(CFA_XSP16, literal(-8)))
          CFI V4 load(1, XDATA, add(CFA_XSP16, literal(-7)))
          CFI R7 load(1, XDATA, add(CFA_XSP16, literal(-6)))
          CFI ?RET_LOW load(1, XDATA, add(CFA_XSP16, literal(-5)))
          CFI ?RET_HIGH load(1, XDATA, add(CFA_XSP16, literal(-4)))
          CFI ?BRET_EXT load(1, XDATA, add(CFA_XSP16, literal(-3)))
          CFI DPL0 load(1, XDATA, add(CFA_XSP16, literal(-2)))
          CFI DPH0 load(1, XDATA, add(CFA_XSP16, literal(-1)))
          CFI CFA_SP SP+-2
          CFI CFA_XSP16 add(XSP16, 38)
          CFI Block cfiCond10 Using cfiCommon0
          CFI (cfiCond10) Function HalLcdWriteStringValueValue
          CFI (cfiCond10) Conditional ??CrossCallReturnLabel_10
          CFI (cfiCond10) R6 load(1, XDATA, add(CFA_XSP16, literal(-13)))
          CFI (cfiCond10) VB load(1, XDATA, add(CFA_XSP16, literal(-12)))
          CFI (cfiCond10) V0 load(1, XDATA, add(CFA_XSP16, literal(-11)))
          CFI (cfiCond10) V1 load(1, XDATA, add(CFA_XSP16, literal(-10)))
          CFI (cfiCond10) V2 load(1, XDATA, add(CFA_XSP16, literal(-9)))
          CFI (cfiCond10) V3 load(1, XDATA, add(CFA_XSP16, literal(-8)))
          CFI (cfiCond10) V4 load(1, XDATA, add(CFA_XSP16, literal(-7)))
          CFI (cfiCond10) R7 load(1, XDATA, add(CFA_XSP16, literal(-6)))
          CFI (cfiCond10) ?RET_LOW load(1, XDATA, add(CFA_XSP16, literal(-5)))
          CFI (cfiCond10) ?RET_HIGH load(1, XDATA, add(CFA_XSP16, literal(-4)))
          CFI (cfiCond10) ?BRET_EXT load(1, XDATA, add(CFA_XSP16, literal(-3)))
          CFI (cfiCond10) DPL0 load(1, XDATA, add(CFA_XSP16, literal(-2)))
          CFI (cfiCond10) DPH0 load(1, XDATA, add(CFA_XSP16, literal(-1)))
          CFI (cfiCond10) CFA_SP SP+-2
          CFI (cfiCond10) CFA_XSP16 add(XSP16, 38)
          CFI Block cfiPicker11 Using cfiCommon1
          CFI (cfiPicker11) NoFunction
          CFI (cfiPicker11) Picker
        MOV     R0,?V3
          CFI EndBlock cfiCond9
          CFI EndBlock cfiCond10
          CFI EndBlock cfiPicker11
        REQUIRE ??Subroutine12_0
        ; // Fall through to label ??Subroutine12_0

        RSEG BANKED_CODE:CODE:NOROOT(0)
??Subroutine12_0:
          CFI Block cfiCond12 Using cfiCommon0
          CFI Function HalLcdWriteStringValueValue
          CFI Conditional ??CrossCallReturnLabel_8
          CFI R6 load(1, XDATA, add(CFA_XSP16, literal(-13)))
          CFI VB load(1, XDATA, add(CFA_XSP16, literal(-12)))
          CFI V0 load(1, XDATA, add(CFA_XSP16, literal(-11)))
          CFI V1 load(1, XDATA, add(CFA_XSP16, literal(-10)))
          CFI V2 load(1, XDATA, add(CFA_XSP16, literal(-9)))
          CFI V3 load(1, XDATA, add(CFA_XSP16, literal(-8)))
          CFI V4 load(1, XDATA, add(CFA_XSP16, literal(-7)))
          CFI R7 load(1, XDATA, add(CFA_XSP16, literal(-6)))
          CFI ?RET_LOW load(1, XDATA, add(CFA_XSP16, literal(-5)))
          CFI ?RET_HIGH load(1, XDATA, add(CFA_XSP16, literal(-4)))
          CFI ?BRET_EXT load(1, XDATA, add(CFA_XSP16, literal(-3)))
          CFI DPL0 load(1, XDATA, add(CFA_XSP16, literal(-2)))
          CFI DPH0 load(1, XDATA, add(CFA_XSP16, literal(-1)))
          CFI CFA_SP SP+-2
          CFI CFA_XSP16 add(XSP16, 38)
          CFI Block cfiCond13 Using cfiCommon0
          CFI (cfiCond13) Function HalLcdWriteStringValue
          CFI (cfiCond13) Conditional ??CrossCallReturnLabel_9
          CFI (cfiCond13) R6 load(1, XDATA, add(CFA_XSP16, literal(-13)))
          CFI (cfiCond13) VB load(1, XDATA, add(CFA_XSP16, literal(-12)))
          CFI (cfiCond13) V0 load(1, XDATA, add(CFA_XSP16, literal(-11)))
          CFI (cfiCond13) V1 load(1, XDATA, add(CFA_XSP16, literal(-10)))
          CFI (cfiCond13) V2 load(1, XDATA, add(CFA_XSP16, literal(-9)))
          CFI (cfiCond13) V3 load(1, XDATA, add(CFA_XSP16, literal(-8)))
          CFI (cfiCond13) V4 load(1, XDATA, add(CFA_XSP16, literal(-7)))
          CFI (cfiCond13) R7 load(1, XDATA, add(CFA_XSP16, literal(-6)))
          CFI (cfiCond13) ?RET_LOW load(1, XDATA, add(CFA_XSP16, literal(-5)))
          CFI (cfiCond13) ?RET_HIGH load(1, XDATA, add(CFA_XSP16, literal(-4)))
          CFI (cfiCond13) ?BRET_EXT load(1, XDATA, add(CFA_XSP16, literal(-3)))
          CFI (cfiCond13) DPL0 load(1, XDATA, add(CFA_XSP16, literal(-2)))
          CFI (cfiCond13) DPH0 load(1, XDATA, add(CFA_XSP16, literal(-1)))
          CFI (cfiCond13) CFA_SP SP+-2
          CFI (cfiCond13) CFA_XSP16 add(XSP16, 38)
          CFI Block cfiCond14 Using cfiCommon0
          CFI (cfiCond14) Function HalLcdWriteStringValueValue
          CFI (cfiCond14) Conditional ??CrossCallReturnLabel_10
          CFI (cfiCond14) R6 load(1, XDATA, add(CFA_XSP16, literal(-13)))
          CFI (cfiCond14) VB load(1, XDATA, add(CFA_XSP16, literal(-12)))
          CFI (cfiCond14) V0 load(1, XDATA, add(CFA_XSP16, literal(-11)))
          CFI (cfiCond14) V1 load(1, XDATA, add(CFA_XSP16, literal(-10)))
          CFI (cfiCond14) V2 load(1, XDATA, add(CFA_XSP16, literal(-9)))
          CFI (cfiCond14) V3 load(1, XDATA, add(CFA_XSP16, literal(-8)))
          CFI (cfiCond14) V4 load(1, XDATA, add(CFA_XSP16, literal(-7)))
          CFI (cfiCond14) R7 load(1, XDATA, add(CFA_XSP16, literal(-6)))
          CFI (cfiCond14) ?RET_LOW load(1, XDATA, add(CFA_XSP16, literal(-5)))
          CFI (cfiCond14) ?RET_HIGH load(1, XDATA, add(CFA_XSP16, literal(-4)))
          CFI (cfiCond14) ?BRET_EXT load(1, XDATA, add(CFA_XSP16, literal(-3)))
          CFI (cfiCond14) DPL0 load(1, XDATA, add(CFA_XSP16, literal(-2)))
          CFI (cfiCond14) DPH0 load(1, XDATA, add(CFA_XSP16, literal(-1)))
          CFI (cfiCond14) CFA_SP SP+-2
          CFI (cfiCond14) CFA_XSP16 add(XSP16, 38)
          CFI Block cfiPicker15 Using cfiCommon1
          CFI (cfiPicker15) NoFunction
          CFI (cfiPicker15) Picker
        MOV     DPL,?XSP + 0
        MOV     DPH,?XSP + 1
        MOV     A,DPL
        ADD     A,R0
        MOV     ?V0,A
        CLR     A
        ADDC    A,DPH
        MOV     ?V1,A
        MOV     R0,#?V0
        RET
          CFI EndBlock cfiCond12
          CFI EndBlock cfiCond13
          CFI EndBlock cfiCond14
          CFI EndBlock cfiPicker15
//  421 
//  422 
//  423 //写英文字符串，只擦除字符串区域

        RSEG BANKED_CODE:CODE:NOROOT(0)
//  424 void HalLcdWriteEnString(uint8 x, uint8 y, char *title)
HalLcdWriteEnString:
          CFI Block cfiBlock16 Using cfiCommon0
          CFI Function HalLcdWriteEnString
        CODE
//  425 {  
        FUNCALL HalLcdWriteEnString, osal_strlen
        LOCFRAME ISTACK, 0, STACK
        LOCFRAME PSTACK, 0, STACK
        LOCFRAME XSTACK, 16, STACK
        LOCFRAME IOVERLAY, 0, STATIC
        LOCFRAME DOVERLAY, 0, STATIC
        ARGFRAME ISTACK, 0, STACK
        ARGFRAME PSTACK, 0, STACK
        ARGFRAME XSTACK, 16, STACK
        ARGFRAME IOVERLAY, 0, STATIC
        ARGFRAME DOVERLAY, 0, STATIC
        FUNCALL HalLcdWriteEnString, DrawRectFill
        LOCFRAME ISTACK, 0, STACK
        LOCFRAME PSTACK, 0, STACK
        LOCFRAME XSTACK, 18, STACK
        LOCFRAME IOVERLAY, 0, STATIC
        LOCFRAME DOVERLAY, 0, STATIC
        ARGFRAME ISTACK, 0, STACK
        ARGFRAME PSTACK, 0, STACK
        ARGFRAME XSTACK, 18, STACK
        ARGFRAME IOVERLAY, 0, STATIC
        ARGFRAME DOVERLAY, 0, STATIC
        FUNCALL HalLcdWriteEnString, LCD_write_EN_string
        LOCFRAME ISTACK, 0, STACK
        LOCFRAME PSTACK, 0, STACK
        LOCFRAME XSTACK, 12, STACK
        LOCFRAME IOVERLAY, 0, STATIC
        LOCFRAME DOVERLAY, 0, STATIC
        ARGFRAME ISTACK, 0, STACK
        ARGFRAME PSTACK, 0, STACK
        ARGFRAME XSTACK, 12, STACK
        ARGFRAME IOVERLAY, 0, STATIC
        ARGFRAME DOVERLAY, 0, STATIC
        REQUIRE ?V0
        REQUIRE ?V1
        REQUIRE ?V2
        REQUIRE ?V3
        MOV     A,#-0xc
        LCALL   ?BANKED_ENTER_XDATA
          CFI DPH0 load(1, XDATA, add(CFA_XSP16, literal(-1)))
          CFI DPL0 load(1, XDATA, add(CFA_XSP16, literal(-2)))
          CFI ?BRET_EXT load(1, XDATA, add(CFA_XSP16, literal(-3)))
          CFI ?RET_HIGH load(1, XDATA, add(CFA_XSP16, literal(-4)))
          CFI ?RET_LOW load(1, XDATA, add(CFA_XSP16, literal(-5)))
          CFI R7 load(1, XDATA, add(CFA_XSP16, literal(-6)))
          CFI V3 load(1, XDATA, add(CFA_XSP16, literal(-7)))
          CFI V2 load(1, XDATA, add(CFA_XSP16, literal(-8)))
          CFI V1 load(1, XDATA, add(CFA_XSP16, literal(-9)))
          CFI V0 load(1, XDATA, add(CFA_XSP16, literal(-10)))
          CFI VB load(1, XDATA, add(CFA_XSP16, literal(-11)))
          CFI R6 load(1, XDATA, add(CFA_XSP16, literal(-12)))
          CFI CFA_SP SP+0
          CFI CFA_XSP16 add(XSP16, 12)
        ; Saved register size: 12
        ; Auto size: 0
        MOV     ?V1,R1
        MOV     ?V0,R2
        MOV     A,R4
        MOV     R6,A
        MOV     A,R5
        MOV     R7,A
//  426 #if (HAL_LCD == TRUE)
//  427   uint8 tmpLen;
//  428 
//  429   tmpLen = (uint8)osal_strlen( (char*)title );
//  430   DrawRectFill(x, y, tmpLen*7, 14, WHITE); 
        ; Setup parameters for call to function DrawRectFill
        MOV     ?V2,#-0x1
        MOV     ?V3,#-0x1
        MOV     R0,#?V2
        LCALL   ?PUSH_XSTACK_I_TWO
          CFI CFA_XSP16 add(XSP16, 14)
        MOV     ?V2,#0xe
        MOV     ?V3,#0x0
        MOV     R0,#?V2
        LCALL   ?PUSH_XSTACK_I_TWO
          CFI CFA_XSP16 add(XSP16, 16)
        ; Setup parameters for call to function osal_strlen
        MOV     A,R6
        MOV     R2,A
        MOV     A,R7
        MOV     R3,A
        LCALL   `??osal_strlen::?relay`; Banked call to: osal_strlen
        MOV     A,R2
        MOV     B,#0x7
        MUL     AB
        MOV     ?V2,A
        MOV     A,B
        MOV     ?V3,A
        MOV     R0,#?V2
        LCALL   ?PUSH_XSTACK_I_TWO
          CFI CFA_XSP16 add(XSP16, 18)
        MOV     R4,?V0
        MOV     R5,#0x0
        MOV     R2,?V1
        MOV     R3,#0x0
        LCALL   `??DrawRectFill::?relay`; Banked call to: DrawRectFill
        MOV     A,#0x6
        LCALL   ?DEALLOC_XSTACK8
          CFI CFA_XSP16 add(XSP16, 12)
//  431   LCD_write_EN_string(x, y,(unsigned char *)title);
        ; Setup parameters for call to function LCD_write_EN_string
        MOV     A,R6
        MOV     R4,A
        MOV     A,R7
        MOV     R5,A
        MOV     R2,?V0
        MOV     R1,?V1
        LJMP    ?Subroutine4 & 0xFFFF
//  432 #endif  
//  433 }
          CFI EndBlock cfiBlock16
//  434 
//  435 /**************************************************************************************************
//  436  * @fn      HalLcdWriteStringValue
//  437  *
//  438  * @brief   Write a string followed by a value to the LCD
//  439  *
//  440  * @param   title   - Title that will be displayed before the value
//  441  *          value1  - value #1
//  442  *          format1 - redix of value #1
//  443  *          value2  - value #2
//  444  *          format2 - redix of value #2
//  445  *          line    - line number
//  446  *
//  447  * @return  None
//  448  **************************************************************************************************/

        RSEG BANKED_CODE:CODE:NOROOT(0)
//  449 void HalLcdWriteStringValueValue( char *title, uint16 value1, uint8 format1,
HalLcdWriteStringValueValue:
          CFI Block cfiBlock17 Using cfiCommon0
          CFI Function HalLcdWriteStringValueValue
        CODE
//  450                                   uint16 value2, uint8 format2, uint8 line )
//  451 {
        FUNCALL HalLcdWriteStringValueValue, osal_strlen
        LOCFRAME ISTACK, 0, STACK
        LOCFRAME PSTACK, 0, STACK
        LOCFRAME XSTACK, 38, STACK
        LOCFRAME IOVERLAY, 0, STATIC
        LOCFRAME DOVERLAY, 0, STATIC
        ARGFRAME ISTACK, 0, STACK
        ARGFRAME PSTACK, 0, STACK
        ARGFRAME XSTACK, 38, STACK
        ARGFRAME IOVERLAY, 0, STATIC
        ARGFRAME DOVERLAY, 0, STATIC
        FUNCALL HalLcdWriteStringValueValue, osal_memcpy
        LOCFRAME ISTACK, 0, STACK
        LOCFRAME PSTACK, 0, STACK
        LOCFRAME XSTACK, 41, STACK
        LOCFRAME IOVERLAY, 0, STATIC
        LOCFRAME DOVERLAY, 0, STATIC
        ARGFRAME ISTACK, 0, STACK
        ARGFRAME PSTACK, 0, STACK
        ARGFRAME XSTACK, 41, STACK
        ARGFRAME IOVERLAY, 0, STATIC
        ARGFRAME DOVERLAY, 0, STATIC
        FUNCALL HalLcdWriteStringValueValue, _ltoa
        LOCFRAME ISTACK, 0, STACK
        LOCFRAME PSTACK, 0, STACK
        LOCFRAME XSTACK, 40, STACK
        LOCFRAME IOVERLAY, 0, STATIC
        LOCFRAME DOVERLAY, 0, STATIC
        ARGFRAME ISTACK, 0, STACK
        ARGFRAME PSTACK, 0, STACK
        ARGFRAME XSTACK, 40, STACK
        ARGFRAME IOVERLAY, 0, STATIC
        ARGFRAME DOVERLAY, 0, STATIC
        FUNCALL HalLcdWriteStringValueValue, osal_strlen
        LOCFRAME ISTACK, 0, STACK
        LOCFRAME PSTACK, 0, STACK
        LOCFRAME XSTACK, 38, STACK
        LOCFRAME IOVERLAY, 0, STATIC
        LOCFRAME DOVERLAY, 0, STATIC
        ARGFRAME ISTACK, 0, STACK
        ARGFRAME PSTACK, 0, STACK
        ARGFRAME XSTACK, 38, STACK
        ARGFRAME IOVERLAY, 0, STATIC
        ARGFRAME DOVERLAY, 0, STATIC
        FUNCALL HalLcdWriteStringValueValue, _ltoa
        LOCFRAME ISTACK, 0, STACK
        LOCFRAME PSTACK, 0, STACK
        LOCFRAME XSTACK, 40, STACK
        LOCFRAME IOVERLAY, 0, STATIC
        LOCFRAME DOVERLAY, 0, STATIC
        ARGFRAME ISTACK, 0, STACK
        ARGFRAME PSTACK, 0, STACK
        ARGFRAME XSTACK, 40, STACK
        ARGFRAME IOVERLAY, 0, STATIC
        ARGFRAME DOVERLAY, 0, STATIC
        FUNCALL HalLcdWriteStringValueValue, HalLcdWriteString
        LOCFRAME ISTACK, 0, STACK
        LOCFRAME PSTACK, 0, STACK
        LOCFRAME XSTACK, 38, STACK
        LOCFRAME IOVERLAY, 0, STATIC
        LOCFRAME DOVERLAY, 0, STATIC
        ARGFRAME ISTACK, 0, STACK
        ARGFRAME PSTACK, 0, STACK
        ARGFRAME XSTACK, 38, STACK
        ARGFRAME IOVERLAY, 0, STATIC
        ARGFRAME DOVERLAY, 0, STATIC
        REQUIRE ?V0
        REQUIRE ?V1
        REQUIRE ?V2
        REQUIRE ?V3
        REQUIRE ?V4
        MOV     A,#-0xd
        LCALL   ?BANKED_ENTER_XDATA
          CFI DPH0 load(1, XDATA, add(CFA_XSP16, literal(-1)))
          CFI DPL0 load(1, XDATA, add(CFA_XSP16, literal(-2)))
          CFI ?BRET_EXT load(1, XDATA, add(CFA_XSP16, literal(-3)))
          CFI ?RET_HIGH load(1, XDATA, add(CFA_XSP16, literal(-4)))
          CFI ?RET_LOW load(1, XDATA, add(CFA_XSP16, literal(-5)))
          CFI R7 load(1, XDATA, add(CFA_XSP16, literal(-6)))
          CFI V4 load(1, XDATA, add(CFA_XSP16, literal(-7)))
          CFI V3 load(1, XDATA, add(CFA_XSP16, literal(-8)))
          CFI V2 load(1, XDATA, add(CFA_XSP16, literal(-9)))
          CFI V1 load(1, XDATA, add(CFA_XSP16, literal(-10)))
          CFI V0 load(1, XDATA, add(CFA_XSP16, literal(-11)))
          CFI VB load(1, XDATA, add(CFA_XSP16, literal(-12)))
          CFI R6 load(1, XDATA, add(CFA_XSP16, literal(-13)))
          CFI CFA_SP SP+0
          CFI CFA_XSP16 add(XSP16, 13)
        ; Saved register size: 13
        ; Auto size: 25
        MOV     A,#-0x19
        LCALL   ?ALLOC_XSTACK8
          CFI CFA_XSP16 add(XSP16, 38)
        MOV     ?V0,R2
        MOV     ?V1,R3
        MOV     A,R4
        MOV     R6,A
        MOV     A,R5
        MOV     R7,A
        MOV     ?V4,R1
//  452 #if (HAL_LCD == TRUE)
//  453 
//  454   uint8 tmpLen;
//  455   uint8 buf[LCD_MAX_BUF];
//  456   uint32 err;
//  457 
//  458   tmpLen = (uint8)osal_strlen( (char*)title );
        ; Setup parameters for call to function osal_strlen
        LCALL   `??osal_strlen::?relay`; Banked call to: osal_strlen
        MOV     A,R2
        MOV     ?V3,A
//  459   if ( tmpLen )
        JZ      ??HalLcdWriteStringValueValue_0
//  460   {
//  461     osal_memcpy( buf, title, tmpLen );
        ; Setup parameters for call to function osal_memcpy
        MOV     ?V2,#0x0
        MOV     R0,#?V0
        LCALL   ?PUSH_XSTACK_I_THREE
          CFI CFA_XSP16 add(XSP16, 41)
        MOV     R4,?V3
        MOV     R5,#0x0
        MOV     A,#0x3
        LCALL   ?XSTACK_DISP101_8
        LCALL   `??osal_memcpy::?relay`; Banked call to: osal_memcpy
        MOV     A,#0x3
        LCALL   ?DEALLOC_XSTACK8
          CFI CFA_XSP16 add(XSP16, 38)
//  462     //buf[tmpLen++] = ' ';
//  463   }
//  464 
//  465   err = (uint32)(value1);
//  466   _ltoa( err, &buf[tmpLen], format1 );
??HalLcdWriteStringValueValue_0:
        ; Setup parameters for call to function _ltoa
        LCALL   ?Subroutine6 & 0xFFFF
??CrossCallReturnLabel_10:
        LCALL   ?PUSH_XSTACK_I_TWO
          CFI CFA_XSP16 add(XSP16, 40)
        MOV     R1,?V4
        MOV     ?V0,R6
        MOV     ?V1,R7
        MOV     R2,?V0
        MOV     R3,?V1
        CLR     A
        MOV     R4,A
        MOV     R5,A
        LCALL   `??_ltoa::?relay`    ; Banked call to: _ltoa
        MOV     A,#0x2
        LCALL   ?DEALLOC_XSTACK8
          CFI CFA_XSP16 add(XSP16, 38)
//  467   tmpLen = (uint8)osal_strlen( (char*)buf );
        ; Setup parameters for call to function osal_strlen
        MOV     R2,?XSP + 0
        MOV     R3,?XSP + 1
        LCALL   `??osal_strlen::?relay`; Banked call to: osal_strlen
        MOV     A,R2
        MOV     ?V3,A
//  468 
//  469   buf[tmpLen++] = ',';
        MOV     R0,A
        MOV     DPL,?XSP + 0
        MOV     DPH,?XSP + 1
        MOV     A,DPL
        ADD     A,R2
        MOV     DPL,A
        CLR     A
        ADDC    A,DPH
        MOV     DPH,A
        MOV     A,#0x2c
        MOVX    @DPTR,A
//  470   buf[tmpLen++] = ' ';
        INC     R0
        MOV     DPL,?XSP + 0
        MOV     DPH,?XSP + 1
        MOV     A,DPL
        ADD     A,R0
        MOV     DPL,A
        CLR     A
        ADDC    A,DPH
        MOV     DPH,A
        MOV     A,#0x20
        MOVX    @DPTR,A
//  471   err = (uint32)(value2);
//  472   _ltoa( err, &buf[tmpLen], format2 );
        ; Setup parameters for call to function _ltoa
        INC     R0
        LCALL   ??Subroutine12_0 & 0xFFFF
??CrossCallReturnLabel_8:
        LCALL   ?PUSH_XSTACK_I_TWO
          CFI CFA_XSP16 add(XSP16, 40)
        MOV     A,#0x2a
        LCALL   ?XSTACK_DISP0_8
        MOVX    A,@DPTR
        MOV     R1,A
        MOV     A,#0x28
        LCALL   ?XSTACK_DISP0_8
        MOVX    A,@DPTR
        MOV     ?V0,A
        INC     DPTR
        MOVX    A,@DPTR
        MOV     R2,?V0
        MOV     R3,A
        CLR     A
        MOV     R4,A
        MOV     R5,A
        LCALL   `??_ltoa::?relay`    ; Banked call to: _ltoa
        MOV     A,#0x2
        LCALL   ?DEALLOC_XSTACK8
          CFI CFA_XSP16 add(XSP16, 38)
//  473 
//  474   HalLcdWriteString( (char *)buf, line );		
        ; Setup parameters for call to function HalLcdWriteString
        MOV     A,#0x29
        LJMP    ?Subroutine3 & 0xFFFF
//  475 
//  476 #endif
//  477 }
          CFI EndBlock cfiBlock17
//  478 
//  479 #if (HAL_LCD == TRUE)

        RSEG BANKED_CODE:CODE:NOROOT(0)
//  480 void DelayMS(unsigned int msec)
DelayMS:
          CFI Block cfiBlock18 Using cfiCommon0
          CFI Function DelayMS
        CODE
//  481 { 
        ; Saved register size: 0
        ; Auto size: 0
        SJMP    ??DelayMS_0
//  482   unsigned int i;
//  483   while(msec >0)
//  484   {
//  485     for (i=0; i<8000; i++) asm("NOP"); //1ms
??DelayMS_1:
        MOV     R0,#0x40
        MOV     R1,#0x1f
??DelayMS_2:
        NOP
        MOV     A,R0
        ADD     A,#-0x1
        DEC     R0
        MOV     A,R1
        ADDC    A,#-0x1
        MOV     R1,A
        MOV     A,R0
        ORL     A,R1
        JNZ     ??DelayMS_2
//  486     msec--;
        MOV     A,R2
        ADD     A,#-0x1
        DEC     R2
        MOV     A,R3
        ADDC    A,#-0x1
        MOV     R3,A
//  487   }  
??DelayMS_0:
        MOV     A,R2
        ORL     A,R3
        JNZ     ??DelayMS_1
//  488 }
        LJMP    ?BRET
          CFI EndBlock cfiBlock18
//  489 
//  490 //option 1=第1行  2=第2行 其它类推

        RSEG BANKED_CODE:CODE:NOROOT(0)
//  491 void HalLcdWriteString (char *s, uint8 option)
HalLcdWriteString:
          CFI Block cfiBlock19 Using cfiCommon0
          CFI Function HalLcdWriteString
        CODE
//  492 {  
        FUNCALL HalLcdWriteString, DrawRectFill
        LOCFRAME ISTACK, 0, STACK
        LOCFRAME PSTACK, 0, STACK
        LOCFRAME XSTACK, 18, STACK
        LOCFRAME IOVERLAY, 0, STATIC
        LOCFRAME DOVERLAY, 0, STATIC
        ARGFRAME ISTACK, 0, STACK
        ARGFRAME PSTACK, 0, STACK
        ARGFRAME XSTACK, 18, STACK
        ARGFRAME IOVERLAY, 0, STATIC
        ARGFRAME DOVERLAY, 0, STATIC
        FUNCALL HalLcdWriteString, LCD_write_EN_string
        LOCFRAME ISTACK, 0, STACK
        LOCFRAME PSTACK, 0, STACK
        LOCFRAME XSTACK, 12, STACK
        LOCFRAME IOVERLAY, 0, STATIC
        LOCFRAME DOVERLAY, 0, STATIC
        ARGFRAME ISTACK, 0, STACK
        ARGFRAME PSTACK, 0, STACK
        ARGFRAME XSTACK, 12, STACK
        ARGFRAME IOVERLAY, 0, STATIC
        ARGFRAME DOVERLAY, 0, STATIC
        REQUIRE ?V0
        REQUIRE ?V2
        REQUIRE ?V3
        MOV     A,#-0xc
        LCALL   ?BANKED_ENTER_XDATA
          CFI DPH0 load(1, XDATA, add(CFA_XSP16, literal(-1)))
          CFI DPL0 load(1, XDATA, add(CFA_XSP16, literal(-2)))
          CFI ?BRET_EXT load(1, XDATA, add(CFA_XSP16, literal(-3)))
          CFI ?RET_HIGH load(1, XDATA, add(CFA_XSP16, literal(-4)))
          CFI ?RET_LOW load(1, XDATA, add(CFA_XSP16, literal(-5)))
          CFI R7 load(1, XDATA, add(CFA_XSP16, literal(-6)))
          CFI V3 load(1, XDATA, add(CFA_XSP16, literal(-7)))
          CFI V2 load(1, XDATA, add(CFA_XSP16, literal(-8)))
          CFI V1 load(1, XDATA, add(CFA_XSP16, literal(-9)))
          CFI V0 load(1, XDATA, add(CFA_XSP16, literal(-10)))
          CFI VB load(1, XDATA, add(CFA_XSP16, literal(-11)))
          CFI R6 load(1, XDATA, add(CFA_XSP16, literal(-12)))
          CFI CFA_SP SP+0
          CFI CFA_XSP16 add(XSP16, 12)
        ; Saved register size: 12
        ; Auto size: 0
        MOV     A,R2
        MOV     R6,A
        MOV     A,R3
        MOV     R7,A
        MOV     ?V0,R1
//  493   Color = BLUE;
        MOV     DPTR,#Color
        MOV     A,#0x1f
        MOVX    @DPTR,A
        INC     DPTR
        CLR     A
        MOVX    @DPTR,A
//  494   Color_BK = WHITE; 
        MOV     DPTR,#Color_BK
        MOV     A,#-0x1
        MOVX    @DPTR,A
        INC     DPTR
        MOVX    @DPTR,A
//  495   DrawRectFill(7,option*15+20,118,15,WHITE); 
        ; Setup parameters for call to function DrawRectFill
        MOV     ?V2,A
        MOV     ?V3,A
        MOV     R0,#?V2
        LCALL   ?PUSH_XSTACK_I_TWO
          CFI CFA_XSP16 add(XSP16, 14)
        MOV     ?V2,#0xf
        MOV     ?V3,#0x0
        MOV     R0,#?V2
        LCALL   ?PUSH_XSTACK_I_TWO
          CFI CFA_XSP16 add(XSP16, 16)
        MOV     ?V2,#0x76
        MOV     R0,#?V2
        LCALL   ?PUSH_XSTACK_I_TWO
          CFI CFA_XSP16 add(XSP16, 18)
        MOV     A,R1
        MOV     B,#0xf
        MUL     AB
        MOV     R1,B
        ADD     A,#0x14
        MOV     R4,A
        CLR     A
        ADDC    A,R1
        MOV     R5,A
        MOV     R2,#0x7
        MOV     R3,#0x0
        LCALL   `??DrawRectFill::?relay`; Banked call to: DrawRectFill
        MOV     A,#0x6
        LCALL   ?DEALLOC_XSTACK8
          CFI CFA_XSP16 add(XSP16, 12)
//  496   LCD_write_EN_string(7,option*15+20,(unsigned char *)s);
        ; Setup parameters for call to function LCD_write_EN_string
        MOV     A,R6
        MOV     R4,A
        MOV     A,R7
        MOV     R5,A
        MOV     B,#0xf
        MOV     A,?V0
        MUL     AB
        ADD     A,#0x14
        MOV     R2,A
        MOV     R1,#0x7
        LJMP    ?Subroutine4 & 0xFFFF
//  497 }
          CFI EndBlock cfiBlock19
//  498 
//  499 //向SPI总线传输一个8位数据

        RSEG BANKED_CODE:CODE:NOROOT(0)
//  500 void SendByte(unsigned char Data)
SendByte:
          CFI Block cfiBlock20 Using cfiCommon0
          CFI Function SendByte
        CODE
//  501 {
        ; Saved register size: 0
        ; Auto size: 0
//  502   unsigned char i=0;
//  503   
//  504   for(i=8;i>0;i--)
        MOV     R0,#0x8
//  505   {
//  506     if(Data&0x80)	
??SendByte_0:
        MOV     A,R1
        MOV     C,0xE0 /* A   */.7
        JNC     ??SendByte_1
//  507       LCD_SDA_SET;//输出数据
        SETB    0x90.3
        SJMP    ??SendByte_2
//  508     else 
//  509       LCD_SDA_CLR;
??SendByte_1:
        CLR     0x90.3
//  510     
//  511     LCD_SCL_CLR;       
??SendByte_2:
        CLR     0x90.2
//  512     LCD_SCL_SET;
        SETB    0x90.2
//  513     Data<<=1; 
        CLR     C
        RLC     A
        MOV     R1,A
//  514   }
        DEC     R0
        MOV     A,R0
        JNZ     ??SendByte_0
//  515 }
        LJMP    ?BRET
          CFI EndBlock cfiBlock20
        REQUIRE _A_P1
//  516 
//  517 //向SPI总线传输一个8位数据

        RSEG BANKED_CODE:CODE:NOROOT(0)
//  518 void  SPI_WriteData(unsigned char Data)
SPI_WriteData:
          CFI Block cfiBlock21 Using cfiCommon0
          CFI Function SPI_WriteData
        CODE
//  519 {
        ; Saved register size: 0
        ; Auto size: 0
//  520   unsigned char i=0;
//  521   
//  522   for(i=8;i>0;i--)
        MOV     R0,#0x8
//  523   {
//  524     if(Data&0x80)	
??SPI_WriteData_0:
        MOV     A,R1
        MOV     C,0xE0 /* A   */.7
        JNC     ??SPI_WriteData_1
//  525       LCD_SDA_SET;//输出数据
        SETB    0x90.3
        SJMP    ??SPI_WriteData_2
//  526     else 
//  527       LCD_SDA_CLR;
??SPI_WriteData_1:
        CLR     0x90.3
//  528     
//  529     LCD_SCL_CLR;       
??SPI_WriteData_2:
        CLR     0x90.2
//  530     LCD_SCL_SET;
        SETB    0x90.2
//  531     Data<<=1; 
        CLR     C
        RLC     A
        MOV     R1,A
//  532   }
        DEC     R0
        MOV     A,R0
        JNZ     ??SPI_WriteData_0
//  533 }
        LJMP    ?BRET
          CFI EndBlock cfiBlock21
        REQUIRE _A_P1
//  534 
//  535 //向液晶屏写一个8位指令

        RSEG BANKED_CODE:CODE:NOROOT(0)
//  536 void LCD_WrCmd(unsigned char Index)
LCD_WrCmd:
          CFI Block cfiBlock22 Using cfiCommon0
          CFI Function LCD_WrCmd
        CODE
//  537 { 
        FUNCALL LCD_WrCmd, SPI_WriteData
        LOCFRAME ISTACK, 0, STACK
        LOCFRAME PSTACK, 0, STACK
        LOCFRAME XSTACK, 9, STACK
        LOCFRAME IOVERLAY, 0, STATIC
        LOCFRAME DOVERLAY, 0, STATIC
        ARGFRAME ISTACK, 0, STACK
        ARGFRAME PSTACK, 0, STACK
        ARGFRAME XSTACK, 9, STACK
        ARGFRAME IOVERLAY, 0, STATIC
        ARGFRAME DOVERLAY, 0, STATIC
        MOV     A,#-0x9
        LCALL   ?BANKED_ENTER_XDATA
          CFI DPH0 load(1, XDATA, add(CFA_XSP16, literal(-1)))
          CFI DPL0 load(1, XDATA, add(CFA_XSP16, literal(-2)))
          CFI ?BRET_EXT load(1, XDATA, add(CFA_XSP16, literal(-3)))
          CFI ?RET_HIGH load(1, XDATA, add(CFA_XSP16, literal(-4)))
          CFI ?RET_LOW load(1, XDATA, add(CFA_XSP16, literal(-5)))
          CFI R7 load(1, XDATA, add(CFA_XSP16, literal(-6)))
          CFI V0 load(1, XDATA, add(CFA_XSP16, literal(-7)))
          CFI VB load(1, XDATA, add(CFA_XSP16, literal(-8)))
          CFI R6 load(1, XDATA, add(CFA_XSP16, literal(-9)))
          CFI CFA_SP SP+0
          CFI CFA_XSP16 add(XSP16, 9)
        ; Saved register size: 9
        ; Auto size: 0
//  538   //LCD_CS_CLR;  //ALD del  SPI写命令时序开始
//  539   LCD_DC_CLR;
        CLR     0x80.0
//  540   SPI_WriteData(Index);
        ; Setup parameters for call to function SPI_WriteData
        LJMP    ?Subroutine2 & 0xFFFF
          CFI EndBlock cfiBlock22
        REQUIRE _A_P0
//  541   //LCD_CS_SET;  //ALD del
//  542 }
//  543 
//  544 //向液晶屏写一个8位数据

        RSEG BANKED_CODE:CODE:NOROOT(0)
//  545 void LCD_WrDat(unsigned char Data)
LCD_WrDat:
          CFI Block cfiBlock23 Using cfiCommon0
          CFI Function LCD_WrDat
        CODE
//  546 {
        FUNCALL LCD_WrDat, SPI_WriteData
        LOCFRAME ISTACK, 0, STACK
        LOCFRAME PSTACK, 0, STACK
        LOCFRAME XSTACK, 9, STACK
        LOCFRAME IOVERLAY, 0, STATIC
        LOCFRAME DOVERLAY, 0, STATIC
        ARGFRAME ISTACK, 0, STACK
        ARGFRAME PSTACK, 0, STACK
        ARGFRAME XSTACK, 9, STACK
        ARGFRAME IOVERLAY, 0, STATIC
        ARGFRAME DOVERLAY, 0, STATIC
        MOV     A,#-0x9
        LCALL   ?BANKED_ENTER_XDATA
          CFI DPH0 load(1, XDATA, add(CFA_XSP16, literal(-1)))
          CFI DPL0 load(1, XDATA, add(CFA_XSP16, literal(-2)))
          CFI ?BRET_EXT load(1, XDATA, add(CFA_XSP16, literal(-3)))
          CFI ?RET_HIGH load(1, XDATA, add(CFA_XSP16, literal(-4)))
          CFI ?RET_LOW load(1, XDATA, add(CFA_XSP16, literal(-5)))
          CFI R7 load(1, XDATA, add(CFA_XSP16, literal(-6)))
          CFI V0 load(1, XDATA, add(CFA_XSP16, literal(-7)))
          CFI VB load(1, XDATA, add(CFA_XSP16, literal(-8)))
          CFI R6 load(1, XDATA, add(CFA_XSP16, literal(-9)))
          CFI CFA_SP SP+0
          CFI CFA_XSP16 add(XSP16, 9)
        ; Saved register size: 9
        ; Auto size: 0
//  547   //LCD_CS_CLR;  //ALD del
//  548   LCD_DC_SET;
        SETB    0x80.0
//  549   SPI_WriteData(Data);
        ; Setup parameters for call to function SPI_WriteData
        LJMP    ?Subroutine2 & 0xFFFF
          CFI EndBlock cfiBlock23
        REQUIRE _A_P0
//  550   //LCD_CS_SET;  //ALD del 
//  551 }
//  552 
//  553 //向液晶屏写一个16位数据

        RSEG BANKED_CODE:CODE:NOROOT(0)
//  554 void LCD_WriteData_16Bit(unsigned short Data)
LCD_WriteData_16Bit:
          CFI Block cfiBlock24 Using cfiCommon0
          CFI Function LCD_WriteData_16Bit
        CODE
//  555 {
        FUNCALL LCD_WriteData_16Bit, SPI_WriteData
        LOCFRAME ISTACK, 0, STACK
        LOCFRAME PSTACK, 0, STACK
        LOCFRAME XSTACK, 9, STACK
        LOCFRAME IOVERLAY, 0, STATIC
        LOCFRAME DOVERLAY, 0, STATIC
        ARGFRAME ISTACK, 0, STACK
        ARGFRAME PSTACK, 0, STACK
        ARGFRAME XSTACK, 9, STACK
        ARGFRAME IOVERLAY, 0, STATIC
        ARGFRAME DOVERLAY, 0, STATIC
        FUNCALL LCD_WriteData_16Bit, SPI_WriteData
        LOCFRAME ISTACK, 0, STACK
        LOCFRAME PSTACK, 0, STACK
        LOCFRAME XSTACK, 9, STACK
        LOCFRAME IOVERLAY, 0, STATIC
        LOCFRAME DOVERLAY, 0, STATIC
        ARGFRAME ISTACK, 0, STACK
        ARGFRAME PSTACK, 0, STACK
        ARGFRAME XSTACK, 9, STACK
        ARGFRAME IOVERLAY, 0, STATIC
        ARGFRAME DOVERLAY, 0, STATIC
        MOV     A,#-0x9
        LCALL   ?BANKED_ENTER_XDATA
          CFI DPH0 load(1, XDATA, add(CFA_XSP16, literal(-1)))
          CFI DPL0 load(1, XDATA, add(CFA_XSP16, literal(-2)))
          CFI ?BRET_EXT load(1, XDATA, add(CFA_XSP16, literal(-3)))
          CFI ?RET_HIGH load(1, XDATA, add(CFA_XSP16, literal(-4)))
          CFI ?RET_LOW load(1, XDATA, add(CFA_XSP16, literal(-5)))
          CFI R7 load(1, XDATA, add(CFA_XSP16, literal(-6)))
          CFI V0 load(1, XDATA, add(CFA_XSP16, literal(-7)))
          CFI VB load(1, XDATA, add(CFA_XSP16, literal(-8)))
          CFI R6 load(1, XDATA, add(CFA_XSP16, literal(-9)))
          CFI CFA_SP SP+0
          CFI CFA_XSP16 add(XSP16, 9)
        ; Saved register size: 9
        ; Auto size: 0
        MOV     A,R2
        MOV     R6,A
        MOV     A,R3
//  556   //LCD_CS_CLR;  //ALD del
//  557   LCD_DC_SET;
        SETB    0x80.0
//  558   SPI_WriteData(Data>>8); //写入高8位数据
        ; Setup parameters for call to function SPI_WriteData
        MOV     R1,A
        LCALL   `??SPI_WriteData::?relay`; Banked call to: SPI_WriteData
//  559   SPI_WriteData(Data); 	  //写入低8位数据
        ; Setup parameters for call to function SPI_WriteData
        MOV     A,R6
        MOV     R1,A
        LJMP    ?Subroutine2 & 0xFFFF
          CFI EndBlock cfiBlock24
        REQUIRE _A_P0
//  560   //LCD_CS_SET;  //ALD del 
//  561 }
//  562 
//  563 /****************************************************************************
//  564 * 名    称: LCD_write_byte()
//  565 * 功    能: 数据到LCD 
//  566 * 入口参数: data    ―写入的数据
//  567 *           command ―写数据/命令选择  
//  568 * 出口参数: 无 
//  569 ****************************************************************************/

        RSEG BANKED_CODE:CODE:NOROOT(0)
//  570 static void LCD_write_byte(unsigned char data, unsigned char command)
LCD_write_byte:
          CFI Block cfiBlock25 Using cfiCommon0
          CFI Function LCD_write_byte
        CODE
//  571 {
        FUNCALL LCD_write_byte, LCD_WrCmd
        LOCFRAME ISTACK, 0, STACK
        LOCFRAME PSTACK, 0, STACK
        LOCFRAME XSTACK, 9, STACK
        LOCFRAME IOVERLAY, 0, STATIC
        LOCFRAME DOVERLAY, 0, STATIC
        ARGFRAME ISTACK, 0, STACK
        ARGFRAME PSTACK, 0, STACK
        ARGFRAME XSTACK, 9, STACK
        ARGFRAME IOVERLAY, 0, STATIC
        ARGFRAME DOVERLAY, 0, STATIC
        FUNCALL LCD_write_byte, LCD_WrDat
        LOCFRAME ISTACK, 0, STACK
        LOCFRAME PSTACK, 0, STACK
        LOCFRAME XSTACK, 9, STACK
        LOCFRAME IOVERLAY, 0, STATIC
        LOCFRAME DOVERLAY, 0, STATIC
        ARGFRAME ISTACK, 0, STACK
        ARGFRAME PSTACK, 0, STACK
        ARGFRAME XSTACK, 9, STACK
        ARGFRAME IOVERLAY, 0, STATIC
        ARGFRAME DOVERLAY, 0, STATIC
        MOV     A,#-0x9
        LCALL   ?BANKED_ENTER_XDATA
          CFI DPH0 load(1, XDATA, add(CFA_XSP16, literal(-1)))
          CFI DPL0 load(1, XDATA, add(CFA_XSP16, literal(-2)))
          CFI ?BRET_EXT load(1, XDATA, add(CFA_XSP16, literal(-3)))
          CFI ?RET_HIGH load(1, XDATA, add(CFA_XSP16, literal(-4)))
          CFI ?RET_LOW load(1, XDATA, add(CFA_XSP16, literal(-5)))
          CFI R7 load(1, XDATA, add(CFA_XSP16, literal(-6)))
          CFI V0 load(1, XDATA, add(CFA_XSP16, literal(-7)))
          CFI VB load(1, XDATA, add(CFA_XSP16, literal(-8)))
          CFI R6 load(1, XDATA, add(CFA_XSP16, literal(-9)))
          CFI CFA_SP SP+0
          CFI CFA_XSP16 add(XSP16, 9)
        ; Saved register size: 9
        ; Auto size: 0
        MOV     A,R2
//  572   ////LCD_CS_CLR ;// 使能LCD
//  573   if (command == 0)
        JNZ     ??LCD_write_byte_0
//  574     LCD_WrCmd(data); // 传送命令
        ; Setup parameters for call to function LCD_WrCmd
        LCALL   `??LCD_WrCmd::?relay`; Banked call to: LCD_WrCmd
        SJMP    ??LCD_write_byte_1
//  575   else
//  576     LCD_WrDat(data) ; // 传送数据
??LCD_write_byte_0:
        ; Setup parameters for call to function LCD_WrDat
        LCALL   `??LCD_WrDat::?relay`; Banked call to: LCD_WrDat
//  577   //SendByte(data);
//  578   //LCD_CS_SET; // 关闭LCD
//  579   //LCD_DC_SET;	
//  580 }
??LCD_write_byte_1:
        LJMP    ??Subroutine10_0 & 0xFFFF
          CFI EndBlock cfiBlock25
//  581 
//  582 // 复位lcd

        RSEG BANKED_CODE:CODE:NOROOT(0)
//  583 void Lcd_Reset(void)
Lcd_Reset:
          CFI Block cfiBlock26 Using cfiCommon0
          CFI Function Lcd_Reset
        CODE
//  584 {
        FUNCALL Lcd_Reset, DelayMS
        LOCFRAME ISTACK, 2, STACK
        LOCFRAME PSTACK, 0, STACK
        LOCFRAME XSTACK, 0, STACK
        LOCFRAME IOVERLAY, 0, STATIC
        LOCFRAME DOVERLAY, 0, STATIC
        ARGFRAME ISTACK, 2, STACK
        ARGFRAME PSTACK, 0, STACK
        ARGFRAME XSTACK, 0, STACK
        ARGFRAME IOVERLAY, 0, STATIC
        ARGFRAME DOVERLAY, 0, STATIC
        FUNCALL Lcd_Reset, DelayMS
        LOCFRAME ISTACK, 2, STACK
        LOCFRAME PSTACK, 0, STACK
        LOCFRAME XSTACK, 0, STACK
        LOCFRAME IOVERLAY, 0, STATIC
        LOCFRAME DOVERLAY, 0, STATIC
        ARGFRAME ISTACK, 2, STACK
        ARGFRAME PSTACK, 0, STACK
        ARGFRAME XSTACK, 0, STACK
        ARGFRAME IOVERLAY, 0, STATIC
        ARGFRAME DOVERLAY, 0, STATIC
        PUSH    DPL
          CFI DPL0 Frame(CFA_SP, 4)
          CFI CFA_SP SP+-4
        PUSH    DPH
          CFI DPH0 Frame(CFA_SP, 5)
          CFI CFA_SP SP+-5
        ; Saved register size: 2
        ; Auto size: 0
//  585   LCD_RST_CLR;
        CLR     0x90.7
//  586   DelayMS(110);
        ; Setup parameters for call to function DelayMS
        MOV     R2,#0x6e
        MOV     R3,#0x0
        LCALL   `??DelayMS::?relay`  ; Banked call to: DelayMS
//  587   LCD_RST_SET;
        SETB    0x90.7
//  588   DelayMS(50);
        ; Setup parameters for call to function DelayMS
        MOV     R2,#0x32
        MOV     R3,#0x0
        LCALL   `??DelayMS::?relay`  ; Banked call to: DelayMS
//  589 }
        LJMP    ?Subroutine0 & 0xFFFF
          CFI EndBlock cfiBlock26
        REQUIRE _A_P1
//  590 
//  591 /****************************************************************************
//  592 * 名    称: LCD_set_window()
//  593 * 功    能: 设置显示窗口
//  594 * 入口参数: X - 显示窗口左上角横坐标      Y ―显示窗口左上角纵坐标
//  595 *           Width ―显示窗口宽度          Height ―显示窗口高度
//  596 * 出口参数: 无
//  597 ****************************************************************************/

        RSEG BANKED_CODE:CODE:NOROOT(0)
//  598 static void LCD_set_window(unsigned int X    , unsigned int Y, 
LCD_set_window:
          CFI Block cfiBlock27 Using cfiCommon0
          CFI Function LCD_set_window
        CODE
//  599                            unsigned int Width, unsigned int Height)
//  600 {
        FUNCALL LCD_set_window, LCD_write_byte
        LOCFRAME ISTACK, 0, STACK
        LOCFRAME PSTACK, 0, STACK
        LOCFRAME XSTACK, 12, STACK
        LOCFRAME IOVERLAY, 0, STATIC
        LOCFRAME DOVERLAY, 0, STATIC
        ARGFRAME ISTACK, 0, STACK
        ARGFRAME PSTACK, 0, STACK
        ARGFRAME XSTACK, 12, STACK
        ARGFRAME IOVERLAY, 0, STATIC
        ARGFRAME DOVERLAY, 0, STATIC
        FUNCALL LCD_set_window, LCD_write_byte
        LOCFRAME ISTACK, 0, STACK
        LOCFRAME PSTACK, 0, STACK
        LOCFRAME XSTACK, 12, STACK
        LOCFRAME IOVERLAY, 0, STATIC
        LOCFRAME DOVERLAY, 0, STATIC
        ARGFRAME ISTACK, 0, STACK
        ARGFRAME PSTACK, 0, STACK
        ARGFRAME XSTACK, 12, STACK
        ARGFRAME IOVERLAY, 0, STATIC
        ARGFRAME DOVERLAY, 0, STATIC
        FUNCALL LCD_set_window, LCD_write_byte
        LOCFRAME ISTACK, 0, STACK
        LOCFRAME PSTACK, 0, STACK
        LOCFRAME XSTACK, 12, STACK
        LOCFRAME IOVERLAY, 0, STATIC
        LOCFRAME DOVERLAY, 0, STATIC
        ARGFRAME ISTACK, 0, STACK
        ARGFRAME PSTACK, 0, STACK
        ARGFRAME XSTACK, 12, STACK
        ARGFRAME IOVERLAY, 0, STATIC
        ARGFRAME DOVERLAY, 0, STATIC
        FUNCALL LCD_set_window, LCD_write_byte
        LOCFRAME ISTACK, 0, STACK
        LOCFRAME PSTACK, 0, STACK
        LOCFRAME XSTACK, 12, STACK
        LOCFRAME IOVERLAY, 0, STATIC
        LOCFRAME DOVERLAY, 0, STATIC
        ARGFRAME ISTACK, 0, STACK
        ARGFRAME PSTACK, 0, STACK
        ARGFRAME XSTACK, 12, STACK
        ARGFRAME IOVERLAY, 0, STATIC
        ARGFRAME DOVERLAY, 0, STATIC
        FUNCALL LCD_set_window, LCD_write_byte
        LOCFRAME ISTACK, 0, STACK
        LOCFRAME PSTACK, 0, STACK
        LOCFRAME XSTACK, 12, STACK
        LOCFRAME IOVERLAY, 0, STATIC
        LOCFRAME DOVERLAY, 0, STATIC
        ARGFRAME ISTACK, 0, STACK
        ARGFRAME PSTACK, 0, STACK
        ARGFRAME XSTACK, 12, STACK
        ARGFRAME IOVERLAY, 0, STATIC
        ARGFRAME DOVERLAY, 0, STATIC
        FUNCALL LCD_set_window, LCD_write_byte
        LOCFRAME ISTACK, 0, STACK
        LOCFRAME PSTACK, 0, STACK
        LOCFRAME XSTACK, 12, STACK
        LOCFRAME IOVERLAY, 0, STATIC
        LOCFRAME DOVERLAY, 0, STATIC
        ARGFRAME ISTACK, 0, STACK
        ARGFRAME PSTACK, 0, STACK
        ARGFRAME XSTACK, 12, STACK
        ARGFRAME IOVERLAY, 0, STATIC
        ARGFRAME DOVERLAY, 0, STATIC
        FUNCALL LCD_set_window, LCD_write_byte
        LOCFRAME ISTACK, 0, STACK
        LOCFRAME PSTACK, 0, STACK
        LOCFRAME XSTACK, 12, STACK
        LOCFRAME IOVERLAY, 0, STATIC
        LOCFRAME DOVERLAY, 0, STATIC
        ARGFRAME ISTACK, 0, STACK
        ARGFRAME PSTACK, 0, STACK
        ARGFRAME XSTACK, 12, STACK
        ARGFRAME IOVERLAY, 0, STATIC
        ARGFRAME DOVERLAY, 0, STATIC
        FUNCALL LCD_set_window, LCD_write_byte
        LOCFRAME ISTACK, 0, STACK
        LOCFRAME PSTACK, 0, STACK
        LOCFRAME XSTACK, 12, STACK
        LOCFRAME IOVERLAY, 0, STATIC
        LOCFRAME DOVERLAY, 0, STATIC
        ARGFRAME ISTACK, 0, STACK
        ARGFRAME PSTACK, 0, STACK
        ARGFRAME XSTACK, 12, STACK
        ARGFRAME IOVERLAY, 0, STATIC
        ARGFRAME DOVERLAY, 0, STATIC
        FUNCALL LCD_set_window, LCD_write_byte
        LOCFRAME ISTACK, 0, STACK
        LOCFRAME PSTACK, 0, STACK
        LOCFRAME XSTACK, 12, STACK
        LOCFRAME IOVERLAY, 0, STATIC
        LOCFRAME DOVERLAY, 0, STATIC
        ARGFRAME ISTACK, 0, STACK
        ARGFRAME PSTACK, 0, STACK
        ARGFRAME XSTACK, 12, STACK
        ARGFRAME IOVERLAY, 0, STATIC
        ARGFRAME DOVERLAY, 0, STATIC
        FUNCALL LCD_set_window, LCD_write_byte
        LOCFRAME ISTACK, 0, STACK
        LOCFRAME PSTACK, 0, STACK
        LOCFRAME XSTACK, 12, STACK
        LOCFRAME IOVERLAY, 0, STATIC
        LOCFRAME DOVERLAY, 0, STATIC
        ARGFRAME ISTACK, 0, STACK
        ARGFRAME PSTACK, 0, STACK
        ARGFRAME XSTACK, 12, STACK
        ARGFRAME IOVERLAY, 0, STATIC
        ARGFRAME DOVERLAY, 0, STATIC
        FUNCALL LCD_set_window, LCD_write_byte
        LOCFRAME ISTACK, 0, STACK
        LOCFRAME PSTACK, 0, STACK
        LOCFRAME XSTACK, 12, STACK
        LOCFRAME IOVERLAY, 0, STATIC
        LOCFRAME DOVERLAY, 0, STATIC
        ARGFRAME ISTACK, 0, STACK
        ARGFRAME PSTACK, 0, STACK
        ARGFRAME XSTACK, 12, STACK
        ARGFRAME IOVERLAY, 0, STATIC
        ARGFRAME DOVERLAY, 0, STATIC
        REQUIRE ?V0
        REQUIRE ?V1
        REQUIRE ?V2
        REQUIRE ?V3
        MOV     A,#-0xc
        LCALL   ?BANKED_ENTER_XDATA
          CFI DPH0 load(1, XDATA, add(CFA_XSP16, literal(-1)))
          CFI DPL0 load(1, XDATA, add(CFA_XSP16, literal(-2)))
          CFI ?BRET_EXT load(1, XDATA, add(CFA_XSP16, literal(-3)))
          CFI ?RET_HIGH load(1, XDATA, add(CFA_XSP16, literal(-4)))
          CFI ?RET_LOW load(1, XDATA, add(CFA_XSP16, literal(-5)))
          CFI R7 load(1, XDATA, add(CFA_XSP16, literal(-6)))
          CFI V3 load(1, XDATA, add(CFA_XSP16, literal(-7)))
          CFI V2 load(1, XDATA, add(CFA_XSP16, literal(-8)))
          CFI V1 load(1, XDATA, add(CFA_XSP16, literal(-9)))
          CFI V0 load(1, XDATA, add(CFA_XSP16, literal(-10)))
          CFI VB load(1, XDATA, add(CFA_XSP16, literal(-11)))
          CFI R6 load(1, XDATA, add(CFA_XSP16, literal(-12)))
          CFI CFA_SP SP+0
          CFI CFA_XSP16 add(XSP16, 12)
        ; Saved register size: 12
        ; Auto size: 0
        MOV     A,R2
        MOV     R6,A
        MOV     A,R3
        MOV     R7,A
        MOV     ?V0,R4
        MOV     ?V1,R5
//  601   LCD_write_byte(0x2A,LCD_COMMAND);         //列地址设置命令
        ; Setup parameters for call to function LCD_write_byte
        MOV     R2,#0x0
        MOV     R1,#0x2a
        LCALL   `??LCD_write_byte::?relay`; Banked call to: LCD_write_byte
//  602   LCD_write_byte(X>>8,LCD_DATA) ;           //设置显示窗口左上角横坐标高位
        ; Setup parameters for call to function LCD_write_byte
        MOV     R2,#0x1
        MOV     A,R7
        MOV     R1,A
        LCALL   `??LCD_write_byte::?relay`; Banked call to: LCD_write_byte
//  603   LCD_write_byte((X+2)&0xFF,LCD_DATA);      //设置显示窗口左上角横坐标低位 	
        ; Setup parameters for call to function LCD_write_byte
        MOV     R2,#0x1
        MOV     A,R6
        ADD     A,#0x2
        MOV     R1,A
        LCALL   `??LCD_write_byte::?relay`; Banked call to: LCD_write_byte
        MOV     A,#0xc
        LCALL   ?XSTACK_DISP0_8
        MOVX    A,@DPTR
        MOV     ?V2,A
        INC     DPTR
        MOVX    A,@DPTR
        MOV     ?V3,A
//  604   LCD_write_byte((X+Width+1)>>8,LCD_DATA);  //设置宽度高位 	
        ; Setup parameters for call to function LCD_write_byte
        MOV     R2,#0x1
        MOV     A,R6
        ADD     A,?V2
        MOV     R0,A
        MOV     A,R7
        ADDC    A,?V3
        MOV     R1,A
        MOV     A,R0
        ADD     A,R2
        JNC     ??LCD_set_window_0
        INC     R1
??LCD_set_window_0:
        LCALL   `??LCD_write_byte::?relay`; Banked call to: LCD_write_byte
//  605   LCD_write_byte((X+Width+1)&0xFF,LCD_DATA);// 设置宽度低位 	
        ; Setup parameters for call to function LCD_write_byte
        MOV     R2,#0x1
        MOV     A,R6
        ADD     A,?V2
        ADD     A,R2
        MOV     R1,A
        LCALL   `??LCD_write_byte::?relay`; Banked call to: LCD_write_byte
//  606   
//  607   LCD_write_byte(0x2B,LCD_COMMAND);         //行地址设置命令
        ; Setup parameters for call to function LCD_write_byte
        MOV     R2,#0x0
        MOV     R1,#0x2b
        LCALL   `??LCD_write_byte::?relay`; Banked call to: LCD_write_byte
//  608   LCD_write_byte(Y>>8,LCD_DATA) ;           //设置显示窗口左上角纵坐标高位
        ; Setup parameters for call to function LCD_write_byte
        MOV     R2,#0x1
        MOV     R1,?V1
        LCALL   `??LCD_write_byte::?relay`; Banked call to: LCD_write_byte
//  609   LCD_write_byte((Y+3)&0xFF,LCD_DATA);      //设置显示窗口左上角纵坐标低位 
        ; Setup parameters for call to function LCD_write_byte
        MOV     R2,#0x1
        MOV     A,?V0
        ADD     A,#0x3
        MOV     R1,A
        LCALL   `??LCD_write_byte::?relay`; Banked call to: LCD_write_byte
        MOV     A,#0xe
        LCALL   ?XSTACK_DISP0_8
        MOVX    A,@DPTR
        MOV     R6,A
        INC     DPTR
        MOVX    A,@DPTR
        MOV     R7,A
//  610   LCD_write_byte((Y+Height+2)>>8,LCD_DATA); // 设置显示窗口高度高位 	
        ; Setup parameters for call to function LCD_write_byte
        MOV     R2,#0x1
        MOV     A,?V0
        ADD     A,R6
        MOV     R0,A
        MOV     A,?V1
        ADDC    A,R7
        MOV     R1,A
        MOV     A,R0
        ADD     A,#0x2
        JNC     ??LCD_set_window_1
        INC     R1
??LCD_set_window_1:
        LCALL   `??LCD_write_byte::?relay`; Banked call to: LCD_write_byte
//  611   LCD_write_byte((Y+Height+2)&0xFF,LCD_DATA);// 设置显示窗口高度低位 	  
        ; Setup parameters for call to function LCD_write_byte
        MOV     R2,#0x1
        MOV     A,?V0
        ADD     A,R6
        ADD     A,#0x2
        MOV     R1,A
        LCALL   `??LCD_write_byte::?relay`; Banked call to: LCD_write_byte
//  612   LCD_write_byte(0x2C,LCD_COMMAND) ;
        ; Setup parameters for call to function LCD_write_byte
        MOV     R2,#0x0
        MOV     R1,#0x2c
        LCALL   `??LCD_write_byte::?relay`; Banked call to: LCD_write_byte
//  613 }
        SJMP    ??Subroutine13_0
          CFI EndBlock cfiBlock27

        RSEG BANKED_CODE:CODE:NOROOT(0)
?Subroutine4:
          CFI Block cfiBlock28 Using cfiCommon0
          CFI NoFunction
          CFI CFA_SP SP+0
          CFI CFA_XSP16 add(XSP16, 12)
          CFI VB load(1, XDATA, add(CFA_XSP16, literal(-11)))
          CFI DPL0 load(1, XDATA, add(CFA_XSP16, literal(-2)))
          CFI DPH0 load(1, XDATA, add(CFA_XSP16, literal(-1)))
          CFI R6 load(1, XDATA, add(CFA_XSP16, literal(-12)))
          CFI R7 load(1, XDATA, add(CFA_XSP16, literal(-6)))
          CFI V0 load(1, XDATA, add(CFA_XSP16, literal(-10)))
          CFI V1 load(1, XDATA, add(CFA_XSP16, literal(-9)))
          CFI V2 load(1, XDATA, add(CFA_XSP16, literal(-8)))
          CFI V3 load(1, XDATA, add(CFA_XSP16, literal(-7)))
          CFI ?BRET_EXT load(1, XDATA, add(CFA_XSP16, literal(-3)))
          CFI ?RET_HIGH load(1, XDATA, add(CFA_XSP16, literal(-4)))
          CFI ?RET_LOW load(1, XDATA, add(CFA_XSP16, literal(-5)))
        LCALL   `??LCD_write_EN_string::?relay`; Banked call to: LCD_write_EN_string
          CFI EndBlock cfiBlock28
        REQUIRE ??Subroutine13_0
        ; // Fall through to label ??Subroutine13_0

        RSEG BANKED_CODE:CODE:NOROOT(0)
??Subroutine13_0:
          CFI Block cfiBlock29 Using cfiCommon0
          CFI NoFunction
          CFI CFA_SP SP+0
          CFI CFA_XSP16 add(XSP16, 12)
          CFI VB load(1, XDATA, add(CFA_XSP16, literal(-11)))
          CFI DPL0 load(1, XDATA, add(CFA_XSP16, literal(-2)))
          CFI DPH0 load(1, XDATA, add(CFA_XSP16, literal(-1)))
          CFI R6 load(1, XDATA, add(CFA_XSP16, literal(-12)))
          CFI R7 load(1, XDATA, add(CFA_XSP16, literal(-6)))
          CFI V0 load(1, XDATA, add(CFA_XSP16, literal(-10)))
          CFI V1 load(1, XDATA, add(CFA_XSP16, literal(-9)))
          CFI V2 load(1, XDATA, add(CFA_XSP16, literal(-8)))
          CFI V3 load(1, XDATA, add(CFA_XSP16, literal(-7)))
          CFI ?BRET_EXT load(1, XDATA, add(CFA_XSP16, literal(-3)))
          CFI ?RET_HIGH load(1, XDATA, add(CFA_XSP16, literal(-4)))
          CFI ?RET_LOW load(1, XDATA, add(CFA_XSP16, literal(-5)))
        MOV     R7,#0x4
        LJMP    ?BANKED_LEAVE_XDATA
          CFI EndBlock cfiBlock29
//  614 
//  615 /****************************************************************************
//  616 * 名    称: DrawPixel()
//  617 * 功    能: 在指定位置以指定颜色显示像素
//  618 ****************************************************************************/

        RSEG BANKED_CODE:CODE:NOROOT(0)
//  619 void DrawPixel(unsigned int x, unsigned int y, unsigned int color)
DrawPixel:
          CFI Block cfiBlock30 Using cfiCommon0
          CFI Function DrawPixel
        CODE
//  620 {
        FUNCALL DrawPixel, LCD_write_byte
        LOCFRAME ISTACK, 0, STACK
        LOCFRAME PSTACK, 0, STACK
        LOCFRAME XSTACK, 9, STACK
        LOCFRAME IOVERLAY, 0, STATIC
        LOCFRAME DOVERLAY, 0, STATIC
        ARGFRAME ISTACK, 0, STACK
        ARGFRAME PSTACK, 0, STACK
        ARGFRAME XSTACK, 9, STACK
        ARGFRAME IOVERLAY, 0, STATIC
        ARGFRAME DOVERLAY, 0, STATIC
        FUNCALL DrawPixel, LCD_write_byte
        LOCFRAME ISTACK, 0, STACK
        LOCFRAME PSTACK, 0, STACK
        LOCFRAME XSTACK, 9, STACK
        LOCFRAME IOVERLAY, 0, STATIC
        LOCFRAME DOVERLAY, 0, STATIC
        ARGFRAME ISTACK, 0, STACK
        ARGFRAME PSTACK, 0, STACK
        ARGFRAME XSTACK, 9, STACK
        ARGFRAME IOVERLAY, 0, STATIC
        ARGFRAME DOVERLAY, 0, STATIC
        MOV     A,#-0x9
        LCALL   ?BANKED_ENTER_XDATA
          CFI DPH0 load(1, XDATA, add(CFA_XSP16, literal(-1)))
          CFI DPL0 load(1, XDATA, add(CFA_XSP16, literal(-2)))
          CFI ?BRET_EXT load(1, XDATA, add(CFA_XSP16, literal(-3)))
          CFI ?RET_HIGH load(1, XDATA, add(CFA_XSP16, literal(-4)))
          CFI ?RET_LOW load(1, XDATA, add(CFA_XSP16, literal(-5)))
          CFI R7 load(1, XDATA, add(CFA_XSP16, literal(-6)))
          CFI V0 load(1, XDATA, add(CFA_XSP16, literal(-7)))
          CFI VB load(1, XDATA, add(CFA_XSP16, literal(-8)))
          CFI R6 load(1, XDATA, add(CFA_XSP16, literal(-9)))
          CFI CFA_SP SP+0
          CFI CFA_XSP16 add(XSP16, 9)
        ; Saved register size: 9
        ; Auto size: 0
        MOV     A,#0x9
        LCALL   ?XSTACK_DISP0_8
        MOVX    A,@DPTR
        MOV     R6,A
        INC     DPTR
        MOVX    A,@DPTR
//  621   //LCD_set_XY(x,y);  //设定显示位置 andy
//  622   LCD_write_byte(color>>8,LCD_DATA);  //发送显示颜色数据高位字节
        ; Setup parameters for call to function LCD_write_byte
        MOV     R2,#0x1
        MOV     R1,A
        LCALL   `??LCD_write_byte::?relay`; Banked call to: LCD_write_byte
//  623   LCD_write_byte(color&0xFF,LCD_DATA);//发送显示颜色数据低位字节
        ; Setup parameters for call to function LCD_write_byte
        MOV     R2,#0x1
        MOV     A,R6
        MOV     R1,A
        LCALL   `??LCD_write_byte::?relay`; Banked call to: LCD_write_byte
//  624 }
        LJMP    ??Subroutine10_0 & 0xFFFF
          CFI EndBlock cfiBlock30
//  625 
//  626 /****************************************************************************
//  627 * 名    称: DrawVerticalLine()
//  628 * 功    能: 在指定位置以指定颜色画垂直线
//  629 * 入口参数: X - 垂直线起始位置横坐标      Y ―垂直线起始位置纵坐标
//  630 *           Length ―垂直线长度           Color ―垂直线颜色
//  631 * 出口参数: 无
//  632 ****************************************************************************/

        RSEG BANKED_CODE:CODE:NOROOT(0)
//  633 void DrawVerticalLine(unsigned int x, unsigned int y, 
DrawVerticalLine:
          CFI Block cfiBlock31 Using cfiCommon0
          CFI Function DrawVerticalLine
        CODE
//  634                       unsigned int Length,unsigned int Color)               
//  635 {
        FUNCALL DrawVerticalLine, LCD_set_window
        LOCFRAME ISTACK, 0, STACK
        LOCFRAME PSTACK, 0, STACK
        LOCFRAME XSTACK, 18, STACK
        LOCFRAME IOVERLAY, 0, STATIC
        LOCFRAME DOVERLAY, 0, STATIC
        ARGFRAME ISTACK, 0, STACK
        ARGFRAME PSTACK, 0, STACK
        ARGFRAME XSTACK, 18, STACK
        ARGFRAME IOVERLAY, 0, STATIC
        ARGFRAME DOVERLAY, 0, STATIC
        FUNCALL DrawVerticalLine, LCD_write_byte
        LOCFRAME ISTACK, 0, STACK
        LOCFRAME PSTACK, 0, STACK
        LOCFRAME XSTACK, 14, STACK
        LOCFRAME IOVERLAY, 0, STATIC
        LOCFRAME DOVERLAY, 0, STATIC
        ARGFRAME ISTACK, 0, STACK
        ARGFRAME PSTACK, 0, STACK
        ARGFRAME XSTACK, 14, STACK
        ARGFRAME IOVERLAY, 0, STATIC
        ARGFRAME DOVERLAY, 0, STATIC
        FUNCALL DrawVerticalLine, LCD_write_byte
        LOCFRAME ISTACK, 0, STACK
        LOCFRAME PSTACK, 0, STACK
        LOCFRAME XSTACK, 14, STACK
        LOCFRAME IOVERLAY, 0, STATIC
        LOCFRAME DOVERLAY, 0, STATIC
        ARGFRAME ISTACK, 0, STACK
        ARGFRAME PSTACK, 0, STACK
        ARGFRAME XSTACK, 14, STACK
        ARGFRAME IOVERLAY, 0, STATIC
        ARGFRAME DOVERLAY, 0, STATIC
        REQUIRE ?V0
        REQUIRE ?V1
        REQUIRE ?V2
        REQUIRE ?V3
        REQUIRE ?V4
        REQUIRE ?V5
        MOV     A,#-0xe
        LCALL   ?BANKED_ENTER_XDATA
          CFI DPH0 load(1, XDATA, add(CFA_XSP16, literal(-1)))
          CFI DPL0 load(1, XDATA, add(CFA_XSP16, literal(-2)))
          CFI ?BRET_EXT load(1, XDATA, add(CFA_XSP16, literal(-3)))
          CFI ?RET_HIGH load(1, XDATA, add(CFA_XSP16, literal(-4)))
          CFI ?RET_LOW load(1, XDATA, add(CFA_XSP16, literal(-5)))
          CFI R7 load(1, XDATA, add(CFA_XSP16, literal(-6)))
          CFI V5 load(1, XDATA, add(CFA_XSP16, literal(-7)))
          CFI V4 load(1, XDATA, add(CFA_XSP16, literal(-8)))
          CFI V3 load(1, XDATA, add(CFA_XSP16, literal(-9)))
          CFI V2 load(1, XDATA, add(CFA_XSP16, literal(-10)))
          CFI V1 load(1, XDATA, add(CFA_XSP16, literal(-11)))
          CFI V0 load(1, XDATA, add(CFA_XSP16, literal(-12)))
          CFI VB load(1, XDATA, add(CFA_XSP16, literal(-13)))
          CFI R6 load(1, XDATA, add(CFA_XSP16, literal(-14)))
          CFI CFA_SP SP+0
          CFI CFA_XSP16 add(XSP16, 14)
        ; Saved register size: 14
        ; Auto size: 0
//  636   register int  index = 0;
        MOV     ?V0,#0x0
        MOV     ?V1,#0x0
        MOV     A,#0x10
        LCALL   ?XSTACK_DISP0_8
        LCALL   ?Subroutine8 & 0xFFFF
//  637   register char ch,cl;
//  638   
//  639   ch = (unsigned char)(Color>>8);
//  640   cl = (unsigned char)(Color);
??CrossCallReturnLabel_2:
        LCALL   ?XSTACK_DISP0_8
        MOVX    A,@DPTR
        MOV     R6,A
        INC     DPTR
        MOVX    A,@DPTR
        MOV     R7,A
//  641   LCD_set_window(x,y,1,Length);
        ; Setup parameters for call to function LCD_set_window
        MOV     ?V4,R6
        MOV     ?V5,R7
        MOV     R0,#?V4
        LCALL   ?PUSH_XSTACK_I_TWO
          CFI CFA_XSP16 add(XSP16, 16)
        MOV     ?V4,#0x1
        MOV     ?V5,#0x0
        MOV     R0,#?V4
        LCALL   ?PUSH_XSTACK_I_TWO
          CFI CFA_XSP16 add(XSP16, 18)
        LCALL   `??LCD_set_window::?relay`; Banked call to: LCD_set_window
        MOV     A,#0x4
        LCALL   ?DEALLOC_XSTACK8
          CFI CFA_XSP16 add(XSP16, 14)
//  642   for(index=0;index<Length;index++)
        SJMP    ??DrawVerticalLine_0
//  643   {
//  644   LCD_write_byte(ch,LCD_DATA) ;
??DrawVerticalLine_1:
        ; Setup parameters for call to function LCD_write_byte
        MOV     R2,#0x1
        MOV     R1,?V3
        LCALL   `??LCD_write_byte::?relay`; Banked call to: LCD_write_byte
//  645   LCD_write_byte(cl,LCD_DATA) ;
        ; Setup parameters for call to function LCD_write_byte
        MOV     R2,#0x1
        MOV     R1,?V2
        LCALL   `??LCD_write_byte::?relay`; Banked call to: LCD_write_byte
//  646   }
        INC     ?V0
        MOV     A,?V0
        JNZ     ??DrawVerticalLine_0
        INC     ?V1
??DrawVerticalLine_0:
        CLR     C
        MOV     A,?V0
        SUBB    A,R6
        MOV     A,?V1
        SUBB    A,R7
        JC      ??DrawVerticalLine_1
//  647 }
        SJMP    ??Subroutine14_0
          CFI EndBlock cfiBlock31

        RSEG BANKED_CODE:CODE:NOROOT(0)
?Subroutine1:
          CFI Block cfiBlock32 Using cfiCommon0
          CFI NoFunction
          CFI CFA_SP SP+0
          CFI CFA_XSP16 add(XSP16, 39)
          CFI VB load(1, XDATA, add(CFA_XSP16, literal(-13)))
          CFI DPL0 load(1, XDATA, add(CFA_XSP16, literal(-2)))
          CFI DPH0 load(1, XDATA, add(CFA_XSP16, literal(-1)))
          CFI R6 load(1, XDATA, add(CFA_XSP16, literal(-14)))
          CFI R7 load(1, XDATA, add(CFA_XSP16, literal(-6)))
          CFI V0 load(1, XDATA, add(CFA_XSP16, literal(-12)))
          CFI V1 load(1, XDATA, add(CFA_XSP16, literal(-11)))
          CFI V2 load(1, XDATA, add(CFA_XSP16, literal(-10)))
          CFI V3 load(1, XDATA, add(CFA_XSP16, literal(-9)))
          CFI V4 load(1, XDATA, add(CFA_XSP16, literal(-8)))
          CFI V5 load(1, XDATA, add(CFA_XSP16, literal(-7)))
          CFI ?BRET_EXT load(1, XDATA, add(CFA_XSP16, literal(-3)))
          CFI ?RET_HIGH load(1, XDATA, add(CFA_XSP16, literal(-4)))
          CFI ?RET_LOW load(1, XDATA, add(CFA_XSP16, literal(-5)))
          CFI Invalid
        LCALL   ?DEALLOC_XSTACK8
          CFI EndBlock cfiBlock32
        REQUIRE ??Subroutine14_0
        ; // Fall through to label ??Subroutine14_0

        RSEG BANKED_CODE:CODE:NOROOT(0)
??Subroutine14_0:
          CFI Block cfiBlock33 Using cfiCommon0
          CFI NoFunction
          CFI CFA_SP SP+0
          CFI CFA_XSP16 add(XSP16, 14)
          CFI VB load(1, XDATA, add(CFA_XSP16, literal(-13)))
          CFI DPL0 load(1, XDATA, add(CFA_XSP16, literal(-2)))
          CFI DPH0 load(1, XDATA, add(CFA_XSP16, literal(-1)))
          CFI R6 load(1, XDATA, add(CFA_XSP16, literal(-14)))
          CFI R7 load(1, XDATA, add(CFA_XSP16, literal(-6)))
          CFI V0 load(1, XDATA, add(CFA_XSP16, literal(-12)))
          CFI V1 load(1, XDATA, add(CFA_XSP16, literal(-11)))
          CFI V2 load(1, XDATA, add(CFA_XSP16, literal(-10)))
          CFI V3 load(1, XDATA, add(CFA_XSP16, literal(-9)))
          CFI V4 load(1, XDATA, add(CFA_XSP16, literal(-8)))
          CFI V5 load(1, XDATA, add(CFA_XSP16, literal(-7)))
          CFI ?BRET_EXT load(1, XDATA, add(CFA_XSP16, literal(-3)))
          CFI ?RET_HIGH load(1, XDATA, add(CFA_XSP16, literal(-4)))
          CFI ?RET_LOW load(1, XDATA, add(CFA_XSP16, literal(-5)))
        MOV     R7,#0x6
        LJMP    ?BANKED_LEAVE_XDATA
          CFI EndBlock cfiBlock33
//  648 
//  649 /****************************************************************************
//  650 * 名    称: DrawHorizonLine()
//  651 * 功    能: 在指定位置以指定颜色画水平线
//  652 * 入口参数: X - 水平线起始位置横坐标      Y ―水平线起始位置纵坐标
//  653 *           Length ―水平线长度           Color ―水平线颜色
//  654 * 出口参数: 无
//  655 ****************************************************************************/

        RSEG BANKED_CODE:CODE:NOROOT(0)
//  656 void DrawHorizonLine(unsigned int x, unsigned int y, 
DrawHorizonLine:
          CFI Block cfiBlock34 Using cfiCommon0
          CFI Function DrawHorizonLine
        CODE
//  657                      unsigned int Length,unsigned int Color)               
//  658 {
        FUNCALL DrawHorizonLine, LCD_set_window
        LOCFRAME ISTACK, 0, STACK
        LOCFRAME PSTACK, 0, STACK
        LOCFRAME XSTACK, 18, STACK
        LOCFRAME IOVERLAY, 0, STATIC
        LOCFRAME DOVERLAY, 0, STATIC
        ARGFRAME ISTACK, 0, STACK
        ARGFRAME PSTACK, 0, STACK
        ARGFRAME XSTACK, 18, STACK
        ARGFRAME IOVERLAY, 0, STATIC
        ARGFRAME DOVERLAY, 0, STATIC
        FUNCALL DrawHorizonLine, LCD_write_byte
        LOCFRAME ISTACK, 0, STACK
        LOCFRAME PSTACK, 0, STACK
        LOCFRAME XSTACK, 14, STACK
        LOCFRAME IOVERLAY, 0, STATIC
        LOCFRAME DOVERLAY, 0, STATIC
        ARGFRAME ISTACK, 0, STACK
        ARGFRAME PSTACK, 0, STACK
        ARGFRAME XSTACK, 14, STACK
        ARGFRAME IOVERLAY, 0, STATIC
        ARGFRAME DOVERLAY, 0, STATIC
        FUNCALL DrawHorizonLine, LCD_write_byte
        LOCFRAME ISTACK, 0, STACK
        LOCFRAME PSTACK, 0, STACK
        LOCFRAME XSTACK, 14, STACK
        LOCFRAME IOVERLAY, 0, STATIC
        LOCFRAME DOVERLAY, 0, STATIC
        ARGFRAME ISTACK, 0, STACK
        ARGFRAME PSTACK, 0, STACK
        ARGFRAME XSTACK, 14, STACK
        ARGFRAME IOVERLAY, 0, STATIC
        ARGFRAME DOVERLAY, 0, STATIC
        REQUIRE ?V0
        REQUIRE ?V1
        REQUIRE ?V2
        REQUIRE ?V3
        REQUIRE ?V4
        REQUIRE ?V5
        MOV     A,#-0xe
        LCALL   ?BANKED_ENTER_XDATA
          CFI DPH0 load(1, XDATA, add(CFA_XSP16, literal(-1)))
          CFI DPL0 load(1, XDATA, add(CFA_XSP16, literal(-2)))
          CFI ?BRET_EXT load(1, XDATA, add(CFA_XSP16, literal(-3)))
          CFI ?RET_HIGH load(1, XDATA, add(CFA_XSP16, literal(-4)))
          CFI ?RET_LOW load(1, XDATA, add(CFA_XSP16, literal(-5)))
          CFI R7 load(1, XDATA, add(CFA_XSP16, literal(-6)))
          CFI V5 load(1, XDATA, add(CFA_XSP16, literal(-7)))
          CFI V4 load(1, XDATA, add(CFA_XSP16, literal(-8)))
          CFI V3 load(1, XDATA, add(CFA_XSP16, literal(-9)))
          CFI V2 load(1, XDATA, add(CFA_XSP16, literal(-10)))
          CFI V1 load(1, XDATA, add(CFA_XSP16, literal(-11)))
          CFI V0 load(1, XDATA, add(CFA_XSP16, literal(-12)))
          CFI VB load(1, XDATA, add(CFA_XSP16, literal(-13)))
          CFI R6 load(1, XDATA, add(CFA_XSP16, literal(-14)))
          CFI CFA_SP SP+0
          CFI CFA_XSP16 add(XSP16, 14)
        ; Saved register size: 14
        ; Auto size: 0
//  659   register int  index = 0;
        MOV     ?V0,#0x0
        MOV     ?V1,#0x0
        MOV     A,#0x10
        LCALL   ?XSTACK_DISP0_8
        LCALL   ?Subroutine8 & 0xFFFF
//  660   register char ch,cl;
//  661   
//  662   ch = (unsigned char)(Color>>8);
//  663   cl = (unsigned char)(Color);
??CrossCallReturnLabel_3:
        LCALL   ?XSTACK_DISP0_8
        MOVX    A,@DPTR
        MOV     R6,A
        INC     DPTR
        MOVX    A,@DPTR
        MOV     R7,A
//  664   LCD_set_window(x,y,Length,1);
        ; Setup parameters for call to function LCD_set_window
        MOV     ?V4,#0x1
        MOV     ?V5,#0x0
        MOV     R0,#?V4
        LCALL   ?PUSH_XSTACK_I_TWO
          CFI CFA_XSP16 add(XSP16, 16)
        MOV     ?V4,R6
        MOV     ?V5,R7
        MOV     R0,#?V4
        LCALL   ?PUSH_XSTACK_I_TWO
          CFI CFA_XSP16 add(XSP16, 18)
        LCALL   `??LCD_set_window::?relay`; Banked call to: LCD_set_window
        MOV     A,#0x4
        LCALL   ?DEALLOC_XSTACK8
          CFI CFA_XSP16 add(XSP16, 14)
//  665   for(index=0;index<Length;index++)
        SJMP    ??DrawHorizonLine_0
//  666   {
//  667     LCD_write_byte(ch,LCD_DATA);
??DrawHorizonLine_1:
        ; Setup parameters for call to function LCD_write_byte
        MOV     R2,#0x1
        MOV     R1,?V3
        LCALL   `??LCD_write_byte::?relay`; Banked call to: LCD_write_byte
//  668     LCD_write_byte(cl,LCD_DATA);
        ; Setup parameters for call to function LCD_write_byte
        MOV     R2,#0x1
        MOV     R1,?V2
        LCALL   `??LCD_write_byte::?relay`; Banked call to: LCD_write_byte
//  669   }
        INC     ?V0
        MOV     A,?V0
        JNZ     ??DrawHorizonLine_0
        INC     ?V1
??DrawHorizonLine_0:
        CLR     C
        MOV     A,?V0
        SUBB    A,R6
        MOV     A,?V1
        SUBB    A,R7
        JC      ??DrawHorizonLine_1
//  670 }
        SJMP    ??Subroutine14_0
          CFI EndBlock cfiBlock34

        RSEG BANKED_CODE:CODE:NOROOT(0)
?Subroutine8:
          CFI Block cfiCond35 Using cfiCommon0
          CFI Function DrawVerticalLine
          CFI Conditional ??CrossCallReturnLabel_2
          CFI R6 load(1, XDATA, add(CFA_XSP16, literal(-14)))
          CFI VB load(1, XDATA, add(CFA_XSP16, literal(-13)))
          CFI V0 load(1, XDATA, add(CFA_XSP16, literal(-12)))
          CFI V1 load(1, XDATA, add(CFA_XSP16, literal(-11)))
          CFI V2 load(1, XDATA, add(CFA_XSP16, literal(-10)))
          CFI V3 load(1, XDATA, add(CFA_XSP16, literal(-9)))
          CFI V4 load(1, XDATA, add(CFA_XSP16, literal(-8)))
          CFI V5 load(1, XDATA, add(CFA_XSP16, literal(-7)))
          CFI R7 load(1, XDATA, add(CFA_XSP16, literal(-6)))
          CFI ?RET_LOW load(1, XDATA, add(CFA_XSP16, literal(-5)))
          CFI ?RET_HIGH load(1, XDATA, add(CFA_XSP16, literal(-4)))
          CFI ?BRET_EXT load(1, XDATA, add(CFA_XSP16, literal(-3)))
          CFI DPL0 load(1, XDATA, add(CFA_XSP16, literal(-2)))
          CFI DPH0 load(1, XDATA, add(CFA_XSP16, literal(-1)))
          CFI CFA_SP SP+-2
          CFI CFA_XSP16 add(XSP16, 14)
          CFI Block cfiCond36 Using cfiCommon0
          CFI (cfiCond36) Function DrawHorizonLine
          CFI (cfiCond36) Conditional ??CrossCallReturnLabel_3
          CFI (cfiCond36) R6 load(1, XDATA, add(CFA_XSP16, literal(-14)))
          CFI (cfiCond36) VB load(1, XDATA, add(CFA_XSP16, literal(-13)))
          CFI (cfiCond36) V0 load(1, XDATA, add(CFA_XSP16, literal(-12)))
          CFI (cfiCond36) V1 load(1, XDATA, add(CFA_XSP16, literal(-11)))
          CFI (cfiCond36) V2 load(1, XDATA, add(CFA_XSP16, literal(-10)))
          CFI (cfiCond36) V3 load(1, XDATA, add(CFA_XSP16, literal(-9)))
          CFI (cfiCond36) V4 load(1, XDATA, add(CFA_XSP16, literal(-8)))
          CFI (cfiCond36) V5 load(1, XDATA, add(CFA_XSP16, literal(-7)))
          CFI (cfiCond36) R7 load(1, XDATA, add(CFA_XSP16, literal(-6)))
          CFI (cfiCond36) ?RET_LOW load(1, XDATA, add(CFA_XSP16, literal(-5)))
          CFI (cfiCond36) ?RET_HIGH load(1, XDATA, add(CFA_XSP16, literal(-4)))
          CFI (cfiCond36) ?BRET_EXT load(1, XDATA, add(CFA_XSP16, literal(-3)))
          CFI (cfiCond36) DPL0 load(1, XDATA, add(CFA_XSP16, literal(-2)))
          CFI (cfiCond36) DPH0 load(1, XDATA, add(CFA_XSP16, literal(-1)))
          CFI (cfiCond36) CFA_SP SP+-2
          CFI (cfiCond36) CFA_XSP16 add(XSP16, 14)
          CFI Block cfiPicker37 Using cfiCommon1
          CFI (cfiPicker37) NoFunction
          CFI (cfiPicker37) Picker
        MOVX    A,@DPTR
        MOV     R6,A
        INC     DPTR
        MOVX    A,@DPTR
        MOV     ?V3,A
        MOV     A,R6
        MOV     ?V2,A
        MOV     A,#0xe
        RET
          CFI EndBlock cfiCond35
          CFI EndBlock cfiCond36
          CFI EndBlock cfiPicker37
//  671 
//  672 /****************************************************************************
//  673 * 名    称: DrawRect()
//  674 * 功    能: 在指定位置以指定颜色画矩形
//  675 * 入口参数: X - 矩形起始位置横坐标      Y ―矩形起始位置纵坐标
//  676 *           Width  ―矩形宽度           Height ―矩形高度                   
//  677 *           Color  ―矩形颜色             
//  678 * 出口参数: 无
//  679 ****************************************************************************/

        RSEG BANKED_CODE:CODE:NOROOT(0)
//  680 void DrawRect(unsigned int Xpos, unsigned int Ypos, unsigned int Width, 
DrawRect:
          CFI Block cfiBlock38 Using cfiCommon0
          CFI Function DrawRect
        CODE
//  681               unsigned int Height,unsigned Color)
//  682 {
        FUNCALL DrawRect, DrawHorizonLine
        LOCFRAME ISTACK, 0, STACK
        LOCFRAME PSTACK, 0, STACK
        LOCFRAME XSTACK, 20, STACK
        LOCFRAME IOVERLAY, 0, STATIC
        LOCFRAME DOVERLAY, 0, STATIC
        ARGFRAME ISTACK, 0, STACK
        ARGFRAME PSTACK, 0, STACK
        ARGFRAME XSTACK, 20, STACK
        ARGFRAME IOVERLAY, 0, STATIC
        ARGFRAME DOVERLAY, 0, STATIC
        FUNCALL DrawRect, DrawHorizonLine
        LOCFRAME ISTACK, 0, STACK
        LOCFRAME PSTACK, 0, STACK
        LOCFRAME XSTACK, 20, STACK
        LOCFRAME IOVERLAY, 0, STATIC
        LOCFRAME DOVERLAY, 0, STATIC
        ARGFRAME ISTACK, 0, STACK
        ARGFRAME PSTACK, 0, STACK
        ARGFRAME XSTACK, 20, STACK
        ARGFRAME IOVERLAY, 0, STATIC
        ARGFRAME DOVERLAY, 0, STATIC
        FUNCALL DrawRect, DrawVerticalLine
        LOCFRAME ISTACK, 0, STACK
        LOCFRAME PSTACK, 0, STACK
        LOCFRAME XSTACK, 20, STACK
        LOCFRAME IOVERLAY, 0, STATIC
        LOCFRAME DOVERLAY, 0, STATIC
        ARGFRAME ISTACK, 0, STACK
        ARGFRAME PSTACK, 0, STACK
        ARGFRAME XSTACK, 20, STACK
        ARGFRAME IOVERLAY, 0, STATIC
        ARGFRAME DOVERLAY, 0, STATIC
        FUNCALL DrawRect, DrawVerticalLine
        LOCFRAME ISTACK, 0, STACK
        LOCFRAME PSTACK, 0, STACK
        LOCFRAME XSTACK, 20, STACK
        LOCFRAME IOVERLAY, 0, STATIC
        LOCFRAME DOVERLAY, 0, STATIC
        ARGFRAME ISTACK, 0, STACK
        ARGFRAME PSTACK, 0, STACK
        ARGFRAME XSTACK, 20, STACK
        ARGFRAME IOVERLAY, 0, STATIC
        ARGFRAME DOVERLAY, 0, STATIC
        REQUIRE ?V0
        REQUIRE ?V1
        REQUIRE ?V2
        REQUIRE ?V3
        REQUIRE ?V4
        REQUIRE ?V5
        MOV     A,#-0xe
        LCALL   ?BANKED_ENTER_XDATA
          CFI DPH0 load(1, XDATA, add(CFA_XSP16, literal(-1)))
          CFI DPL0 load(1, XDATA, add(CFA_XSP16, literal(-2)))
          CFI ?BRET_EXT load(1, XDATA, add(CFA_XSP16, literal(-3)))
          CFI ?RET_HIGH load(1, XDATA, add(CFA_XSP16, literal(-4)))
          CFI ?RET_LOW load(1, XDATA, add(CFA_XSP16, literal(-5)))
          CFI R7 load(1, XDATA, add(CFA_XSP16, literal(-6)))
          CFI V5 load(1, XDATA, add(CFA_XSP16, literal(-7)))
          CFI V4 load(1, XDATA, add(CFA_XSP16, literal(-8)))
          CFI V3 load(1, XDATA, add(CFA_XSP16, literal(-9)))
          CFI V2 load(1, XDATA, add(CFA_XSP16, literal(-10)))
          CFI V1 load(1, XDATA, add(CFA_XSP16, literal(-11)))
          CFI V0 load(1, XDATA, add(CFA_XSP16, literal(-12)))
          CFI VB load(1, XDATA, add(CFA_XSP16, literal(-13)))
          CFI R6 load(1, XDATA, add(CFA_XSP16, literal(-14)))
          CFI CFA_SP SP+0
          CFI CFA_XSP16 add(XSP16, 14)
        ; Saved register size: 14
        ; Auto size: 2
        MOV     A,#-0x2
        LCALL   ?ALLOC_XSTACK8
          CFI CFA_XSP16 add(XSP16, 16)
        MOV     DPL,?XSP + 0
        MOV     DPH,?XSP + 1
        MOV     A,R4
        MOVX    @DPTR,A
        INC     DPTR
        MOV     A,R5
        MOVX    @DPTR,A
        MOV     A,R2
        MOV     R6,A
        MOV     A,R3
        MOV     R7,A
        MOV     A,#0x10
        LCALL   ?XSTACK_DISP0_8
        MOVX    A,@DPTR
        MOV     ?V4,A
        INC     DPTR
        MOVX    A,@DPTR
        MOV     ?V5,A
        MOV     A,#0x14
        LCALL   ?XSTACK_DISP0_8
        MOVX    A,@DPTR
        MOV     ?V0,A
        INC     DPTR
        MOVX    A,@DPTR
        MOV     ?V1,A
//  683   DrawHorizonLine(Xpos, Ypos, Width, Color) ;
        ; Setup parameters for call to function DrawHorizonLine
        MOV     R0,#?V0
        LCALL   ?PUSH_XSTACK_I_TWO
          CFI CFA_XSP16 add(XSP16, 18)
        MOV     R0,#?V4
        LCALL   ?PUSH_XSTACK_I_TWO
          CFI CFA_XSP16 add(XSP16, 20)
        MOV     A,#0x4
        LCALL   ?XSTACK_DISP0_8
        MOVX    A,@DPTR
        MOV     R4,A
        INC     DPTR
        MOVX    A,@DPTR
        MOV     R5,A
        LCALL   `??DrawHorizonLine::?relay`; Banked call to: DrawHorizonLine
        MOV     A,#0x4
        LCALL   ?DEALLOC_XSTACK8
          CFI CFA_XSP16 add(XSP16, 16)
        MOV     A,#0x12
        LCALL   ?XSTACK_DISP0_8
        MOVX    A,@DPTR
        MOV     ?V2,A
        INC     DPTR
        MOVX    A,@DPTR
        MOV     ?V3,A
//  684   DrawHorizonLine(Xpos, (Ypos + Height), Width, Color) ;
        ; Setup parameters for call to function DrawHorizonLine
        MOV     R0,#?V0
        LCALL   ?PUSH_XSTACK_I_TWO
          CFI CFA_XSP16 add(XSP16, 18)
        MOV     R0,#?V4
        LCALL   ?PUSH_XSTACK_I_TWO
          CFI CFA_XSP16 add(XSP16, 20)
        MOV     A,#0x4
        LCALL   ?XSTACK_DISP0_8
        MOVX    A,@DPTR
        ADD     A,?V2
        MOV     R4,A
        INC     DPTR
        MOVX    A,@DPTR
        ADDC    A,?V3
        MOV     R5,A
        MOV     A,R6
        MOV     R2,A
        MOV     A,R7
        MOV     R3,A
        LCALL   `??DrawHorizonLine::?relay`; Banked call to: DrawHorizonLine
        MOV     A,#0x4
        LCALL   ?DEALLOC_XSTACK8
          CFI CFA_XSP16 add(XSP16, 16)
//  685   DrawVerticalLine(Xpos, Ypos, Height, Color) ;
        ; Setup parameters for call to function DrawVerticalLine
        MOV     R0,#?V0
        LCALL   ?PUSH_XSTACK_I_TWO
          CFI CFA_XSP16 add(XSP16, 18)
        MOV     R0,#?V2
        LCALL   ?PUSH_XSTACK_I_TWO
          CFI CFA_XSP16 add(XSP16, 20)
        MOV     A,#0x4
        LCALL   ?XSTACK_DISP0_8
        MOVX    A,@DPTR
        MOV     R4,A
        INC     DPTR
        MOVX    A,@DPTR
        MOV     R5,A
        MOV     A,R6
        MOV     R2,A
        MOV     A,R7
        MOV     R3,A
        LCALL   `??DrawVerticalLine::?relay`; Banked call to: DrawVerticalLine
        MOV     A,#0x4
        LCALL   ?DEALLOC_XSTACK8
          CFI CFA_XSP16 add(XSP16, 16)
//  686   DrawVerticalLine((Xpos+Width-1) ,Ypos, Height, Color);
        ; Setup parameters for call to function DrawVerticalLine
        MOV     R0,#?V0
        LCALL   ?PUSH_XSTACK_I_TWO
          CFI CFA_XSP16 add(XSP16, 18)
        MOV     R0,#?V2
        LCALL   ?PUSH_XSTACK_I_TWO
          CFI CFA_XSP16 add(XSP16, 20)
        MOV     A,#0x4
        LCALL   ?XSTACK_DISP0_8
        MOVX    A,@DPTR
        MOV     R4,A
        INC     DPTR
        MOVX    A,@DPTR
        MOV     R5,A
        MOV     A,R6
        ADD     A,?V4
        MOV     R0,A
        MOV     A,R7
        ADDC    A,?V5
        MOV     R1,A
        MOV     A,R0
        ADD     A,#-0x1
        MOV     R2,A
        MOV     A,R1
        ADDC    A,#-0x1
        MOV     R3,A
        LCALL   `??DrawVerticalLine::?relay`; Banked call to: DrawVerticalLine
        MOV     A,#0x4
        LCALL   ?DEALLOC_XSTACK8
          CFI CFA_XSP16 add(XSP16, 16)
//  687 }
        MOV     A,#0x2
        LJMP    ?Subroutine1 & 0xFFFF
          CFI EndBlock cfiBlock38
//  688 
//  689 /****************************************************************************
//  690 * 名    称: DrawRectFill()
//  691 * 功    能: 在指定位置以指定颜色画矩形
//  692 * 入口参数: X - 矩形起始位置横坐标      Y ―矩形起始位置纵坐标
//  693 *           Width  ―矩形宽度           Height ―矩形高度                   
//  694 *           Color  ―矩形填充颜色             
//  695 * 出口参数: 无
//  696 ****************************************************************************/

        RSEG BANKED_CODE:CODE:NOROOT(0)
//  697 void DrawRectFill(unsigned int Xpos  , unsigned int Ypos, unsigned int Width, 
DrawRectFill:
          CFI Block cfiBlock39 Using cfiCommon0
          CFI Function DrawRectFill
        CODE
//  698                   unsigned int Height, unsigned Color                        )
//  699 {
        FUNCALL DrawRectFill, LCD_set_window
        LOCFRAME ISTACK, 0, STACK
        LOCFRAME PSTACK, 0, STACK
        LOCFRAME XSTACK, 20, STACK
        LOCFRAME IOVERLAY, 0, STATIC
        LOCFRAME DOVERLAY, 0, STATIC
        ARGFRAME ISTACK, 0, STACK
        ARGFRAME PSTACK, 0, STACK
        ARGFRAME XSTACK, 20, STACK
        ARGFRAME IOVERLAY, 0, STATIC
        ARGFRAME DOVERLAY, 0, STATIC
        FUNCALL DrawRectFill, LCD_write_byte
        LOCFRAME ISTACK, 0, STACK
        LOCFRAME PSTACK, 0, STACK
        LOCFRAME XSTACK, 16, STACK
        LOCFRAME IOVERLAY, 0, STATIC
        LOCFRAME DOVERLAY, 0, STATIC
        ARGFRAME ISTACK, 0, STACK
        ARGFRAME PSTACK, 0, STACK
        ARGFRAME XSTACK, 16, STACK
        ARGFRAME IOVERLAY, 0, STATIC
        ARGFRAME DOVERLAY, 0, STATIC
        FUNCALL DrawRectFill, SendByte
        LOCFRAME ISTACK, 0, STACK
        LOCFRAME PSTACK, 0, STACK
        LOCFRAME XSTACK, 16, STACK
        LOCFRAME IOVERLAY, 0, STATIC
        LOCFRAME DOVERLAY, 0, STATIC
        ARGFRAME ISTACK, 0, STACK
        ARGFRAME PSTACK, 0, STACK
        ARGFRAME XSTACK, 16, STACK
        ARGFRAME IOVERLAY, 0, STATIC
        ARGFRAME DOVERLAY, 0, STATIC
        FUNCALL DrawRectFill, SendByte
        LOCFRAME ISTACK, 0, STACK
        LOCFRAME PSTACK, 0, STACK
        LOCFRAME XSTACK, 16, STACK
        LOCFRAME IOVERLAY, 0, STATIC
        LOCFRAME DOVERLAY, 0, STATIC
        ARGFRAME ISTACK, 0, STACK
        ARGFRAME PSTACK, 0, STACK
        ARGFRAME XSTACK, 16, STACK
        ARGFRAME IOVERLAY, 0, STATIC
        ARGFRAME DOVERLAY, 0, STATIC
        FUNCALL DrawRectFill, SendByte
        LOCFRAME ISTACK, 0, STACK
        LOCFRAME PSTACK, 0, STACK
        LOCFRAME XSTACK, 16, STACK
        LOCFRAME IOVERLAY, 0, STATIC
        LOCFRAME DOVERLAY, 0, STATIC
        ARGFRAME ISTACK, 0, STACK
        ARGFRAME PSTACK, 0, STACK
        ARGFRAME XSTACK, 16, STACK
        ARGFRAME IOVERLAY, 0, STATIC
        ARGFRAME DOVERLAY, 0, STATIC
        FUNCALL DrawRectFill, SendByte
        LOCFRAME ISTACK, 0, STACK
        LOCFRAME PSTACK, 0, STACK
        LOCFRAME XSTACK, 16, STACK
        LOCFRAME IOVERLAY, 0, STATIC
        LOCFRAME DOVERLAY, 0, STATIC
        ARGFRAME ISTACK, 0, STACK
        ARGFRAME PSTACK, 0, STACK
        ARGFRAME XSTACK, 16, STACK
        ARGFRAME IOVERLAY, 0, STATIC
        ARGFRAME DOVERLAY, 0, STATIC
        FUNCALL DrawRectFill, SendByte
        LOCFRAME ISTACK, 0, STACK
        LOCFRAME PSTACK, 0, STACK
        LOCFRAME XSTACK, 16, STACK
        LOCFRAME IOVERLAY, 0, STATIC
        LOCFRAME DOVERLAY, 0, STATIC
        ARGFRAME ISTACK, 0, STACK
        ARGFRAME PSTACK, 0, STACK
        ARGFRAME XSTACK, 16, STACK
        ARGFRAME IOVERLAY, 0, STATIC
        ARGFRAME DOVERLAY, 0, STATIC
        FUNCALL DrawRectFill, SendByte
        LOCFRAME ISTACK, 0, STACK
        LOCFRAME PSTACK, 0, STACK
        LOCFRAME XSTACK, 16, STACK
        LOCFRAME IOVERLAY, 0, STATIC
        LOCFRAME DOVERLAY, 0, STATIC
        ARGFRAME ISTACK, 0, STACK
        ARGFRAME PSTACK, 0, STACK
        ARGFRAME XSTACK, 16, STACK
        ARGFRAME IOVERLAY, 0, STATIC
        ARGFRAME DOVERLAY, 0, STATIC
        FUNCALL DrawRectFill, SendByte
        LOCFRAME ISTACK, 0, STACK
        LOCFRAME PSTACK, 0, STACK
        LOCFRAME XSTACK, 16, STACK
        LOCFRAME IOVERLAY, 0, STATIC
        LOCFRAME DOVERLAY, 0, STATIC
        ARGFRAME ISTACK, 0, STACK
        ARGFRAME PSTACK, 0, STACK
        ARGFRAME XSTACK, 16, STACK
        ARGFRAME IOVERLAY, 0, STATIC
        ARGFRAME DOVERLAY, 0, STATIC
        FUNCALL DrawRectFill, SendByte
        LOCFRAME ISTACK, 0, STACK
        LOCFRAME PSTACK, 0, STACK
        LOCFRAME XSTACK, 16, STACK
        LOCFRAME IOVERLAY, 0, STATIC
        LOCFRAME DOVERLAY, 0, STATIC
        ARGFRAME ISTACK, 0, STACK
        ARGFRAME PSTACK, 0, STACK
        ARGFRAME XSTACK, 16, STACK
        ARGFRAME IOVERLAY, 0, STATIC
        ARGFRAME DOVERLAY, 0, STATIC
        FUNCALL DrawRectFill, SendByte
        LOCFRAME ISTACK, 0, STACK
        LOCFRAME PSTACK, 0, STACK
        LOCFRAME XSTACK, 16, STACK
        LOCFRAME IOVERLAY, 0, STATIC
        LOCFRAME DOVERLAY, 0, STATIC
        ARGFRAME ISTACK, 0, STACK
        ARGFRAME PSTACK, 0, STACK
        ARGFRAME XSTACK, 16, STACK
        ARGFRAME IOVERLAY, 0, STATIC
        ARGFRAME DOVERLAY, 0, STATIC
        FUNCALL DrawRectFill, SendByte
        LOCFRAME ISTACK, 0, STACK
        LOCFRAME PSTACK, 0, STACK
        LOCFRAME XSTACK, 16, STACK
        LOCFRAME IOVERLAY, 0, STATIC
        LOCFRAME DOVERLAY, 0, STATIC
        ARGFRAME ISTACK, 0, STACK
        ARGFRAME PSTACK, 0, STACK
        ARGFRAME XSTACK, 16, STACK
        ARGFRAME IOVERLAY, 0, STATIC
        ARGFRAME DOVERLAY, 0, STATIC
        FUNCALL DrawRectFill, SendByte
        LOCFRAME ISTACK, 0, STACK
        LOCFRAME PSTACK, 0, STACK
        LOCFRAME XSTACK, 16, STACK
        LOCFRAME IOVERLAY, 0, STATIC
        LOCFRAME DOVERLAY, 0, STATIC
        ARGFRAME ISTACK, 0, STACK
        ARGFRAME PSTACK, 0, STACK
        ARGFRAME XSTACK, 16, STACK
        ARGFRAME IOVERLAY, 0, STATIC
        ARGFRAME DOVERLAY, 0, STATIC
        FUNCALL DrawRectFill, SendByte
        LOCFRAME ISTACK, 0, STACK
        LOCFRAME PSTACK, 0, STACK
        LOCFRAME XSTACK, 16, STACK
        LOCFRAME IOVERLAY, 0, STATIC
        LOCFRAME DOVERLAY, 0, STATIC
        ARGFRAME ISTACK, 0, STACK
        ARGFRAME PSTACK, 0, STACK
        ARGFRAME XSTACK, 16, STACK
        ARGFRAME IOVERLAY, 0, STATIC
        ARGFRAME DOVERLAY, 0, STATIC
        FUNCALL DrawRectFill, SendByte
        LOCFRAME ISTACK, 0, STACK
        LOCFRAME PSTACK, 0, STACK
        LOCFRAME XSTACK, 16, STACK
        LOCFRAME IOVERLAY, 0, STATIC
        LOCFRAME DOVERLAY, 0, STATIC
        ARGFRAME ISTACK, 0, STACK
        ARGFRAME PSTACK, 0, STACK
        ARGFRAME XSTACK, 16, STACK
        ARGFRAME IOVERLAY, 0, STATIC
        ARGFRAME DOVERLAY, 0, STATIC
        FUNCALL DrawRectFill, SendByte
        LOCFRAME ISTACK, 0, STACK
        LOCFRAME PSTACK, 0, STACK
        LOCFRAME XSTACK, 16, STACK
        LOCFRAME IOVERLAY, 0, STATIC
        LOCFRAME DOVERLAY, 0, STATIC
        ARGFRAME ISTACK, 0, STACK
        ARGFRAME PSTACK, 0, STACK
        ARGFRAME XSTACK, 16, STACK
        ARGFRAME IOVERLAY, 0, STATIC
        ARGFRAME DOVERLAY, 0, STATIC
        FUNCALL DrawRectFill, SendByte
        LOCFRAME ISTACK, 0, STACK
        LOCFRAME PSTACK, 0, STACK
        LOCFRAME XSTACK, 16, STACK
        LOCFRAME IOVERLAY, 0, STATIC
        LOCFRAME DOVERLAY, 0, STATIC
        ARGFRAME ISTACK, 0, STACK
        ARGFRAME PSTACK, 0, STACK
        ARGFRAME XSTACK, 16, STACK
        ARGFRAME IOVERLAY, 0, STATIC
        ARGFRAME DOVERLAY, 0, STATIC
        FUNCALL DrawRectFill, SendByte
        LOCFRAME ISTACK, 0, STACK
        LOCFRAME PSTACK, 0, STACK
        LOCFRAME XSTACK, 16, STACK
        LOCFRAME IOVERLAY, 0, STATIC
        LOCFRAME DOVERLAY, 0, STATIC
        ARGFRAME ISTACK, 0, STACK
        ARGFRAME PSTACK, 0, STACK
        ARGFRAME XSTACK, 16, STACK
        ARGFRAME IOVERLAY, 0, STATIC
        ARGFRAME DOVERLAY, 0, STATIC
        FUNCALL DrawRectFill, SendByte
        LOCFRAME ISTACK, 0, STACK
        LOCFRAME PSTACK, 0, STACK
        LOCFRAME XSTACK, 16, STACK
        LOCFRAME IOVERLAY, 0, STATIC
        LOCFRAME DOVERLAY, 0, STATIC
        ARGFRAME ISTACK, 0, STACK
        ARGFRAME PSTACK, 0, STACK
        ARGFRAME XSTACK, 16, STACK
        ARGFRAME IOVERLAY, 0, STATIC
        ARGFRAME DOVERLAY, 0, STATIC
        FUNCALL DrawRectFill, SendByte
        LOCFRAME ISTACK, 0, STACK
        LOCFRAME PSTACK, 0, STACK
        LOCFRAME XSTACK, 16, STACK
        LOCFRAME IOVERLAY, 0, STATIC
        LOCFRAME DOVERLAY, 0, STATIC
        ARGFRAME ISTACK, 0, STACK
        ARGFRAME PSTACK, 0, STACK
        ARGFRAME XSTACK, 16, STACK
        ARGFRAME IOVERLAY, 0, STATIC
        ARGFRAME DOVERLAY, 0, STATIC
        FUNCALL DrawRectFill, SendByte
        LOCFRAME ISTACK, 0, STACK
        LOCFRAME PSTACK, 0, STACK
        LOCFRAME XSTACK, 16, STACK
        LOCFRAME IOVERLAY, 0, STATIC
        LOCFRAME DOVERLAY, 0, STATIC
        ARGFRAME ISTACK, 0, STACK
        ARGFRAME PSTACK, 0, STACK
        ARGFRAME XSTACK, 16, STACK
        ARGFRAME IOVERLAY, 0, STATIC
        ARGFRAME DOVERLAY, 0, STATIC
        FUNCALL DrawRectFill, SendByte
        LOCFRAME ISTACK, 0, STACK
        LOCFRAME PSTACK, 0, STACK
        LOCFRAME XSTACK, 16, STACK
        LOCFRAME IOVERLAY, 0, STATIC
        LOCFRAME DOVERLAY, 0, STATIC
        ARGFRAME ISTACK, 0, STACK
        ARGFRAME PSTACK, 0, STACK
        ARGFRAME XSTACK, 16, STACK
        ARGFRAME IOVERLAY, 0, STATIC
        ARGFRAME DOVERLAY, 0, STATIC
        FUNCALL DrawRectFill, SendByte
        LOCFRAME ISTACK, 0, STACK
        LOCFRAME PSTACK, 0, STACK
        LOCFRAME XSTACK, 16, STACK
        LOCFRAME IOVERLAY, 0, STATIC
        LOCFRAME DOVERLAY, 0, STATIC
        ARGFRAME ISTACK, 0, STACK
        ARGFRAME PSTACK, 0, STACK
        ARGFRAME XSTACK, 16, STACK
        ARGFRAME IOVERLAY, 0, STATIC
        ARGFRAME DOVERLAY, 0, STATIC
        FUNCALL DrawRectFill, SendByte
        LOCFRAME ISTACK, 0, STACK
        LOCFRAME PSTACK, 0, STACK
        LOCFRAME XSTACK, 16, STACK
        LOCFRAME IOVERLAY, 0, STATIC
        LOCFRAME DOVERLAY, 0, STATIC
        ARGFRAME ISTACK, 0, STACK
        ARGFRAME PSTACK, 0, STACK
        ARGFRAME XSTACK, 16, STACK
        ARGFRAME IOVERLAY, 0, STATIC
        ARGFRAME DOVERLAY, 0, STATIC
        FUNCALL DrawRectFill, SendByte
        LOCFRAME ISTACK, 0, STACK
        LOCFRAME PSTACK, 0, STACK
        LOCFRAME XSTACK, 16, STACK
        LOCFRAME IOVERLAY, 0, STATIC
        LOCFRAME DOVERLAY, 0, STATIC
        ARGFRAME ISTACK, 0, STACK
        ARGFRAME PSTACK, 0, STACK
        ARGFRAME XSTACK, 16, STACK
        ARGFRAME IOVERLAY, 0, STATIC
        ARGFRAME DOVERLAY, 0, STATIC
        FUNCALL DrawRectFill, SendByte
        LOCFRAME ISTACK, 0, STACK
        LOCFRAME PSTACK, 0, STACK
        LOCFRAME XSTACK, 16, STACK
        LOCFRAME IOVERLAY, 0, STATIC
        LOCFRAME DOVERLAY, 0, STATIC
        ARGFRAME ISTACK, 0, STACK
        ARGFRAME PSTACK, 0, STACK
        ARGFRAME XSTACK, 16, STACK
        ARGFRAME IOVERLAY, 0, STATIC
        ARGFRAME DOVERLAY, 0, STATIC
        FUNCALL DrawRectFill, SendByte
        LOCFRAME ISTACK, 0, STACK
        LOCFRAME PSTACK, 0, STACK
        LOCFRAME XSTACK, 16, STACK
        LOCFRAME IOVERLAY, 0, STATIC
        LOCFRAME DOVERLAY, 0, STATIC
        ARGFRAME ISTACK, 0, STACK
        ARGFRAME PSTACK, 0, STACK
        ARGFRAME XSTACK, 16, STACK
        ARGFRAME IOVERLAY, 0, STATIC
        ARGFRAME DOVERLAY, 0, STATIC
        FUNCALL DrawRectFill, SendByte
        LOCFRAME ISTACK, 0, STACK
        LOCFRAME PSTACK, 0, STACK
        LOCFRAME XSTACK, 16, STACK
        LOCFRAME IOVERLAY, 0, STATIC
        LOCFRAME DOVERLAY, 0, STATIC
        ARGFRAME ISTACK, 0, STACK
        ARGFRAME PSTACK, 0, STACK
        ARGFRAME XSTACK, 16, STACK
        ARGFRAME IOVERLAY, 0, STATIC
        ARGFRAME DOVERLAY, 0, STATIC
        FUNCALL DrawRectFill, SendByte
        LOCFRAME ISTACK, 0, STACK
        LOCFRAME PSTACK, 0, STACK
        LOCFRAME XSTACK, 16, STACK
        LOCFRAME IOVERLAY, 0, STATIC
        LOCFRAME DOVERLAY, 0, STATIC
        ARGFRAME ISTACK, 0, STACK
        ARGFRAME PSTACK, 0, STACK
        ARGFRAME XSTACK, 16, STACK
        ARGFRAME IOVERLAY, 0, STATIC
        ARGFRAME DOVERLAY, 0, STATIC
        FUNCALL DrawRectFill, SendByte
        LOCFRAME ISTACK, 0, STACK
        LOCFRAME PSTACK, 0, STACK
        LOCFRAME XSTACK, 16, STACK
        LOCFRAME IOVERLAY, 0, STATIC
        LOCFRAME DOVERLAY, 0, STATIC
        ARGFRAME ISTACK, 0, STACK
        ARGFRAME PSTACK, 0, STACK
        ARGFRAME XSTACK, 16, STACK
        ARGFRAME IOVERLAY, 0, STATIC
        ARGFRAME DOVERLAY, 0, STATIC
        FUNCALL DrawRectFill, SendByte
        LOCFRAME ISTACK, 0, STACK
        LOCFRAME PSTACK, 0, STACK
        LOCFRAME XSTACK, 16, STACK
        LOCFRAME IOVERLAY, 0, STATIC
        LOCFRAME DOVERLAY, 0, STATIC
        ARGFRAME ISTACK, 0, STACK
        ARGFRAME PSTACK, 0, STACK
        ARGFRAME XSTACK, 16, STACK
        ARGFRAME IOVERLAY, 0, STATIC
        ARGFRAME DOVERLAY, 0, STATIC
        FUNCALL DrawRectFill, SendByte
        LOCFRAME ISTACK, 0, STACK
        LOCFRAME PSTACK, 0, STACK
        LOCFRAME XSTACK, 16, STACK
        LOCFRAME IOVERLAY, 0, STATIC
        LOCFRAME DOVERLAY, 0, STATIC
        ARGFRAME ISTACK, 0, STACK
        ARGFRAME PSTACK, 0, STACK
        ARGFRAME XSTACK, 16, STACK
        ARGFRAME IOVERLAY, 0, STATIC
        ARGFRAME DOVERLAY, 0, STATIC
        FUNCALL DrawRectFill, SendByte
        LOCFRAME ISTACK, 0, STACK
        LOCFRAME PSTACK, 0, STACK
        LOCFRAME XSTACK, 16, STACK
        LOCFRAME IOVERLAY, 0, STATIC
        LOCFRAME DOVERLAY, 0, STATIC
        ARGFRAME ISTACK, 0, STACK
        ARGFRAME PSTACK, 0, STACK
        ARGFRAME XSTACK, 16, STACK
        ARGFRAME IOVERLAY, 0, STATIC
        ARGFRAME DOVERLAY, 0, STATIC
        FUNCALL DrawRectFill, SendByte
        LOCFRAME ISTACK, 0, STACK
        LOCFRAME PSTACK, 0, STACK
        LOCFRAME XSTACK, 16, STACK
        LOCFRAME IOVERLAY, 0, STATIC
        LOCFRAME DOVERLAY, 0, STATIC
        ARGFRAME ISTACK, 0, STACK
        ARGFRAME PSTACK, 0, STACK
        ARGFRAME XSTACK, 16, STACK
        ARGFRAME IOVERLAY, 0, STATIC
        ARGFRAME DOVERLAY, 0, STATIC
        REQUIRE ?V0
        REQUIRE ?V1
        REQUIRE ?V2
        REQUIRE ?V3
        REQUIRE ?V4
        REQUIRE ?V5
        REQUIRE ?V6
        REQUIRE ?V7
        MOV     A,#-0x10
        LCALL   ?BANKED_ENTER_XDATA
          CFI DPH0 load(1, XDATA, add(CFA_XSP16, literal(-1)))
          CFI DPL0 load(1, XDATA, add(CFA_XSP16, literal(-2)))
          CFI ?BRET_EXT load(1, XDATA, add(CFA_XSP16, literal(-3)))
          CFI ?RET_HIGH load(1, XDATA, add(CFA_XSP16, literal(-4)))
          CFI ?RET_LOW load(1, XDATA, add(CFA_XSP16, literal(-5)))
          CFI R7 load(1, XDATA, add(CFA_XSP16, literal(-6)))
          CFI V7 load(1, XDATA, add(CFA_XSP16, literal(-7)))
          CFI V6 load(1, XDATA, add(CFA_XSP16, literal(-8)))
          CFI V5 load(1, XDATA, add(CFA_XSP16, literal(-9)))
          CFI V4 load(1, XDATA, add(CFA_XSP16, literal(-10)))
          CFI V3 load(1, XDATA, add(CFA_XSP16, literal(-11)))
          CFI V2 load(1, XDATA, add(CFA_XSP16, literal(-12)))
          CFI V1 load(1, XDATA, add(CFA_XSP16, literal(-13)))
          CFI V0 load(1, XDATA, add(CFA_XSP16, literal(-14)))
          CFI VB load(1, XDATA, add(CFA_XSP16, literal(-15)))
          CFI R6 load(1, XDATA, add(CFA_XSP16, literal(-16)))
          CFI CFA_SP SP+0
          CFI CFA_XSP16 add(XSP16, 16)
        ; Saved register size: 16
        ; Auto size: 0
        MOV     ?V6,R2
        MOV     ?V7,R3
        MOV     A,#0x10
        LCALL   ?XSTACK_DISP0_8
        MOVX    A,@DPTR
        MOV     ?V4,A
        INC     DPTR
        MOVX    A,@DPTR
        MOV     ?V5,A
        MOV     A,#0x12
        LCALL   ?XSTACK_DISP0_8
        MOVX    A,@DPTR
        MOV     R2,A
        INC     DPTR
        MOVX    A,@DPTR
        MOV     R3,A
//  700   register unsigned int i;
//  701   register unsigned int index = Width*Height/16+1;
        MOV     R0,?V4
        MOV     A,R0
        MOV     B,R2
        MUL     AB
        XCH     A,R0
        MOV     R6,B
        MOV     B,R3
        MUL     AB
        ADD     A,R6
        MOV     R6,A
        MOV     B,R2
        MOV     A,?V5
        MUL     AB
        ADD     A,R6
        MOV     R1,A
        MOV     ?V0,R0
        MOV     ?V1,R1
        MOV     A,#0x4
        MOV     R0,#?V0
        LCALL   ?US_SHR
        MOV     A,?V0
        ADD     A,#0x1
        MOV     R6,A
        CLR     A
        ADDC    A,?V1
        MOV     R7,A
        MOV     A,#0x14
        LCALL   ?XSTACK_DISP0_8
        MOVX    A,@DPTR
        MOV     ?V2,A
        INC     DPTR
        MOVX    A,@DPTR
//  702   register char ch,cl;
//  703   
//  704   ch = (unsigned char)(Color>>8);
        MOV     ?V0,A
//  705   cl = (unsigned char)(Color);
        MOV     A,?V2
        MOV     ?V1,A
//  706   LCD_set_window(Xpos,Ypos,Width,Height);
        ; Setup parameters for call to function LCD_set_window
        MOV     ?V2,R2
        MOV     ?V3,R3
        MOV     R0,#?V2
        LCALL   ?PUSH_XSTACK_I_TWO
          CFI CFA_XSP16 add(XSP16, 18)
        MOV     ?V2,?V4
        MOV     ?V3,?V5
        MOV     R0,#?V2
        LCALL   ?PUSH_XSTACK_I_TWO
          CFI CFA_XSP16 add(XSP16, 20)
        MOV     R2,?V6
        MOV     R3,?V7
        LCALL   `??LCD_set_window::?relay`; Banked call to: LCD_set_window
        MOV     A,#0x4
        LCALL   ?DEALLOC_XSTACK8
          CFI CFA_XSP16 add(XSP16, 16)
//  707   LCD_write_byte(0x2C,LCD_COMMAND);
        ; Setup parameters for call to function LCD_write_byte
        MOV     R2,#0x0
        MOV     R1,#0x2c
        LCALL   `??LCD_write_byte::?relay`; Banked call to: LCD_write_byte
//  708   //LCD_CS_CLR ; andy
//  709   LCD_DC_SET ;
        SETB    0x80.0
//  710   for(i=0;i<index;i++)
        MOV     ?V2,#0x0
        MOV     ?V3,#0x0
        LJMP    ??DrawRectFill_0 & 0xFFFF
//  711   {
//  712       SendByte(ch);
??DrawRectFill_1:
        ; Setup parameters for call to function SendByte
        MOV     R1,?V0
        LCALL   `??SendByte::?relay` ; Banked call to: SendByte
//  713       SendByte(cl);
        ; Setup parameters for call to function SendByte
        MOV     R1,?V1
        LCALL   `??SendByte::?relay` ; Banked call to: SendByte
//  714       SendByte(ch);
        ; Setup parameters for call to function SendByte
        MOV     R1,?V0
        LCALL   `??SendByte::?relay` ; Banked call to: SendByte
//  715       SendByte(cl); 
        ; Setup parameters for call to function SendByte
        MOV     R1,?V1
        LCALL   `??SendByte::?relay` ; Banked call to: SendByte
//  716       SendByte(ch);
        ; Setup parameters for call to function SendByte
        MOV     R1,?V0
        LCALL   `??SendByte::?relay` ; Banked call to: SendByte
//  717       SendByte(cl);      
        ; Setup parameters for call to function SendByte
        MOV     R1,?V1
        LCALL   `??SendByte::?relay` ; Banked call to: SendByte
//  718       SendByte(ch);
        ; Setup parameters for call to function SendByte
        MOV     R1,?V0
        LCALL   `??SendByte::?relay` ; Banked call to: SendByte
//  719       SendByte(cl);
        ; Setup parameters for call to function SendByte
        MOV     R1,?V1
        LCALL   `??SendByte::?relay` ; Banked call to: SendByte
//  720       SendByte(ch);
        ; Setup parameters for call to function SendByte
        MOV     R1,?V0
        LCALL   `??SendByte::?relay` ; Banked call to: SendByte
//  721       SendByte(cl);
        ; Setup parameters for call to function SendByte
        MOV     R1,?V1
        LCALL   `??SendByte::?relay` ; Banked call to: SendByte
//  722       SendByte(ch);
        ; Setup parameters for call to function SendByte
        MOV     R1,?V0
        LCALL   `??SendByte::?relay` ; Banked call to: SendByte
//  723       SendByte(cl);
        ; Setup parameters for call to function SendByte
        MOV     R1,?V1
        LCALL   `??SendByte::?relay` ; Banked call to: SendByte
//  724       SendByte(ch);
        ; Setup parameters for call to function SendByte
        MOV     R1,?V0
        LCALL   `??SendByte::?relay` ; Banked call to: SendByte
//  725       SendByte(cl);
        ; Setup parameters for call to function SendByte
        MOV     R1,?V1
        LCALL   `??SendByte::?relay` ; Banked call to: SendByte
//  726       SendByte(ch);
        ; Setup parameters for call to function SendByte
        MOV     R1,?V0
        LCALL   `??SendByte::?relay` ; Banked call to: SendByte
//  727       SendByte(cl);
        ; Setup parameters for call to function SendByte
        MOV     R1,?V1
        LCALL   `??SendByte::?relay` ; Banked call to: SendByte
//  728       SendByte(ch);
        ; Setup parameters for call to function SendByte
        MOV     R1,?V0
        LCALL   `??SendByte::?relay` ; Banked call to: SendByte
//  729       SendByte(cl);
        ; Setup parameters for call to function SendByte
        MOV     R1,?V1
        LCALL   `??SendByte::?relay` ; Banked call to: SendByte
//  730       SendByte(ch);
        ; Setup parameters for call to function SendByte
        MOV     R1,?V0
        LCALL   `??SendByte::?relay` ; Banked call to: SendByte
//  731       SendByte(cl);
        ; Setup parameters for call to function SendByte
        MOV     R1,?V1
        LCALL   `??SendByte::?relay` ; Banked call to: SendByte
//  732       SendByte(ch);
        ; Setup parameters for call to function SendByte
        MOV     R1,?V0
        LCALL   `??SendByte::?relay` ; Banked call to: SendByte
//  733       SendByte(cl);
        ; Setup parameters for call to function SendByte
        MOV     R1,?V1
        LCALL   `??SendByte::?relay` ; Banked call to: SendByte
//  734       SendByte(ch);
        ; Setup parameters for call to function SendByte
        MOV     R1,?V0
        LCALL   `??SendByte::?relay` ; Banked call to: SendByte
//  735       SendByte(cl);
        ; Setup parameters for call to function SendByte
        MOV     R1,?V1
        LCALL   `??SendByte::?relay` ; Banked call to: SendByte
//  736       SendByte(ch);
        ; Setup parameters for call to function SendByte
        MOV     R1,?V0
        LCALL   `??SendByte::?relay` ; Banked call to: SendByte
//  737       SendByte(cl);
        ; Setup parameters for call to function SendByte
        MOV     R1,?V1
        LCALL   `??SendByte::?relay` ; Banked call to: SendByte
//  738       SendByte(ch);
        ; Setup parameters for call to function SendByte
        MOV     R1,?V0
        LCALL   `??SendByte::?relay` ; Banked call to: SendByte
//  739       SendByte(cl);
        ; Setup parameters for call to function SendByte
        MOV     R1,?V1
        LCALL   `??SendByte::?relay` ; Banked call to: SendByte
//  740       SendByte(ch);
        ; Setup parameters for call to function SendByte
        MOV     R1,?V0
        LCALL   `??SendByte::?relay` ; Banked call to: SendByte
//  741       SendByte(cl);
        ; Setup parameters for call to function SendByte
        MOV     R1,?V1
        LCALL   `??SendByte::?relay` ; Banked call to: SendByte
//  742       SendByte(ch);
        ; Setup parameters for call to function SendByte
        MOV     R1,?V0
        LCALL   `??SendByte::?relay` ; Banked call to: SendByte
//  743       SendByte(cl);
        ; Setup parameters for call to function SendByte
        MOV     R1,?V1
        LCALL   `??SendByte::?relay` ; Banked call to: SendByte
//  744   }    
        INC     ?V2
        MOV     A,?V2
        JNZ     ??DrawRectFill_0
        INC     ?V3
??DrawRectFill_0:
        CLR     C
        MOV     A,?V2
        SUBB    A,R6
        MOV     A,?V3
        SUBB    A,R7
        JNC     $+5
        LJMP    ??DrawRectFill_1 & 0xFFFF
//  745 }
        MOV     R7,#0x8
        LJMP    ?BANKED_LEAVE_XDATA
          CFI EndBlock cfiBlock39
        REQUIRE _A_P0
//  746 
//  747 /****************************************************************************
//  748 * 名    称: LCD_clear()
//  749 * 功    能: 以指定颜色清屏
//  750 * 入口参数: color ―清屏颜色
//  751 * 出口参数: 无
//  752 ****************************************************************************/

        RSEG BANKED_CODE:CODE:NOROOT(0)
//  753 void LCD_clear(unsigned int color)
LCD_clear:
          CFI Block cfiBlock40 Using cfiCommon0
          CFI Function LCD_clear
        CODE
//  754 {
        FUNCALL LCD_clear, LCD_set_window
        LOCFRAME ISTACK, 0, STACK
        LOCFRAME PSTACK, 0, STACK
        LOCFRAME XSTACK, 14, STACK
        LOCFRAME IOVERLAY, 0, STATIC
        LOCFRAME DOVERLAY, 0, STATIC
        ARGFRAME ISTACK, 0, STACK
        ARGFRAME PSTACK, 0, STACK
        ARGFRAME XSTACK, 14, STACK
        ARGFRAME IOVERLAY, 0, STATIC
        ARGFRAME DOVERLAY, 0, STATIC
        FUNCALL LCD_clear, LCD_write_byte
        LOCFRAME ISTACK, 0, STACK
        LOCFRAME PSTACK, 0, STACK
        LOCFRAME XSTACK, 10, STACK
        LOCFRAME IOVERLAY, 0, STATIC
        LOCFRAME DOVERLAY, 0, STATIC
        ARGFRAME ISTACK, 0, STACK
        ARGFRAME PSTACK, 0, STACK
        ARGFRAME XSTACK, 10, STACK
        ARGFRAME IOVERLAY, 0, STATIC
        ARGFRAME DOVERLAY, 0, STATIC
        FUNCALL LCD_clear, SendByte
        LOCFRAME ISTACK, 0, STACK
        LOCFRAME PSTACK, 0, STACK
        LOCFRAME XSTACK, 10, STACK
        LOCFRAME IOVERLAY, 0, STATIC
        LOCFRAME DOVERLAY, 0, STATIC
        ARGFRAME ISTACK, 0, STACK
        ARGFRAME PSTACK, 0, STACK
        ARGFRAME XSTACK, 10, STACK
        ARGFRAME IOVERLAY, 0, STATIC
        ARGFRAME DOVERLAY, 0, STATIC
        FUNCALL LCD_clear, SendByte
        LOCFRAME ISTACK, 0, STACK
        LOCFRAME PSTACK, 0, STACK
        LOCFRAME XSTACK, 10, STACK
        LOCFRAME IOVERLAY, 0, STATIC
        LOCFRAME DOVERLAY, 0, STATIC
        ARGFRAME ISTACK, 0, STACK
        ARGFRAME PSTACK, 0, STACK
        ARGFRAME XSTACK, 10, STACK
        ARGFRAME IOVERLAY, 0, STATIC
        ARGFRAME DOVERLAY, 0, STATIC
        FUNCALL LCD_clear, SendByte
        LOCFRAME ISTACK, 0, STACK
        LOCFRAME PSTACK, 0, STACK
        LOCFRAME XSTACK, 10, STACK
        LOCFRAME IOVERLAY, 0, STATIC
        LOCFRAME DOVERLAY, 0, STATIC
        ARGFRAME ISTACK, 0, STACK
        ARGFRAME PSTACK, 0, STACK
        ARGFRAME XSTACK, 10, STACK
        ARGFRAME IOVERLAY, 0, STATIC
        ARGFRAME DOVERLAY, 0, STATIC
        FUNCALL LCD_clear, SendByte
        LOCFRAME ISTACK, 0, STACK
        LOCFRAME PSTACK, 0, STACK
        LOCFRAME XSTACK, 10, STACK
        LOCFRAME IOVERLAY, 0, STATIC
        LOCFRAME DOVERLAY, 0, STATIC
        ARGFRAME ISTACK, 0, STACK
        ARGFRAME PSTACK, 0, STACK
        ARGFRAME XSTACK, 10, STACK
        ARGFRAME IOVERLAY, 0, STATIC
        ARGFRAME DOVERLAY, 0, STATIC
        FUNCALL LCD_clear, SendByte
        LOCFRAME ISTACK, 0, STACK
        LOCFRAME PSTACK, 0, STACK
        LOCFRAME XSTACK, 10, STACK
        LOCFRAME IOVERLAY, 0, STATIC
        LOCFRAME DOVERLAY, 0, STATIC
        ARGFRAME ISTACK, 0, STACK
        ARGFRAME PSTACK, 0, STACK
        ARGFRAME XSTACK, 10, STACK
        ARGFRAME IOVERLAY, 0, STATIC
        ARGFRAME DOVERLAY, 0, STATIC
        FUNCALL LCD_clear, SendByte
        LOCFRAME ISTACK, 0, STACK
        LOCFRAME PSTACK, 0, STACK
        LOCFRAME XSTACK, 10, STACK
        LOCFRAME IOVERLAY, 0, STATIC
        LOCFRAME DOVERLAY, 0, STATIC
        ARGFRAME ISTACK, 0, STACK
        ARGFRAME PSTACK, 0, STACK
        ARGFRAME XSTACK, 10, STACK
        ARGFRAME IOVERLAY, 0, STATIC
        ARGFRAME DOVERLAY, 0, STATIC
        FUNCALL LCD_clear, SendByte
        LOCFRAME ISTACK, 0, STACK
        LOCFRAME PSTACK, 0, STACK
        LOCFRAME XSTACK, 10, STACK
        LOCFRAME IOVERLAY, 0, STATIC
        LOCFRAME DOVERLAY, 0, STATIC
        ARGFRAME ISTACK, 0, STACK
        ARGFRAME PSTACK, 0, STACK
        ARGFRAME XSTACK, 10, STACK
        ARGFRAME IOVERLAY, 0, STATIC
        ARGFRAME DOVERLAY, 0, STATIC
        FUNCALL LCD_clear, SendByte
        LOCFRAME ISTACK, 0, STACK
        LOCFRAME PSTACK, 0, STACK
        LOCFRAME XSTACK, 10, STACK
        LOCFRAME IOVERLAY, 0, STATIC
        LOCFRAME DOVERLAY, 0, STATIC
        ARGFRAME ISTACK, 0, STACK
        ARGFRAME PSTACK, 0, STACK
        ARGFRAME XSTACK, 10, STACK
        ARGFRAME IOVERLAY, 0, STATIC
        ARGFRAME DOVERLAY, 0, STATIC
        FUNCALL LCD_clear, SendByte
        LOCFRAME ISTACK, 0, STACK
        LOCFRAME PSTACK, 0, STACK
        LOCFRAME XSTACK, 10, STACK
        LOCFRAME IOVERLAY, 0, STATIC
        LOCFRAME DOVERLAY, 0, STATIC
        ARGFRAME ISTACK, 0, STACK
        ARGFRAME PSTACK, 0, STACK
        ARGFRAME XSTACK, 10, STACK
        ARGFRAME IOVERLAY, 0, STATIC
        ARGFRAME DOVERLAY, 0, STATIC
        FUNCALL LCD_clear, SendByte
        LOCFRAME ISTACK, 0, STACK
        LOCFRAME PSTACK, 0, STACK
        LOCFRAME XSTACK, 10, STACK
        LOCFRAME IOVERLAY, 0, STATIC
        LOCFRAME DOVERLAY, 0, STATIC
        ARGFRAME ISTACK, 0, STACK
        ARGFRAME PSTACK, 0, STACK
        ARGFRAME XSTACK, 10, STACK
        ARGFRAME IOVERLAY, 0, STATIC
        ARGFRAME DOVERLAY, 0, STATIC
        FUNCALL LCD_clear, SendByte
        LOCFRAME ISTACK, 0, STACK
        LOCFRAME PSTACK, 0, STACK
        LOCFRAME XSTACK, 10, STACK
        LOCFRAME IOVERLAY, 0, STATIC
        LOCFRAME DOVERLAY, 0, STATIC
        ARGFRAME ISTACK, 0, STACK
        ARGFRAME PSTACK, 0, STACK
        ARGFRAME XSTACK, 10, STACK
        ARGFRAME IOVERLAY, 0, STATIC
        ARGFRAME DOVERLAY, 0, STATIC
        FUNCALL LCD_clear, SendByte
        LOCFRAME ISTACK, 0, STACK
        LOCFRAME PSTACK, 0, STACK
        LOCFRAME XSTACK, 10, STACK
        LOCFRAME IOVERLAY, 0, STATIC
        LOCFRAME DOVERLAY, 0, STATIC
        ARGFRAME ISTACK, 0, STACK
        ARGFRAME PSTACK, 0, STACK
        ARGFRAME XSTACK, 10, STACK
        ARGFRAME IOVERLAY, 0, STATIC
        ARGFRAME DOVERLAY, 0, STATIC
        FUNCALL LCD_clear, SendByte
        LOCFRAME ISTACK, 0, STACK
        LOCFRAME PSTACK, 0, STACK
        LOCFRAME XSTACK, 10, STACK
        LOCFRAME IOVERLAY, 0, STATIC
        LOCFRAME DOVERLAY, 0, STATIC
        ARGFRAME ISTACK, 0, STACK
        ARGFRAME PSTACK, 0, STACK
        ARGFRAME XSTACK, 10, STACK
        ARGFRAME IOVERLAY, 0, STATIC
        ARGFRAME DOVERLAY, 0, STATIC
        FUNCALL LCD_clear, SendByte
        LOCFRAME ISTACK, 0, STACK
        LOCFRAME PSTACK, 0, STACK
        LOCFRAME XSTACK, 10, STACK
        LOCFRAME IOVERLAY, 0, STATIC
        LOCFRAME DOVERLAY, 0, STATIC
        ARGFRAME ISTACK, 0, STACK
        ARGFRAME PSTACK, 0, STACK
        ARGFRAME XSTACK, 10, STACK
        ARGFRAME IOVERLAY, 0, STATIC
        ARGFRAME DOVERLAY, 0, STATIC
        FUNCALL LCD_clear, SendByte
        LOCFRAME ISTACK, 0, STACK
        LOCFRAME PSTACK, 0, STACK
        LOCFRAME XSTACK, 10, STACK
        LOCFRAME IOVERLAY, 0, STATIC
        LOCFRAME DOVERLAY, 0, STATIC
        ARGFRAME ISTACK, 0, STACK
        ARGFRAME PSTACK, 0, STACK
        ARGFRAME XSTACK, 10, STACK
        ARGFRAME IOVERLAY, 0, STATIC
        ARGFRAME DOVERLAY, 0, STATIC
        FUNCALL LCD_clear, SendByte
        LOCFRAME ISTACK, 0, STACK
        LOCFRAME PSTACK, 0, STACK
        LOCFRAME XSTACK, 10, STACK
        LOCFRAME IOVERLAY, 0, STATIC
        LOCFRAME DOVERLAY, 0, STATIC
        ARGFRAME ISTACK, 0, STACK
        ARGFRAME PSTACK, 0, STACK
        ARGFRAME XSTACK, 10, STACK
        ARGFRAME IOVERLAY, 0, STATIC
        ARGFRAME DOVERLAY, 0, STATIC
        FUNCALL LCD_clear, SendByte
        LOCFRAME ISTACK, 0, STACK
        LOCFRAME PSTACK, 0, STACK
        LOCFRAME XSTACK, 10, STACK
        LOCFRAME IOVERLAY, 0, STATIC
        LOCFRAME DOVERLAY, 0, STATIC
        ARGFRAME ISTACK, 0, STACK
        ARGFRAME PSTACK, 0, STACK
        ARGFRAME XSTACK, 10, STACK
        ARGFRAME IOVERLAY, 0, STATIC
        ARGFRAME DOVERLAY, 0, STATIC
        FUNCALL LCD_clear, SendByte
        LOCFRAME ISTACK, 0, STACK
        LOCFRAME PSTACK, 0, STACK
        LOCFRAME XSTACK, 10, STACK
        LOCFRAME IOVERLAY, 0, STATIC
        LOCFRAME DOVERLAY, 0, STATIC
        ARGFRAME ISTACK, 0, STACK
        ARGFRAME PSTACK, 0, STACK
        ARGFRAME XSTACK, 10, STACK
        ARGFRAME IOVERLAY, 0, STATIC
        ARGFRAME DOVERLAY, 0, STATIC
        FUNCALL LCD_clear, SendByte
        LOCFRAME ISTACK, 0, STACK
        LOCFRAME PSTACK, 0, STACK
        LOCFRAME XSTACK, 10, STACK
        LOCFRAME IOVERLAY, 0, STATIC
        LOCFRAME DOVERLAY, 0, STATIC
        ARGFRAME ISTACK, 0, STACK
        ARGFRAME PSTACK, 0, STACK
        ARGFRAME XSTACK, 10, STACK
        ARGFRAME IOVERLAY, 0, STATIC
        ARGFRAME DOVERLAY, 0, STATIC
        FUNCALL LCD_clear, SendByte
        LOCFRAME ISTACK, 0, STACK
        LOCFRAME PSTACK, 0, STACK
        LOCFRAME XSTACK, 10, STACK
        LOCFRAME IOVERLAY, 0, STATIC
        LOCFRAME DOVERLAY, 0, STATIC
        ARGFRAME ISTACK, 0, STACK
        ARGFRAME PSTACK, 0, STACK
        ARGFRAME XSTACK, 10, STACK
        ARGFRAME IOVERLAY, 0, STATIC
        ARGFRAME DOVERLAY, 0, STATIC
        FUNCALL LCD_clear, SendByte
        LOCFRAME ISTACK, 0, STACK
        LOCFRAME PSTACK, 0, STACK
        LOCFRAME XSTACK, 10, STACK
        LOCFRAME IOVERLAY, 0, STATIC
        LOCFRAME DOVERLAY, 0, STATIC
        ARGFRAME ISTACK, 0, STACK
        ARGFRAME PSTACK, 0, STACK
        ARGFRAME XSTACK, 10, STACK
        ARGFRAME IOVERLAY, 0, STATIC
        ARGFRAME DOVERLAY, 0, STATIC
        FUNCALL LCD_clear, SendByte
        LOCFRAME ISTACK, 0, STACK
        LOCFRAME PSTACK, 0, STACK
        LOCFRAME XSTACK, 10, STACK
        LOCFRAME IOVERLAY, 0, STATIC
        LOCFRAME DOVERLAY, 0, STATIC
        ARGFRAME ISTACK, 0, STACK
        ARGFRAME PSTACK, 0, STACK
        ARGFRAME XSTACK, 10, STACK
        ARGFRAME IOVERLAY, 0, STATIC
        ARGFRAME DOVERLAY, 0, STATIC
        FUNCALL LCD_clear, SendByte
        LOCFRAME ISTACK, 0, STACK
        LOCFRAME PSTACK, 0, STACK
        LOCFRAME XSTACK, 10, STACK
        LOCFRAME IOVERLAY, 0, STATIC
        LOCFRAME DOVERLAY, 0, STATIC
        ARGFRAME ISTACK, 0, STACK
        ARGFRAME PSTACK, 0, STACK
        ARGFRAME XSTACK, 10, STACK
        ARGFRAME IOVERLAY, 0, STATIC
        ARGFRAME DOVERLAY, 0, STATIC
        FUNCALL LCD_clear, SendByte
        LOCFRAME ISTACK, 0, STACK
        LOCFRAME PSTACK, 0, STACK
        LOCFRAME XSTACK, 10, STACK
        LOCFRAME IOVERLAY, 0, STATIC
        LOCFRAME DOVERLAY, 0, STATIC
        ARGFRAME ISTACK, 0, STACK
        ARGFRAME PSTACK, 0, STACK
        ARGFRAME XSTACK, 10, STACK
        ARGFRAME IOVERLAY, 0, STATIC
        ARGFRAME DOVERLAY, 0, STATIC
        FUNCALL LCD_clear, SendByte
        LOCFRAME ISTACK, 0, STACK
        LOCFRAME PSTACK, 0, STACK
        LOCFRAME XSTACK, 10, STACK
        LOCFRAME IOVERLAY, 0, STATIC
        LOCFRAME DOVERLAY, 0, STATIC
        ARGFRAME ISTACK, 0, STACK
        ARGFRAME PSTACK, 0, STACK
        ARGFRAME XSTACK, 10, STACK
        ARGFRAME IOVERLAY, 0, STATIC
        ARGFRAME DOVERLAY, 0, STATIC
        FUNCALL LCD_clear, SendByte
        LOCFRAME ISTACK, 0, STACK
        LOCFRAME PSTACK, 0, STACK
        LOCFRAME XSTACK, 10, STACK
        LOCFRAME IOVERLAY, 0, STATIC
        LOCFRAME DOVERLAY, 0, STATIC
        ARGFRAME ISTACK, 0, STACK
        ARGFRAME PSTACK, 0, STACK
        ARGFRAME XSTACK, 10, STACK
        ARGFRAME IOVERLAY, 0, STATIC
        ARGFRAME DOVERLAY, 0, STATIC
        FUNCALL LCD_clear, SendByte
        LOCFRAME ISTACK, 0, STACK
        LOCFRAME PSTACK, 0, STACK
        LOCFRAME XSTACK, 10, STACK
        LOCFRAME IOVERLAY, 0, STATIC
        LOCFRAME DOVERLAY, 0, STATIC
        ARGFRAME ISTACK, 0, STACK
        ARGFRAME PSTACK, 0, STACK
        ARGFRAME XSTACK, 10, STACK
        ARGFRAME IOVERLAY, 0, STATIC
        ARGFRAME DOVERLAY, 0, STATIC
        FUNCALL LCD_clear, SendByte
        LOCFRAME ISTACK, 0, STACK
        LOCFRAME PSTACK, 0, STACK
        LOCFRAME XSTACK, 10, STACK
        LOCFRAME IOVERLAY, 0, STATIC
        LOCFRAME DOVERLAY, 0, STATIC
        ARGFRAME ISTACK, 0, STACK
        ARGFRAME PSTACK, 0, STACK
        ARGFRAME XSTACK, 10, STACK
        ARGFRAME IOVERLAY, 0, STATIC
        ARGFRAME DOVERLAY, 0, STATIC
        FUNCALL LCD_clear, SendByte
        LOCFRAME ISTACK, 0, STACK
        LOCFRAME PSTACK, 0, STACK
        LOCFRAME XSTACK, 10, STACK
        LOCFRAME IOVERLAY, 0, STATIC
        LOCFRAME DOVERLAY, 0, STATIC
        ARGFRAME ISTACK, 0, STACK
        ARGFRAME PSTACK, 0, STACK
        ARGFRAME XSTACK, 10, STACK
        ARGFRAME IOVERLAY, 0, STATIC
        ARGFRAME DOVERLAY, 0, STATIC
        FUNCALL LCD_clear, SendByte
        LOCFRAME ISTACK, 0, STACK
        LOCFRAME PSTACK, 0, STACK
        LOCFRAME XSTACK, 10, STACK
        LOCFRAME IOVERLAY, 0, STATIC
        LOCFRAME DOVERLAY, 0, STATIC
        ARGFRAME ISTACK, 0, STACK
        ARGFRAME PSTACK, 0, STACK
        ARGFRAME XSTACK, 10, STACK
        ARGFRAME IOVERLAY, 0, STATIC
        ARGFRAME DOVERLAY, 0, STATIC
        FUNCALL LCD_clear, SendByte
        LOCFRAME ISTACK, 0, STACK
        LOCFRAME PSTACK, 0, STACK
        LOCFRAME XSTACK, 10, STACK
        LOCFRAME IOVERLAY, 0, STATIC
        LOCFRAME DOVERLAY, 0, STATIC
        ARGFRAME ISTACK, 0, STACK
        ARGFRAME PSTACK, 0, STACK
        ARGFRAME XSTACK, 10, STACK
        ARGFRAME IOVERLAY, 0, STATIC
        ARGFRAME DOVERLAY, 0, STATIC
        FUNCALL LCD_clear, SendByte
        LOCFRAME ISTACK, 0, STACK
        LOCFRAME PSTACK, 0, STACK
        LOCFRAME XSTACK, 10, STACK
        LOCFRAME IOVERLAY, 0, STATIC
        LOCFRAME DOVERLAY, 0, STATIC
        ARGFRAME ISTACK, 0, STACK
        ARGFRAME PSTACK, 0, STACK
        ARGFRAME XSTACK, 10, STACK
        ARGFRAME IOVERLAY, 0, STATIC
        ARGFRAME DOVERLAY, 0, STATIC
        FUNCALL LCD_clear, SendByte
        LOCFRAME ISTACK, 0, STACK
        LOCFRAME PSTACK, 0, STACK
        LOCFRAME XSTACK, 10, STACK
        LOCFRAME IOVERLAY, 0, STATIC
        LOCFRAME DOVERLAY, 0, STATIC
        ARGFRAME ISTACK, 0, STACK
        ARGFRAME PSTACK, 0, STACK
        ARGFRAME XSTACK, 10, STACK
        ARGFRAME IOVERLAY, 0, STATIC
        ARGFRAME DOVERLAY, 0, STATIC
        FUNCALL LCD_clear, SendByte
        LOCFRAME ISTACK, 0, STACK
        LOCFRAME PSTACK, 0, STACK
        LOCFRAME XSTACK, 10, STACK
        LOCFRAME IOVERLAY, 0, STATIC
        LOCFRAME DOVERLAY, 0, STATIC
        ARGFRAME ISTACK, 0, STACK
        ARGFRAME PSTACK, 0, STACK
        ARGFRAME XSTACK, 10, STACK
        ARGFRAME IOVERLAY, 0, STATIC
        ARGFRAME DOVERLAY, 0, STATIC
        FUNCALL LCD_clear, SendByte
        LOCFRAME ISTACK, 0, STACK
        LOCFRAME PSTACK, 0, STACK
        LOCFRAME XSTACK, 10, STACK
        LOCFRAME IOVERLAY, 0, STATIC
        LOCFRAME DOVERLAY, 0, STATIC
        ARGFRAME ISTACK, 0, STACK
        ARGFRAME PSTACK, 0, STACK
        ARGFRAME XSTACK, 10, STACK
        ARGFRAME IOVERLAY, 0, STATIC
        ARGFRAME DOVERLAY, 0, STATIC
        FUNCALL LCD_clear, SendByte
        LOCFRAME ISTACK, 0, STACK
        LOCFRAME PSTACK, 0, STACK
        LOCFRAME XSTACK, 10, STACK
        LOCFRAME IOVERLAY, 0, STATIC
        LOCFRAME DOVERLAY, 0, STATIC
        ARGFRAME ISTACK, 0, STACK
        ARGFRAME PSTACK, 0, STACK
        ARGFRAME XSTACK, 10, STACK
        ARGFRAME IOVERLAY, 0, STATIC
        ARGFRAME DOVERLAY, 0, STATIC
        FUNCALL LCD_clear, SendByte
        LOCFRAME ISTACK, 0, STACK
        LOCFRAME PSTACK, 0, STACK
        LOCFRAME XSTACK, 10, STACK
        LOCFRAME IOVERLAY, 0, STATIC
        LOCFRAME DOVERLAY, 0, STATIC
        ARGFRAME ISTACK, 0, STACK
        ARGFRAME PSTACK, 0, STACK
        ARGFRAME XSTACK, 10, STACK
        ARGFRAME IOVERLAY, 0, STATIC
        ARGFRAME DOVERLAY, 0, STATIC
        FUNCALL LCD_clear, SendByte
        LOCFRAME ISTACK, 0, STACK
        LOCFRAME PSTACK, 0, STACK
        LOCFRAME XSTACK, 10, STACK
        LOCFRAME IOVERLAY, 0, STATIC
        LOCFRAME DOVERLAY, 0, STATIC
        ARGFRAME ISTACK, 0, STACK
        ARGFRAME PSTACK, 0, STACK
        ARGFRAME XSTACK, 10, STACK
        ARGFRAME IOVERLAY, 0, STATIC
        ARGFRAME DOVERLAY, 0, STATIC
        FUNCALL LCD_clear, SendByte
        LOCFRAME ISTACK, 0, STACK
        LOCFRAME PSTACK, 0, STACK
        LOCFRAME XSTACK, 10, STACK
        LOCFRAME IOVERLAY, 0, STATIC
        LOCFRAME DOVERLAY, 0, STATIC
        ARGFRAME ISTACK, 0, STACK
        ARGFRAME PSTACK, 0, STACK
        ARGFRAME XSTACK, 10, STACK
        ARGFRAME IOVERLAY, 0, STATIC
        ARGFRAME DOVERLAY, 0, STATIC
        FUNCALL LCD_clear, SendByte
        LOCFRAME ISTACK, 0, STACK
        LOCFRAME PSTACK, 0, STACK
        LOCFRAME XSTACK, 10, STACK
        LOCFRAME IOVERLAY, 0, STATIC
        LOCFRAME DOVERLAY, 0, STATIC
        ARGFRAME ISTACK, 0, STACK
        ARGFRAME PSTACK, 0, STACK
        ARGFRAME XSTACK, 10, STACK
        ARGFRAME IOVERLAY, 0, STATIC
        ARGFRAME DOVERLAY, 0, STATIC
        FUNCALL LCD_clear, SendByte
        LOCFRAME ISTACK, 0, STACK
        LOCFRAME PSTACK, 0, STACK
        LOCFRAME XSTACK, 10, STACK
        LOCFRAME IOVERLAY, 0, STATIC
        LOCFRAME DOVERLAY, 0, STATIC
        ARGFRAME ISTACK, 0, STACK
        ARGFRAME PSTACK, 0, STACK
        ARGFRAME XSTACK, 10, STACK
        ARGFRAME IOVERLAY, 0, STATIC
        ARGFRAME DOVERLAY, 0, STATIC
        FUNCALL LCD_clear, SendByte
        LOCFRAME ISTACK, 0, STACK
        LOCFRAME PSTACK, 0, STACK
        LOCFRAME XSTACK, 10, STACK
        LOCFRAME IOVERLAY, 0, STATIC
        LOCFRAME DOVERLAY, 0, STATIC
        ARGFRAME ISTACK, 0, STACK
        ARGFRAME PSTACK, 0, STACK
        ARGFRAME XSTACK, 10, STACK
        ARGFRAME IOVERLAY, 0, STATIC
        ARGFRAME DOVERLAY, 0, STATIC
        FUNCALL LCD_clear, SendByte
        LOCFRAME ISTACK, 0, STACK
        LOCFRAME PSTACK, 0, STACK
        LOCFRAME XSTACK, 10, STACK
        LOCFRAME IOVERLAY, 0, STATIC
        LOCFRAME DOVERLAY, 0, STATIC
        ARGFRAME ISTACK, 0, STACK
        ARGFRAME PSTACK, 0, STACK
        ARGFRAME XSTACK, 10, STACK
        ARGFRAME IOVERLAY, 0, STATIC
        ARGFRAME DOVERLAY, 0, STATIC
        FUNCALL LCD_clear, SendByte
        LOCFRAME ISTACK, 0, STACK
        LOCFRAME PSTACK, 0, STACK
        LOCFRAME XSTACK, 10, STACK
        LOCFRAME IOVERLAY, 0, STATIC
        LOCFRAME DOVERLAY, 0, STATIC
        ARGFRAME ISTACK, 0, STACK
        ARGFRAME PSTACK, 0, STACK
        ARGFRAME XSTACK, 10, STACK
        ARGFRAME IOVERLAY, 0, STATIC
        ARGFRAME DOVERLAY, 0, STATIC
        FUNCALL LCD_clear, SendByte
        LOCFRAME ISTACK, 0, STACK
        LOCFRAME PSTACK, 0, STACK
        LOCFRAME XSTACK, 10, STACK
        LOCFRAME IOVERLAY, 0, STATIC
        LOCFRAME DOVERLAY, 0, STATIC
        ARGFRAME ISTACK, 0, STACK
        ARGFRAME PSTACK, 0, STACK
        ARGFRAME XSTACK, 10, STACK
        ARGFRAME IOVERLAY, 0, STATIC
        ARGFRAME DOVERLAY, 0, STATIC
        FUNCALL LCD_clear, SendByte
        LOCFRAME ISTACK, 0, STACK
        LOCFRAME PSTACK, 0, STACK
        LOCFRAME XSTACK, 10, STACK
        LOCFRAME IOVERLAY, 0, STATIC
        LOCFRAME DOVERLAY, 0, STATIC
        ARGFRAME ISTACK, 0, STACK
        ARGFRAME PSTACK, 0, STACK
        ARGFRAME XSTACK, 10, STACK
        ARGFRAME IOVERLAY, 0, STATIC
        ARGFRAME DOVERLAY, 0, STATIC
        FUNCALL LCD_clear, SendByte
        LOCFRAME ISTACK, 0, STACK
        LOCFRAME PSTACK, 0, STACK
        LOCFRAME XSTACK, 10, STACK
        LOCFRAME IOVERLAY, 0, STATIC
        LOCFRAME DOVERLAY, 0, STATIC
        ARGFRAME ISTACK, 0, STACK
        ARGFRAME PSTACK, 0, STACK
        ARGFRAME XSTACK, 10, STACK
        ARGFRAME IOVERLAY, 0, STATIC
        ARGFRAME DOVERLAY, 0, STATIC
        FUNCALL LCD_clear, SendByte
        LOCFRAME ISTACK, 0, STACK
        LOCFRAME PSTACK, 0, STACK
        LOCFRAME XSTACK, 10, STACK
        LOCFRAME IOVERLAY, 0, STATIC
        LOCFRAME DOVERLAY, 0, STATIC
        ARGFRAME ISTACK, 0, STACK
        ARGFRAME PSTACK, 0, STACK
        ARGFRAME XSTACK, 10, STACK
        ARGFRAME IOVERLAY, 0, STATIC
        ARGFRAME DOVERLAY, 0, STATIC
        FUNCALL LCD_clear, SendByte
        LOCFRAME ISTACK, 0, STACK
        LOCFRAME PSTACK, 0, STACK
        LOCFRAME XSTACK, 10, STACK
        LOCFRAME IOVERLAY, 0, STATIC
        LOCFRAME DOVERLAY, 0, STATIC
        ARGFRAME ISTACK, 0, STACK
        ARGFRAME PSTACK, 0, STACK
        ARGFRAME XSTACK, 10, STACK
        ARGFRAME IOVERLAY, 0, STATIC
        ARGFRAME DOVERLAY, 0, STATIC
        FUNCALL LCD_clear, SendByte
        LOCFRAME ISTACK, 0, STACK
        LOCFRAME PSTACK, 0, STACK
        LOCFRAME XSTACK, 10, STACK
        LOCFRAME IOVERLAY, 0, STATIC
        LOCFRAME DOVERLAY, 0, STATIC
        ARGFRAME ISTACK, 0, STACK
        ARGFRAME PSTACK, 0, STACK
        ARGFRAME XSTACK, 10, STACK
        ARGFRAME IOVERLAY, 0, STATIC
        ARGFRAME DOVERLAY, 0, STATIC
        FUNCALL LCD_clear, SendByte
        LOCFRAME ISTACK, 0, STACK
        LOCFRAME PSTACK, 0, STACK
        LOCFRAME XSTACK, 10, STACK
        LOCFRAME IOVERLAY, 0, STATIC
        LOCFRAME DOVERLAY, 0, STATIC
        ARGFRAME ISTACK, 0, STACK
        ARGFRAME PSTACK, 0, STACK
        ARGFRAME XSTACK, 10, STACK
        ARGFRAME IOVERLAY, 0, STATIC
        ARGFRAME DOVERLAY, 0, STATIC
        FUNCALL LCD_clear, SendByte
        LOCFRAME ISTACK, 0, STACK
        LOCFRAME PSTACK, 0, STACK
        LOCFRAME XSTACK, 10, STACK
        LOCFRAME IOVERLAY, 0, STATIC
        LOCFRAME DOVERLAY, 0, STATIC
        ARGFRAME ISTACK, 0, STACK
        ARGFRAME PSTACK, 0, STACK
        ARGFRAME XSTACK, 10, STACK
        ARGFRAME IOVERLAY, 0, STATIC
        ARGFRAME DOVERLAY, 0, STATIC
        FUNCALL LCD_clear, SendByte
        LOCFRAME ISTACK, 0, STACK
        LOCFRAME PSTACK, 0, STACK
        LOCFRAME XSTACK, 10, STACK
        LOCFRAME IOVERLAY, 0, STATIC
        LOCFRAME DOVERLAY, 0, STATIC
        ARGFRAME ISTACK, 0, STACK
        ARGFRAME PSTACK, 0, STACK
        ARGFRAME XSTACK, 10, STACK
        ARGFRAME IOVERLAY, 0, STATIC
        ARGFRAME DOVERLAY, 0, STATIC
        FUNCALL LCD_clear, SendByte
        LOCFRAME ISTACK, 0, STACK
        LOCFRAME PSTACK, 0, STACK
        LOCFRAME XSTACK, 10, STACK
        LOCFRAME IOVERLAY, 0, STATIC
        LOCFRAME DOVERLAY, 0, STATIC
        ARGFRAME ISTACK, 0, STACK
        ARGFRAME PSTACK, 0, STACK
        ARGFRAME XSTACK, 10, STACK
        ARGFRAME IOVERLAY, 0, STATIC
        ARGFRAME DOVERLAY, 0, STATIC
        FUNCALL LCD_clear, SendByte
        LOCFRAME ISTACK, 0, STACK
        LOCFRAME PSTACK, 0, STACK
        LOCFRAME XSTACK, 10, STACK
        LOCFRAME IOVERLAY, 0, STATIC
        LOCFRAME DOVERLAY, 0, STATIC
        ARGFRAME ISTACK, 0, STACK
        ARGFRAME PSTACK, 0, STACK
        ARGFRAME XSTACK, 10, STACK
        ARGFRAME IOVERLAY, 0, STATIC
        ARGFRAME DOVERLAY, 0, STATIC
        FUNCALL LCD_clear, SendByte
        LOCFRAME ISTACK, 0, STACK
        LOCFRAME PSTACK, 0, STACK
        LOCFRAME XSTACK, 10, STACK
        LOCFRAME IOVERLAY, 0, STATIC
        LOCFRAME DOVERLAY, 0, STATIC
        ARGFRAME ISTACK, 0, STACK
        ARGFRAME PSTACK, 0, STACK
        ARGFRAME XSTACK, 10, STACK
        ARGFRAME IOVERLAY, 0, STATIC
        ARGFRAME DOVERLAY, 0, STATIC
        FUNCALL LCD_clear, SendByte
        LOCFRAME ISTACK, 0, STACK
        LOCFRAME PSTACK, 0, STACK
        LOCFRAME XSTACK, 10, STACK
        LOCFRAME IOVERLAY, 0, STATIC
        LOCFRAME DOVERLAY, 0, STATIC
        ARGFRAME ISTACK, 0, STACK
        ARGFRAME PSTACK, 0, STACK
        ARGFRAME XSTACK, 10, STACK
        ARGFRAME IOVERLAY, 0, STATIC
        ARGFRAME DOVERLAY, 0, STATIC
        FUNCALL LCD_clear, SendByte
        LOCFRAME ISTACK, 0, STACK
        LOCFRAME PSTACK, 0, STACK
        LOCFRAME XSTACK, 10, STACK
        LOCFRAME IOVERLAY, 0, STATIC
        LOCFRAME DOVERLAY, 0, STATIC
        ARGFRAME ISTACK, 0, STACK
        ARGFRAME PSTACK, 0, STACK
        ARGFRAME XSTACK, 10, STACK
        ARGFRAME IOVERLAY, 0, STATIC
        ARGFRAME DOVERLAY, 0, STATIC
        FUNCALL LCD_clear, SendByte
        LOCFRAME ISTACK, 0, STACK
        LOCFRAME PSTACK, 0, STACK
        LOCFRAME XSTACK, 10, STACK
        LOCFRAME IOVERLAY, 0, STATIC
        LOCFRAME DOVERLAY, 0, STATIC
        ARGFRAME ISTACK, 0, STACK
        ARGFRAME PSTACK, 0, STACK
        ARGFRAME XSTACK, 10, STACK
        ARGFRAME IOVERLAY, 0, STATIC
        ARGFRAME DOVERLAY, 0, STATIC
        FUNCALL LCD_clear, SendByte
        LOCFRAME ISTACK, 0, STACK
        LOCFRAME PSTACK, 0, STACK
        LOCFRAME XSTACK, 10, STACK
        LOCFRAME IOVERLAY, 0, STATIC
        LOCFRAME DOVERLAY, 0, STATIC
        ARGFRAME ISTACK, 0, STACK
        ARGFRAME PSTACK, 0, STACK
        ARGFRAME XSTACK, 10, STACK
        ARGFRAME IOVERLAY, 0, STATIC
        ARGFRAME DOVERLAY, 0, STATIC
        FUNCALL LCD_clear, SendByte
        LOCFRAME ISTACK, 0, STACK
        LOCFRAME PSTACK, 0, STACK
        LOCFRAME XSTACK, 10, STACK
        LOCFRAME IOVERLAY, 0, STATIC
        LOCFRAME DOVERLAY, 0, STATIC
        ARGFRAME ISTACK, 0, STACK
        ARGFRAME PSTACK, 0, STACK
        ARGFRAME XSTACK, 10, STACK
        ARGFRAME IOVERLAY, 0, STATIC
        ARGFRAME DOVERLAY, 0, STATIC
        FUNCALL LCD_clear, SendByte
        LOCFRAME ISTACK, 0, STACK
        LOCFRAME PSTACK, 0, STACK
        LOCFRAME XSTACK, 10, STACK
        LOCFRAME IOVERLAY, 0, STATIC
        LOCFRAME DOVERLAY, 0, STATIC
        ARGFRAME ISTACK, 0, STACK
        ARGFRAME PSTACK, 0, STACK
        ARGFRAME XSTACK, 10, STACK
        ARGFRAME IOVERLAY, 0, STATIC
        ARGFRAME DOVERLAY, 0, STATIC
        FUNCALL LCD_clear, SendByte
        LOCFRAME ISTACK, 0, STACK
        LOCFRAME PSTACK, 0, STACK
        LOCFRAME XSTACK, 10, STACK
        LOCFRAME IOVERLAY, 0, STATIC
        LOCFRAME DOVERLAY, 0, STATIC
        ARGFRAME ISTACK, 0, STACK
        ARGFRAME PSTACK, 0, STACK
        ARGFRAME XSTACK, 10, STACK
        ARGFRAME IOVERLAY, 0, STATIC
        ARGFRAME DOVERLAY, 0, STATIC
        FUNCALL LCD_clear, SendByte
        LOCFRAME ISTACK, 0, STACK
        LOCFRAME PSTACK, 0, STACK
        LOCFRAME XSTACK, 10, STACK
        LOCFRAME IOVERLAY, 0, STATIC
        LOCFRAME DOVERLAY, 0, STATIC
        ARGFRAME ISTACK, 0, STACK
        ARGFRAME PSTACK, 0, STACK
        ARGFRAME XSTACK, 10, STACK
        ARGFRAME IOVERLAY, 0, STATIC
        ARGFRAME DOVERLAY, 0, STATIC
        FUNCALL LCD_clear, SendByte
        LOCFRAME ISTACK, 0, STACK
        LOCFRAME PSTACK, 0, STACK
        LOCFRAME XSTACK, 10, STACK
        LOCFRAME IOVERLAY, 0, STATIC
        LOCFRAME DOVERLAY, 0, STATIC
        ARGFRAME ISTACK, 0, STACK
        ARGFRAME PSTACK, 0, STACK
        ARGFRAME XSTACK, 10, STACK
        ARGFRAME IOVERLAY, 0, STATIC
        ARGFRAME DOVERLAY, 0, STATIC
        FUNCALL LCD_clear, SendByte
        LOCFRAME ISTACK, 0, STACK
        LOCFRAME PSTACK, 0, STACK
        LOCFRAME XSTACK, 10, STACK
        LOCFRAME IOVERLAY, 0, STATIC
        LOCFRAME DOVERLAY, 0, STATIC
        ARGFRAME ISTACK, 0, STACK
        ARGFRAME PSTACK, 0, STACK
        ARGFRAME XSTACK, 10, STACK
        ARGFRAME IOVERLAY, 0, STATIC
        ARGFRAME DOVERLAY, 0, STATIC
        FUNCALL LCD_clear, SendByte
        LOCFRAME ISTACK, 0, STACK
        LOCFRAME PSTACK, 0, STACK
        LOCFRAME XSTACK, 10, STACK
        LOCFRAME IOVERLAY, 0, STATIC
        LOCFRAME DOVERLAY, 0, STATIC
        ARGFRAME ISTACK, 0, STACK
        ARGFRAME PSTACK, 0, STACK
        ARGFRAME XSTACK, 10, STACK
        ARGFRAME IOVERLAY, 0, STATIC
        ARGFRAME DOVERLAY, 0, STATIC
        FUNCALL LCD_clear, SendByte
        LOCFRAME ISTACK, 0, STACK
        LOCFRAME PSTACK, 0, STACK
        LOCFRAME XSTACK, 10, STACK
        LOCFRAME IOVERLAY, 0, STATIC
        LOCFRAME DOVERLAY, 0, STATIC
        ARGFRAME ISTACK, 0, STACK
        ARGFRAME PSTACK, 0, STACK
        ARGFRAME XSTACK, 10, STACK
        ARGFRAME IOVERLAY, 0, STATIC
        ARGFRAME DOVERLAY, 0, STATIC
        FUNCALL LCD_clear, SendByte
        LOCFRAME ISTACK, 0, STACK
        LOCFRAME PSTACK, 0, STACK
        LOCFRAME XSTACK, 10, STACK
        LOCFRAME IOVERLAY, 0, STATIC
        LOCFRAME DOVERLAY, 0, STATIC
        ARGFRAME ISTACK, 0, STACK
        ARGFRAME PSTACK, 0, STACK
        ARGFRAME XSTACK, 10, STACK
        ARGFRAME IOVERLAY, 0, STATIC
        ARGFRAME DOVERLAY, 0, STATIC
        FUNCALL LCD_clear, SendByte
        LOCFRAME ISTACK, 0, STACK
        LOCFRAME PSTACK, 0, STACK
        LOCFRAME XSTACK, 10, STACK
        LOCFRAME IOVERLAY, 0, STATIC
        LOCFRAME DOVERLAY, 0, STATIC
        ARGFRAME ISTACK, 0, STACK
        ARGFRAME PSTACK, 0, STACK
        ARGFRAME XSTACK, 10, STACK
        ARGFRAME IOVERLAY, 0, STATIC
        ARGFRAME DOVERLAY, 0, STATIC
        FUNCALL LCD_clear, SendByte
        LOCFRAME ISTACK, 0, STACK
        LOCFRAME PSTACK, 0, STACK
        LOCFRAME XSTACK, 10, STACK
        LOCFRAME IOVERLAY, 0, STATIC
        LOCFRAME DOVERLAY, 0, STATIC
        ARGFRAME ISTACK, 0, STACK
        ARGFRAME PSTACK, 0, STACK
        ARGFRAME XSTACK, 10, STACK
        ARGFRAME IOVERLAY, 0, STATIC
        ARGFRAME DOVERLAY, 0, STATIC
        FUNCALL LCD_clear, SendByte
        LOCFRAME ISTACK, 0, STACK
        LOCFRAME PSTACK, 0, STACK
        LOCFRAME XSTACK, 10, STACK
        LOCFRAME IOVERLAY, 0, STATIC
        LOCFRAME DOVERLAY, 0, STATIC
        ARGFRAME ISTACK, 0, STACK
        ARGFRAME PSTACK, 0, STACK
        ARGFRAME XSTACK, 10, STACK
        ARGFRAME IOVERLAY, 0, STATIC
        ARGFRAME DOVERLAY, 0, STATIC
        FUNCALL LCD_clear, SendByte
        LOCFRAME ISTACK, 0, STACK
        LOCFRAME PSTACK, 0, STACK
        LOCFRAME XSTACK, 10, STACK
        LOCFRAME IOVERLAY, 0, STATIC
        LOCFRAME DOVERLAY, 0, STATIC
        ARGFRAME ISTACK, 0, STACK
        ARGFRAME PSTACK, 0, STACK
        ARGFRAME XSTACK, 10, STACK
        ARGFRAME IOVERLAY, 0, STATIC
        ARGFRAME DOVERLAY, 0, STATIC
        FUNCALL LCD_clear, SendByte
        LOCFRAME ISTACK, 0, STACK
        LOCFRAME PSTACK, 0, STACK
        LOCFRAME XSTACK, 10, STACK
        LOCFRAME IOVERLAY, 0, STATIC
        LOCFRAME DOVERLAY, 0, STATIC
        ARGFRAME ISTACK, 0, STACK
        ARGFRAME PSTACK, 0, STACK
        ARGFRAME XSTACK, 10, STACK
        ARGFRAME IOVERLAY, 0, STATIC
        ARGFRAME DOVERLAY, 0, STATIC
        FUNCALL LCD_clear, SendByte
        LOCFRAME ISTACK, 0, STACK
        LOCFRAME PSTACK, 0, STACK
        LOCFRAME XSTACK, 10, STACK
        LOCFRAME IOVERLAY, 0, STATIC
        LOCFRAME DOVERLAY, 0, STATIC
        ARGFRAME ISTACK, 0, STACK
        ARGFRAME PSTACK, 0, STACK
        ARGFRAME XSTACK, 10, STACK
        ARGFRAME IOVERLAY, 0, STATIC
        ARGFRAME DOVERLAY, 0, STATIC
        FUNCALL LCD_clear, SendByte
        LOCFRAME ISTACK, 0, STACK
        LOCFRAME PSTACK, 0, STACK
        LOCFRAME XSTACK, 10, STACK
        LOCFRAME IOVERLAY, 0, STATIC
        LOCFRAME DOVERLAY, 0, STATIC
        ARGFRAME ISTACK, 0, STACK
        ARGFRAME PSTACK, 0, STACK
        ARGFRAME XSTACK, 10, STACK
        ARGFRAME IOVERLAY, 0, STATIC
        ARGFRAME DOVERLAY, 0, STATIC
        FUNCALL LCD_clear, SendByte
        LOCFRAME ISTACK, 0, STACK
        LOCFRAME PSTACK, 0, STACK
        LOCFRAME XSTACK, 10, STACK
        LOCFRAME IOVERLAY, 0, STATIC
        LOCFRAME DOVERLAY, 0, STATIC
        ARGFRAME ISTACK, 0, STACK
        ARGFRAME PSTACK, 0, STACK
        ARGFRAME XSTACK, 10, STACK
        ARGFRAME IOVERLAY, 0, STATIC
        ARGFRAME DOVERLAY, 0, STATIC
        FUNCALL LCD_clear, SendByte
        LOCFRAME ISTACK, 0, STACK
        LOCFRAME PSTACK, 0, STACK
        LOCFRAME XSTACK, 10, STACK
        LOCFRAME IOVERLAY, 0, STATIC
        LOCFRAME DOVERLAY, 0, STATIC
        ARGFRAME ISTACK, 0, STACK
        ARGFRAME PSTACK, 0, STACK
        ARGFRAME XSTACK, 10, STACK
        ARGFRAME IOVERLAY, 0, STATIC
        ARGFRAME DOVERLAY, 0, STATIC
        FUNCALL LCD_clear, SendByte
        LOCFRAME ISTACK, 0, STACK
        LOCFRAME PSTACK, 0, STACK
        LOCFRAME XSTACK, 10, STACK
        LOCFRAME IOVERLAY, 0, STATIC
        LOCFRAME DOVERLAY, 0, STATIC
        ARGFRAME ISTACK, 0, STACK
        ARGFRAME PSTACK, 0, STACK
        ARGFRAME XSTACK, 10, STACK
        ARGFRAME IOVERLAY, 0, STATIC
        ARGFRAME DOVERLAY, 0, STATIC
        FUNCALL LCD_clear, SendByte
        LOCFRAME ISTACK, 0, STACK
        LOCFRAME PSTACK, 0, STACK
        LOCFRAME XSTACK, 10, STACK
        LOCFRAME IOVERLAY, 0, STATIC
        LOCFRAME DOVERLAY, 0, STATIC
        ARGFRAME ISTACK, 0, STACK
        ARGFRAME PSTACK, 0, STACK
        ARGFRAME XSTACK, 10, STACK
        ARGFRAME IOVERLAY, 0, STATIC
        ARGFRAME DOVERLAY, 0, STATIC
        FUNCALL LCD_clear, SendByte
        LOCFRAME ISTACK, 0, STACK
        LOCFRAME PSTACK, 0, STACK
        LOCFRAME XSTACK, 10, STACK
        LOCFRAME IOVERLAY, 0, STATIC
        LOCFRAME DOVERLAY, 0, STATIC
        ARGFRAME ISTACK, 0, STACK
        ARGFRAME PSTACK, 0, STACK
        ARGFRAME XSTACK, 10, STACK
        ARGFRAME IOVERLAY, 0, STATIC
        ARGFRAME DOVERLAY, 0, STATIC
        FUNCALL LCD_clear, SendByte
        LOCFRAME ISTACK, 0, STACK
        LOCFRAME PSTACK, 0, STACK
        LOCFRAME XSTACK, 10, STACK
        LOCFRAME IOVERLAY, 0, STATIC
        LOCFRAME DOVERLAY, 0, STATIC
        ARGFRAME ISTACK, 0, STACK
        ARGFRAME PSTACK, 0, STACK
        ARGFRAME XSTACK, 10, STACK
        ARGFRAME IOVERLAY, 0, STATIC
        ARGFRAME DOVERLAY, 0, STATIC
        FUNCALL LCD_clear, SendByte
        LOCFRAME ISTACK, 0, STACK
        LOCFRAME PSTACK, 0, STACK
        LOCFRAME XSTACK, 10, STACK
        LOCFRAME IOVERLAY, 0, STATIC
        LOCFRAME DOVERLAY, 0, STATIC
        ARGFRAME ISTACK, 0, STACK
        ARGFRAME PSTACK, 0, STACK
        ARGFRAME XSTACK, 10, STACK
        ARGFRAME IOVERLAY, 0, STATIC
        ARGFRAME DOVERLAY, 0, STATIC
        FUNCALL LCD_clear, SendByte
        LOCFRAME ISTACK, 0, STACK
        LOCFRAME PSTACK, 0, STACK
        LOCFRAME XSTACK, 10, STACK
        LOCFRAME IOVERLAY, 0, STATIC
        LOCFRAME DOVERLAY, 0, STATIC
        ARGFRAME ISTACK, 0, STACK
        ARGFRAME PSTACK, 0, STACK
        ARGFRAME XSTACK, 10, STACK
        ARGFRAME IOVERLAY, 0, STATIC
        ARGFRAME DOVERLAY, 0, STATIC
        FUNCALL LCD_clear, SendByte
        LOCFRAME ISTACK, 0, STACK
        LOCFRAME PSTACK, 0, STACK
        LOCFRAME XSTACK, 10, STACK
        LOCFRAME IOVERLAY, 0, STATIC
        LOCFRAME DOVERLAY, 0, STATIC
        ARGFRAME ISTACK, 0, STACK
        ARGFRAME PSTACK, 0, STACK
        ARGFRAME XSTACK, 10, STACK
        ARGFRAME IOVERLAY, 0, STATIC
        ARGFRAME DOVERLAY, 0, STATIC
        FUNCALL LCD_clear, SendByte
        LOCFRAME ISTACK, 0, STACK
        LOCFRAME PSTACK, 0, STACK
        LOCFRAME XSTACK, 10, STACK
        LOCFRAME IOVERLAY, 0, STATIC
        LOCFRAME DOVERLAY, 0, STATIC
        ARGFRAME ISTACK, 0, STACK
        ARGFRAME PSTACK, 0, STACK
        ARGFRAME XSTACK, 10, STACK
        ARGFRAME IOVERLAY, 0, STATIC
        ARGFRAME DOVERLAY, 0, STATIC
        FUNCALL LCD_clear, SendByte
        LOCFRAME ISTACK, 0, STACK
        LOCFRAME PSTACK, 0, STACK
        LOCFRAME XSTACK, 10, STACK
        LOCFRAME IOVERLAY, 0, STATIC
        LOCFRAME DOVERLAY, 0, STATIC
        ARGFRAME ISTACK, 0, STACK
        ARGFRAME PSTACK, 0, STACK
        ARGFRAME XSTACK, 10, STACK
        ARGFRAME IOVERLAY, 0, STATIC
        ARGFRAME DOVERLAY, 0, STATIC
        FUNCALL LCD_clear, SendByte
        LOCFRAME ISTACK, 0, STACK
        LOCFRAME PSTACK, 0, STACK
        LOCFRAME XSTACK, 10, STACK
        LOCFRAME IOVERLAY, 0, STATIC
        LOCFRAME DOVERLAY, 0, STATIC
        ARGFRAME ISTACK, 0, STACK
        ARGFRAME PSTACK, 0, STACK
        ARGFRAME XSTACK, 10, STACK
        ARGFRAME IOVERLAY, 0, STATIC
        ARGFRAME DOVERLAY, 0, STATIC
        FUNCALL LCD_clear, SendByte
        LOCFRAME ISTACK, 0, STACK
        LOCFRAME PSTACK, 0, STACK
        LOCFRAME XSTACK, 10, STACK
        LOCFRAME IOVERLAY, 0, STATIC
        LOCFRAME DOVERLAY, 0, STATIC
        ARGFRAME ISTACK, 0, STACK
        ARGFRAME PSTACK, 0, STACK
        ARGFRAME XSTACK, 10, STACK
        ARGFRAME IOVERLAY, 0, STATIC
        ARGFRAME DOVERLAY, 0, STATIC
        FUNCALL LCD_clear, SendByte
        LOCFRAME ISTACK, 0, STACK
        LOCFRAME PSTACK, 0, STACK
        LOCFRAME XSTACK, 10, STACK
        LOCFRAME IOVERLAY, 0, STATIC
        LOCFRAME DOVERLAY, 0, STATIC
        ARGFRAME ISTACK, 0, STACK
        ARGFRAME PSTACK, 0, STACK
        ARGFRAME XSTACK, 10, STACK
        ARGFRAME IOVERLAY, 0, STATIC
        ARGFRAME DOVERLAY, 0, STATIC
        FUNCALL LCD_clear, SendByte
        LOCFRAME ISTACK, 0, STACK
        LOCFRAME PSTACK, 0, STACK
        LOCFRAME XSTACK, 10, STACK
        LOCFRAME IOVERLAY, 0, STATIC
        LOCFRAME DOVERLAY, 0, STATIC
        ARGFRAME ISTACK, 0, STACK
        ARGFRAME PSTACK, 0, STACK
        ARGFRAME XSTACK, 10, STACK
        ARGFRAME IOVERLAY, 0, STATIC
        ARGFRAME DOVERLAY, 0, STATIC
        FUNCALL LCD_clear, SendByte
        LOCFRAME ISTACK, 0, STACK
        LOCFRAME PSTACK, 0, STACK
        LOCFRAME XSTACK, 10, STACK
        LOCFRAME IOVERLAY, 0, STATIC
        LOCFRAME DOVERLAY, 0, STATIC
        ARGFRAME ISTACK, 0, STACK
        ARGFRAME PSTACK, 0, STACK
        ARGFRAME XSTACK, 10, STACK
        ARGFRAME IOVERLAY, 0, STATIC
        ARGFRAME DOVERLAY, 0, STATIC
        FUNCALL LCD_clear, SendByte
        LOCFRAME ISTACK, 0, STACK
        LOCFRAME PSTACK, 0, STACK
        LOCFRAME XSTACK, 10, STACK
        LOCFRAME IOVERLAY, 0, STATIC
        LOCFRAME DOVERLAY, 0, STATIC
        ARGFRAME ISTACK, 0, STACK
        ARGFRAME PSTACK, 0, STACK
        ARGFRAME XSTACK, 10, STACK
        ARGFRAME IOVERLAY, 0, STATIC
        ARGFRAME DOVERLAY, 0, STATIC
        FUNCALL LCD_clear, SendByte
        LOCFRAME ISTACK, 0, STACK
        LOCFRAME PSTACK, 0, STACK
        LOCFRAME XSTACK, 10, STACK
        LOCFRAME IOVERLAY, 0, STATIC
        LOCFRAME DOVERLAY, 0, STATIC
        ARGFRAME ISTACK, 0, STACK
        ARGFRAME PSTACK, 0, STACK
        ARGFRAME XSTACK, 10, STACK
        ARGFRAME IOVERLAY, 0, STATIC
        ARGFRAME DOVERLAY, 0, STATIC
        FUNCALL LCD_clear, SendByte
        LOCFRAME ISTACK, 0, STACK
        LOCFRAME PSTACK, 0, STACK
        LOCFRAME XSTACK, 10, STACK
        LOCFRAME IOVERLAY, 0, STATIC
        LOCFRAME DOVERLAY, 0, STATIC
        ARGFRAME ISTACK, 0, STACK
        ARGFRAME PSTACK, 0, STACK
        ARGFRAME XSTACK, 10, STACK
        ARGFRAME IOVERLAY, 0, STATIC
        ARGFRAME DOVERLAY, 0, STATIC
        FUNCALL LCD_clear, SendByte
        LOCFRAME ISTACK, 0, STACK
        LOCFRAME PSTACK, 0, STACK
        LOCFRAME XSTACK, 10, STACK
        LOCFRAME IOVERLAY, 0, STATIC
        LOCFRAME DOVERLAY, 0, STATIC
        ARGFRAME ISTACK, 0, STACK
        ARGFRAME PSTACK, 0, STACK
        ARGFRAME XSTACK, 10, STACK
        ARGFRAME IOVERLAY, 0, STATIC
        ARGFRAME DOVERLAY, 0, STATIC
        FUNCALL LCD_clear, SendByte
        LOCFRAME ISTACK, 0, STACK
        LOCFRAME PSTACK, 0, STACK
        LOCFRAME XSTACK, 10, STACK
        LOCFRAME IOVERLAY, 0, STATIC
        LOCFRAME DOVERLAY, 0, STATIC
        ARGFRAME ISTACK, 0, STACK
        ARGFRAME PSTACK, 0, STACK
        ARGFRAME XSTACK, 10, STACK
        ARGFRAME IOVERLAY, 0, STATIC
        ARGFRAME DOVERLAY, 0, STATIC
        FUNCALL LCD_clear, SendByte
        LOCFRAME ISTACK, 0, STACK
        LOCFRAME PSTACK, 0, STACK
        LOCFRAME XSTACK, 10, STACK
        LOCFRAME IOVERLAY, 0, STATIC
        LOCFRAME DOVERLAY, 0, STATIC
        ARGFRAME ISTACK, 0, STACK
        ARGFRAME PSTACK, 0, STACK
        ARGFRAME XSTACK, 10, STACK
        ARGFRAME IOVERLAY, 0, STATIC
        ARGFRAME DOVERLAY, 0, STATIC
        FUNCALL LCD_clear, SendByte
        LOCFRAME ISTACK, 0, STACK
        LOCFRAME PSTACK, 0, STACK
        LOCFRAME XSTACK, 10, STACK
        LOCFRAME IOVERLAY, 0, STATIC
        LOCFRAME DOVERLAY, 0, STATIC
        ARGFRAME ISTACK, 0, STACK
        ARGFRAME PSTACK, 0, STACK
        ARGFRAME XSTACK, 10, STACK
        ARGFRAME IOVERLAY, 0, STATIC
        ARGFRAME DOVERLAY, 0, STATIC
        FUNCALL LCD_clear, SendByte
        LOCFRAME ISTACK, 0, STACK
        LOCFRAME PSTACK, 0, STACK
        LOCFRAME XSTACK, 10, STACK
        LOCFRAME IOVERLAY, 0, STATIC
        LOCFRAME DOVERLAY, 0, STATIC
        ARGFRAME ISTACK, 0, STACK
        ARGFRAME PSTACK, 0, STACK
        ARGFRAME XSTACK, 10, STACK
        ARGFRAME IOVERLAY, 0, STATIC
        ARGFRAME DOVERLAY, 0, STATIC
        FUNCALL LCD_clear, SendByte
        LOCFRAME ISTACK, 0, STACK
        LOCFRAME PSTACK, 0, STACK
        LOCFRAME XSTACK, 10, STACK
        LOCFRAME IOVERLAY, 0, STATIC
        LOCFRAME DOVERLAY, 0, STATIC
        ARGFRAME ISTACK, 0, STACK
        ARGFRAME PSTACK, 0, STACK
        ARGFRAME XSTACK, 10, STACK
        ARGFRAME IOVERLAY, 0, STATIC
        ARGFRAME DOVERLAY, 0, STATIC
        FUNCALL LCD_clear, SendByte
        LOCFRAME ISTACK, 0, STACK
        LOCFRAME PSTACK, 0, STACK
        LOCFRAME XSTACK, 10, STACK
        LOCFRAME IOVERLAY, 0, STATIC
        LOCFRAME DOVERLAY, 0, STATIC
        ARGFRAME ISTACK, 0, STACK
        ARGFRAME PSTACK, 0, STACK
        ARGFRAME XSTACK, 10, STACK
        ARGFRAME IOVERLAY, 0, STATIC
        ARGFRAME DOVERLAY, 0, STATIC
        FUNCALL LCD_clear, SendByte
        LOCFRAME ISTACK, 0, STACK
        LOCFRAME PSTACK, 0, STACK
        LOCFRAME XSTACK, 10, STACK
        LOCFRAME IOVERLAY, 0, STATIC
        LOCFRAME DOVERLAY, 0, STATIC
        ARGFRAME ISTACK, 0, STACK
        ARGFRAME PSTACK, 0, STACK
        ARGFRAME XSTACK, 10, STACK
        ARGFRAME IOVERLAY, 0, STATIC
        ARGFRAME DOVERLAY, 0, STATIC
        FUNCALL LCD_clear, SendByte
        LOCFRAME ISTACK, 0, STACK
        LOCFRAME PSTACK, 0, STACK
        LOCFRAME XSTACK, 10, STACK
        LOCFRAME IOVERLAY, 0, STATIC
        LOCFRAME DOVERLAY, 0, STATIC
        ARGFRAME ISTACK, 0, STACK
        ARGFRAME PSTACK, 0, STACK
        ARGFRAME XSTACK, 10, STACK
        ARGFRAME IOVERLAY, 0, STATIC
        ARGFRAME DOVERLAY, 0, STATIC
        FUNCALL LCD_clear, SendByte
        LOCFRAME ISTACK, 0, STACK
        LOCFRAME PSTACK, 0, STACK
        LOCFRAME XSTACK, 10, STACK
        LOCFRAME IOVERLAY, 0, STATIC
        LOCFRAME DOVERLAY, 0, STATIC
        ARGFRAME ISTACK, 0, STACK
        ARGFRAME PSTACK, 0, STACK
        ARGFRAME XSTACK, 10, STACK
        ARGFRAME IOVERLAY, 0, STATIC
        ARGFRAME DOVERLAY, 0, STATIC
        FUNCALL LCD_clear, SendByte
        LOCFRAME ISTACK, 0, STACK
        LOCFRAME PSTACK, 0, STACK
        LOCFRAME XSTACK, 10, STACK
        LOCFRAME IOVERLAY, 0, STATIC
        LOCFRAME DOVERLAY, 0, STATIC
        ARGFRAME ISTACK, 0, STACK
        ARGFRAME PSTACK, 0, STACK
        ARGFRAME XSTACK, 10, STACK
        ARGFRAME IOVERLAY, 0, STATIC
        ARGFRAME DOVERLAY, 0, STATIC
        FUNCALL LCD_clear, SendByte
        LOCFRAME ISTACK, 0, STACK
        LOCFRAME PSTACK, 0, STACK
        LOCFRAME XSTACK, 10, STACK
        LOCFRAME IOVERLAY, 0, STATIC
        LOCFRAME DOVERLAY, 0, STATIC
        ARGFRAME ISTACK, 0, STACK
        ARGFRAME PSTACK, 0, STACK
        ARGFRAME XSTACK, 10, STACK
        ARGFRAME IOVERLAY, 0, STATIC
        ARGFRAME DOVERLAY, 0, STATIC
        FUNCALL LCD_clear, SendByte
        LOCFRAME ISTACK, 0, STACK
        LOCFRAME PSTACK, 0, STACK
        LOCFRAME XSTACK, 10, STACK
        LOCFRAME IOVERLAY, 0, STATIC
        LOCFRAME DOVERLAY, 0, STATIC
        ARGFRAME ISTACK, 0, STACK
        ARGFRAME PSTACK, 0, STACK
        ARGFRAME XSTACK, 10, STACK
        ARGFRAME IOVERLAY, 0, STATIC
        ARGFRAME DOVERLAY, 0, STATIC
        FUNCALL LCD_clear, SendByte
        LOCFRAME ISTACK, 0, STACK
        LOCFRAME PSTACK, 0, STACK
        LOCFRAME XSTACK, 10, STACK
        LOCFRAME IOVERLAY, 0, STATIC
        LOCFRAME DOVERLAY, 0, STATIC
        ARGFRAME ISTACK, 0, STACK
        ARGFRAME PSTACK, 0, STACK
        ARGFRAME XSTACK, 10, STACK
        ARGFRAME IOVERLAY, 0, STATIC
        ARGFRAME DOVERLAY, 0, STATIC
        FUNCALL LCD_clear, SendByte
        LOCFRAME ISTACK, 0, STACK
        LOCFRAME PSTACK, 0, STACK
        LOCFRAME XSTACK, 10, STACK
        LOCFRAME IOVERLAY, 0, STATIC
        LOCFRAME DOVERLAY, 0, STATIC
        ARGFRAME ISTACK, 0, STACK
        ARGFRAME PSTACK, 0, STACK
        ARGFRAME XSTACK, 10, STACK
        ARGFRAME IOVERLAY, 0, STATIC
        ARGFRAME DOVERLAY, 0, STATIC
        FUNCALL LCD_clear, SendByte
        LOCFRAME ISTACK, 0, STACK
        LOCFRAME PSTACK, 0, STACK
        LOCFRAME XSTACK, 10, STACK
        LOCFRAME IOVERLAY, 0, STATIC
        LOCFRAME DOVERLAY, 0, STATIC
        ARGFRAME ISTACK, 0, STACK
        ARGFRAME PSTACK, 0, STACK
        ARGFRAME XSTACK, 10, STACK
        ARGFRAME IOVERLAY, 0, STATIC
        ARGFRAME DOVERLAY, 0, STATIC
        FUNCALL LCD_clear, SendByte
        LOCFRAME ISTACK, 0, STACK
        LOCFRAME PSTACK, 0, STACK
        LOCFRAME XSTACK, 10, STACK
        LOCFRAME IOVERLAY, 0, STATIC
        LOCFRAME DOVERLAY, 0, STATIC
        ARGFRAME ISTACK, 0, STACK
        ARGFRAME PSTACK, 0, STACK
        ARGFRAME XSTACK, 10, STACK
        ARGFRAME IOVERLAY, 0, STATIC
        ARGFRAME DOVERLAY, 0, STATIC
        FUNCALL LCD_clear, SendByte
        LOCFRAME ISTACK, 0, STACK
        LOCFRAME PSTACK, 0, STACK
        LOCFRAME XSTACK, 10, STACK
        LOCFRAME IOVERLAY, 0, STATIC
        LOCFRAME DOVERLAY, 0, STATIC
        ARGFRAME ISTACK, 0, STACK
        ARGFRAME PSTACK, 0, STACK
        ARGFRAME XSTACK, 10, STACK
        ARGFRAME IOVERLAY, 0, STATIC
        ARGFRAME DOVERLAY, 0, STATIC
        FUNCALL LCD_clear, SendByte
        LOCFRAME ISTACK, 0, STACK
        LOCFRAME PSTACK, 0, STACK
        LOCFRAME XSTACK, 10, STACK
        LOCFRAME IOVERLAY, 0, STATIC
        LOCFRAME DOVERLAY, 0, STATIC
        ARGFRAME ISTACK, 0, STACK
        ARGFRAME PSTACK, 0, STACK
        ARGFRAME XSTACK, 10, STACK
        ARGFRAME IOVERLAY, 0, STATIC
        ARGFRAME DOVERLAY, 0, STATIC
        FUNCALL LCD_clear, SendByte
        LOCFRAME ISTACK, 0, STACK
        LOCFRAME PSTACK, 0, STACK
        LOCFRAME XSTACK, 10, STACK
        LOCFRAME IOVERLAY, 0, STATIC
        LOCFRAME DOVERLAY, 0, STATIC
        ARGFRAME ISTACK, 0, STACK
        ARGFRAME PSTACK, 0, STACK
        ARGFRAME XSTACK, 10, STACK
        ARGFRAME IOVERLAY, 0, STATIC
        ARGFRAME DOVERLAY, 0, STATIC
        FUNCALL LCD_clear, SendByte
        LOCFRAME ISTACK, 0, STACK
        LOCFRAME PSTACK, 0, STACK
        LOCFRAME XSTACK, 10, STACK
        LOCFRAME IOVERLAY, 0, STATIC
        LOCFRAME DOVERLAY, 0, STATIC
        ARGFRAME ISTACK, 0, STACK
        ARGFRAME PSTACK, 0, STACK
        ARGFRAME XSTACK, 10, STACK
        ARGFRAME IOVERLAY, 0, STATIC
        ARGFRAME DOVERLAY, 0, STATIC
        FUNCALL LCD_clear, SendByte
        LOCFRAME ISTACK, 0, STACK
        LOCFRAME PSTACK, 0, STACK
        LOCFRAME XSTACK, 10, STACK
        LOCFRAME IOVERLAY, 0, STATIC
        LOCFRAME DOVERLAY, 0, STATIC
        ARGFRAME ISTACK, 0, STACK
        ARGFRAME PSTACK, 0, STACK
        ARGFRAME XSTACK, 10, STACK
        ARGFRAME IOVERLAY, 0, STATIC
        ARGFRAME DOVERLAY, 0, STATIC
        FUNCALL LCD_clear, SendByte
        LOCFRAME ISTACK, 0, STACK
        LOCFRAME PSTACK, 0, STACK
        LOCFRAME XSTACK, 10, STACK
        LOCFRAME IOVERLAY, 0, STATIC
        LOCFRAME DOVERLAY, 0, STATIC
        ARGFRAME ISTACK, 0, STACK
        ARGFRAME PSTACK, 0, STACK
        ARGFRAME XSTACK, 10, STACK
        ARGFRAME IOVERLAY, 0, STATIC
        ARGFRAME DOVERLAY, 0, STATIC
        FUNCALL LCD_clear, SendByte
        LOCFRAME ISTACK, 0, STACK
        LOCFRAME PSTACK, 0, STACK
        LOCFRAME XSTACK, 10, STACK
        LOCFRAME IOVERLAY, 0, STATIC
        LOCFRAME DOVERLAY, 0, STATIC
        ARGFRAME ISTACK, 0, STACK
        ARGFRAME PSTACK, 0, STACK
        ARGFRAME XSTACK, 10, STACK
        ARGFRAME IOVERLAY, 0, STATIC
        ARGFRAME DOVERLAY, 0, STATIC
        FUNCALL LCD_clear, SendByte
        LOCFRAME ISTACK, 0, STACK
        LOCFRAME PSTACK, 0, STACK
        LOCFRAME XSTACK, 10, STACK
        LOCFRAME IOVERLAY, 0, STATIC
        LOCFRAME DOVERLAY, 0, STATIC
        ARGFRAME ISTACK, 0, STACK
        ARGFRAME PSTACK, 0, STACK
        ARGFRAME XSTACK, 10, STACK
        ARGFRAME IOVERLAY, 0, STATIC
        ARGFRAME DOVERLAY, 0, STATIC
        FUNCALL LCD_clear, SendByte
        LOCFRAME ISTACK, 0, STACK
        LOCFRAME PSTACK, 0, STACK
        LOCFRAME XSTACK, 10, STACK
        LOCFRAME IOVERLAY, 0, STATIC
        LOCFRAME DOVERLAY, 0, STATIC
        ARGFRAME ISTACK, 0, STACK
        ARGFRAME PSTACK, 0, STACK
        ARGFRAME XSTACK, 10, STACK
        ARGFRAME IOVERLAY, 0, STATIC
        ARGFRAME DOVERLAY, 0, STATIC
        FUNCALL LCD_clear, SendByte
        LOCFRAME ISTACK, 0, STACK
        LOCFRAME PSTACK, 0, STACK
        LOCFRAME XSTACK, 10, STACK
        LOCFRAME IOVERLAY, 0, STATIC
        LOCFRAME DOVERLAY, 0, STATIC
        ARGFRAME ISTACK, 0, STACK
        ARGFRAME PSTACK, 0, STACK
        ARGFRAME XSTACK, 10, STACK
        ARGFRAME IOVERLAY, 0, STATIC
        ARGFRAME DOVERLAY, 0, STATIC
        FUNCALL LCD_clear, SendByte
        LOCFRAME ISTACK, 0, STACK
        LOCFRAME PSTACK, 0, STACK
        LOCFRAME XSTACK, 10, STACK
        LOCFRAME IOVERLAY, 0, STATIC
        LOCFRAME DOVERLAY, 0, STATIC
        ARGFRAME ISTACK, 0, STACK
        ARGFRAME PSTACK, 0, STACK
        ARGFRAME XSTACK, 10, STACK
        ARGFRAME IOVERLAY, 0, STATIC
        ARGFRAME DOVERLAY, 0, STATIC
        FUNCALL LCD_clear, SendByte
        LOCFRAME ISTACK, 0, STACK
        LOCFRAME PSTACK, 0, STACK
        LOCFRAME XSTACK, 10, STACK
        LOCFRAME IOVERLAY, 0, STATIC
        LOCFRAME DOVERLAY, 0, STATIC
        ARGFRAME ISTACK, 0, STACK
        ARGFRAME PSTACK, 0, STACK
        ARGFRAME XSTACK, 10, STACK
        ARGFRAME IOVERLAY, 0, STATIC
        ARGFRAME DOVERLAY, 0, STATIC
        FUNCALL LCD_clear, SendByte
        LOCFRAME ISTACK, 0, STACK
        LOCFRAME PSTACK, 0, STACK
        LOCFRAME XSTACK, 10, STACK
        LOCFRAME IOVERLAY, 0, STATIC
        LOCFRAME DOVERLAY, 0, STATIC
        ARGFRAME ISTACK, 0, STACK
        ARGFRAME PSTACK, 0, STACK
        ARGFRAME XSTACK, 10, STACK
        ARGFRAME IOVERLAY, 0, STATIC
        ARGFRAME DOVERLAY, 0, STATIC
        FUNCALL LCD_clear, SendByte
        LOCFRAME ISTACK, 0, STACK
        LOCFRAME PSTACK, 0, STACK
        LOCFRAME XSTACK, 10, STACK
        LOCFRAME IOVERLAY, 0, STATIC
        LOCFRAME DOVERLAY, 0, STATIC
        ARGFRAME ISTACK, 0, STACK
        ARGFRAME PSTACK, 0, STACK
        ARGFRAME XSTACK, 10, STACK
        ARGFRAME IOVERLAY, 0, STATIC
        ARGFRAME DOVERLAY, 0, STATIC
        FUNCALL LCD_clear, SendByte
        LOCFRAME ISTACK, 0, STACK
        LOCFRAME PSTACK, 0, STACK
        LOCFRAME XSTACK, 10, STACK
        LOCFRAME IOVERLAY, 0, STATIC
        LOCFRAME DOVERLAY, 0, STATIC
        ARGFRAME ISTACK, 0, STACK
        ARGFRAME PSTACK, 0, STACK
        ARGFRAME XSTACK, 10, STACK
        ARGFRAME IOVERLAY, 0, STATIC
        ARGFRAME DOVERLAY, 0, STATIC
        FUNCALL LCD_clear, SendByte
        LOCFRAME ISTACK, 0, STACK
        LOCFRAME PSTACK, 0, STACK
        LOCFRAME XSTACK, 10, STACK
        LOCFRAME IOVERLAY, 0, STATIC
        LOCFRAME DOVERLAY, 0, STATIC
        ARGFRAME ISTACK, 0, STACK
        ARGFRAME PSTACK, 0, STACK
        ARGFRAME XSTACK, 10, STACK
        ARGFRAME IOVERLAY, 0, STATIC
        ARGFRAME DOVERLAY, 0, STATIC
        REQUIRE ?V0
        REQUIRE ?V1
        MOV     A,#-0xa
        LCALL   ?BANKED_ENTER_XDATA
          CFI DPH0 load(1, XDATA, add(CFA_XSP16, literal(-1)))
          CFI DPL0 load(1, XDATA, add(CFA_XSP16, literal(-2)))
          CFI ?BRET_EXT load(1, XDATA, add(CFA_XSP16, literal(-3)))
          CFI ?RET_HIGH load(1, XDATA, add(CFA_XSP16, literal(-4)))
          CFI ?RET_LOW load(1, XDATA, add(CFA_XSP16, literal(-5)))
          CFI R7 load(1, XDATA, add(CFA_XSP16, literal(-6)))
          CFI V1 load(1, XDATA, add(CFA_XSP16, literal(-7)))
          CFI V0 load(1, XDATA, add(CFA_XSP16, literal(-8)))
          CFI VB load(1, XDATA, add(CFA_XSP16, literal(-9)))
          CFI R6 load(1, XDATA, add(CFA_XSP16, literal(-10)))
          CFI CFA_SP SP+0
          CFI CFA_XSP16 add(XSP16, 10)
        ; Saved register size: 10
        ; Auto size: 0
        MOV     A,R2
        MOV     R6,A
        MOV     A,R3
        MOV     R7,A
//  755   register unsigned int  i=0,j=0;
//  756   register unsigned char ch;
//  757   register unsigned char cl;
//  758   
//  759   LCD_set_window(0,0,X_MAX_PIXEL,Y_MAX_PIXEL);
        ; Setup parameters for call to function LCD_set_window
        MOV     ?V0,#-0x80
        MOV     ?V1,#0x0
        MOV     R0,#?V0
        LCALL   ?PUSH_XSTACK_I_TWO
          CFI CFA_XSP16 add(XSP16, 12)
        MOV     R0,#?V0
        LCALL   ?PUSH_XSTACK_I_TWO
          CFI CFA_XSP16 add(XSP16, 14)
        MOV     R4,#0x0
        MOV     R5,#0x0
        MOV     R2,#0x0
        MOV     R3,#0x0
        LCALL   `??LCD_set_window::?relay`; Banked call to: LCD_set_window
        MOV     A,#0x4
        LCALL   ?DEALLOC_XSTACK8
          CFI CFA_XSP16 add(XSP16, 10)
//  760   ch = color>>8;
        MOV     A,R7
        MOV     ?V0,A
//  761   cl = color&0xFF;
        MOV     A,R6
        MOV     R6,A
//  762   LCD_write_byte(0x2C,LCD_COMMAND);
        ; Setup parameters for call to function LCD_write_byte
        MOV     R2,#0x0
        MOV     R1,#0x2c
        LCALL   `??LCD_write_byte::?relay`; Banked call to: LCD_write_byte
//  763   //LCD_CS_CLR;
//  764   LCD_DC_SET;
        SETB    0x80.0
//  765   for (i=0;i<Y_MAX_PIXEL;i++)
        MOV     ?V1,#-0x80
//  766     for (j=0;j<2;j++)
??LCD_clear_0:
        MOV     R7,#0x2
//  767     {
//  768       SendByte(ch);
??LCD_clear_1:
        ; Setup parameters for call to function SendByte
        MOV     R1,?V0
        LCALL   `??SendByte::?relay` ; Banked call to: SendByte
//  769       SendByte(cl);
        ; Setup parameters for call to function SendByte
        MOV     A,R6
        MOV     R1,A
        LCALL   `??SendByte::?relay` ; Banked call to: SendByte
//  770       SendByte(ch);
        ; Setup parameters for call to function SendByte
        MOV     R1,?V0
        LCALL   `??SendByte::?relay` ; Banked call to: SendByte
//  771       SendByte(cl);
        ; Setup parameters for call to function SendByte
        MOV     A,R6
        MOV     R1,A
        LCALL   `??SendByte::?relay` ; Banked call to: SendByte
//  772       SendByte(ch);
        ; Setup parameters for call to function SendByte
        MOV     R1,?V0
        LCALL   `??SendByte::?relay` ; Banked call to: SendByte
//  773       SendByte(cl);
        ; Setup parameters for call to function SendByte
        MOV     A,R6
        MOV     R1,A
        LCALL   `??SendByte::?relay` ; Banked call to: SendByte
//  774       SendByte(ch);
        ; Setup parameters for call to function SendByte
        MOV     R1,?V0
        LCALL   `??SendByte::?relay` ; Banked call to: SendByte
//  775       SendByte(cl);
        ; Setup parameters for call to function SendByte
        MOV     A,R6
        MOV     R1,A
        LCALL   `??SendByte::?relay` ; Banked call to: SendByte
//  776       SendByte(ch);
        ; Setup parameters for call to function SendByte
        MOV     R1,?V0
        LCALL   `??SendByte::?relay` ; Banked call to: SendByte
//  777       SendByte(cl);
        ; Setup parameters for call to function SendByte
        MOV     A,R6
        MOV     R1,A
        LCALL   `??SendByte::?relay` ; Banked call to: SendByte
//  778       SendByte(ch);
        ; Setup parameters for call to function SendByte
        MOV     R1,?V0
        LCALL   `??SendByte::?relay` ; Banked call to: SendByte
//  779       SendByte(cl);
        ; Setup parameters for call to function SendByte
        MOV     A,R6
        MOV     R1,A
        LCALL   `??SendByte::?relay` ; Banked call to: SendByte
//  780       SendByte(ch);
        ; Setup parameters for call to function SendByte
        MOV     R1,?V0
        LCALL   `??SendByte::?relay` ; Banked call to: SendByte
//  781       SendByte(cl);
        ; Setup parameters for call to function SendByte
        MOV     A,R6
        MOV     R1,A
        LCALL   `??SendByte::?relay` ; Banked call to: SendByte
//  782       SendByte(ch);
        ; Setup parameters for call to function SendByte
        MOV     R1,?V0
        LCALL   `??SendByte::?relay` ; Banked call to: SendByte
//  783       SendByte(cl);
        ; Setup parameters for call to function SendByte
        MOV     A,R6
        MOV     R1,A
        LCALL   `??SendByte::?relay` ; Banked call to: SendByte
//  784       SendByte(ch);
        ; Setup parameters for call to function SendByte
        MOV     R1,?V0
        LCALL   `??SendByte::?relay` ; Banked call to: SendByte
//  785       SendByte(cl);
        ; Setup parameters for call to function SendByte
        MOV     A,R6
        MOV     R1,A
        LCALL   `??SendByte::?relay` ; Banked call to: SendByte
//  786       SendByte(ch);
        ; Setup parameters for call to function SendByte
        MOV     R1,?V0
        LCALL   `??SendByte::?relay` ; Banked call to: SendByte
//  787       SendByte(cl);
        ; Setup parameters for call to function SendByte
        MOV     A,R6
        MOV     R1,A
        LCALL   `??SendByte::?relay` ; Banked call to: SendByte
//  788       SendByte(ch);
        ; Setup parameters for call to function SendByte
        MOV     R1,?V0
        LCALL   `??SendByte::?relay` ; Banked call to: SendByte
//  789       SendByte(cl);
        ; Setup parameters for call to function SendByte
        MOV     A,R6
        MOV     R1,A
        LCALL   `??SendByte::?relay` ; Banked call to: SendByte
//  790       SendByte(ch);
        ; Setup parameters for call to function SendByte
        MOV     R1,?V0
        LCALL   `??SendByte::?relay` ; Banked call to: SendByte
//  791       SendByte(cl);
        ; Setup parameters for call to function SendByte
        MOV     A,R6
        MOV     R1,A
        LCALL   `??SendByte::?relay` ; Banked call to: SendByte
//  792       SendByte(ch);
        ; Setup parameters for call to function SendByte
        MOV     R1,?V0
        LCALL   `??SendByte::?relay` ; Banked call to: SendByte
//  793       SendByte(cl);
        ; Setup parameters for call to function SendByte
        MOV     A,R6
        MOV     R1,A
        LCALL   `??SendByte::?relay` ; Banked call to: SendByte
//  794       SendByte(ch);
        ; Setup parameters for call to function SendByte
        MOV     R1,?V0
        LCALL   `??SendByte::?relay` ; Banked call to: SendByte
//  795       SendByte(cl);
        ; Setup parameters for call to function SendByte
        MOV     A,R6
        MOV     R1,A
        LCALL   `??SendByte::?relay` ; Banked call to: SendByte
//  796       SendByte(ch);
        ; Setup parameters for call to function SendByte
        MOV     R1,?V0
        LCALL   `??SendByte::?relay` ; Banked call to: SendByte
//  797       SendByte(cl);
        ; Setup parameters for call to function SendByte
        MOV     A,R6
        MOV     R1,A
        LCALL   `??SendByte::?relay` ; Banked call to: SendByte
//  798       SendByte(ch);
        ; Setup parameters for call to function SendByte
        MOV     R1,?V0
        LCALL   `??SendByte::?relay` ; Banked call to: SendByte
//  799       SendByte(cl);
        ; Setup parameters for call to function SendByte
        MOV     A,R6
        MOV     R1,A
        LCALL   `??SendByte::?relay` ; Banked call to: SendByte
//  800       SendByte(ch);
        ; Setup parameters for call to function SendByte
        MOV     R1,?V0
        LCALL   `??SendByte::?relay` ; Banked call to: SendByte
//  801       SendByte(cl);
        ; Setup parameters for call to function SendByte
        MOV     A,R6
        MOV     R1,A
        LCALL   `??SendByte::?relay` ; Banked call to: SendByte
//  802       SendByte(ch);
        ; Setup parameters for call to function SendByte
        MOV     R1,?V0
        LCALL   `??SendByte::?relay` ; Banked call to: SendByte
//  803       SendByte(cl);
        ; Setup parameters for call to function SendByte
        MOV     A,R6
        MOV     R1,A
        LCALL   `??SendByte::?relay` ; Banked call to: SendByte
//  804       SendByte(ch);
        ; Setup parameters for call to function SendByte
        MOV     R1,?V0
        LCALL   `??SendByte::?relay` ; Banked call to: SendByte
//  805       SendByte(cl);
        ; Setup parameters for call to function SendByte
        MOV     A,R6
        MOV     R1,A
        LCALL   `??SendByte::?relay` ; Banked call to: SendByte
//  806       SendByte(ch);
        ; Setup parameters for call to function SendByte
        MOV     R1,?V0
        LCALL   `??SendByte::?relay` ; Banked call to: SendByte
//  807       SendByte(cl);
        ; Setup parameters for call to function SendByte
        MOV     A,R6
        MOV     R1,A
        LCALL   `??SendByte::?relay` ; Banked call to: SendByte
//  808       SendByte(ch);
        ; Setup parameters for call to function SendByte
        MOV     R1,?V0
        LCALL   `??SendByte::?relay` ; Banked call to: SendByte
//  809       SendByte(cl);
        ; Setup parameters for call to function SendByte
        MOV     A,R6
        MOV     R1,A
        LCALL   `??SendByte::?relay` ; Banked call to: SendByte
//  810       SendByte(ch);
        ; Setup parameters for call to function SendByte
        MOV     R1,?V0
        LCALL   `??SendByte::?relay` ; Banked call to: SendByte
//  811       SendByte(cl);
        ; Setup parameters for call to function SendByte
        MOV     A,R6
        MOV     R1,A
        LCALL   `??SendByte::?relay` ; Banked call to: SendByte
//  812       SendByte(ch);
        ; Setup parameters for call to function SendByte
        MOV     R1,?V0
        LCALL   `??SendByte::?relay` ; Banked call to: SendByte
//  813       SendByte(cl);
        ; Setup parameters for call to function SendByte
        MOV     A,R6
        MOV     R1,A
        LCALL   `??SendByte::?relay` ; Banked call to: SendByte
//  814       SendByte(ch);
        ; Setup parameters for call to function SendByte
        MOV     R1,?V0
        LCALL   `??SendByte::?relay` ; Banked call to: SendByte
//  815       SendByte(cl);
        ; Setup parameters for call to function SendByte
        MOV     A,R6
        MOV     R1,A
        LCALL   `??SendByte::?relay` ; Banked call to: SendByte
//  816       SendByte(ch);
        ; Setup parameters for call to function SendByte
        MOV     R1,?V0
        LCALL   `??SendByte::?relay` ; Banked call to: SendByte
//  817       SendByte(cl);
        ; Setup parameters for call to function SendByte
        MOV     A,R6
        MOV     R1,A
        LCALL   `??SendByte::?relay` ; Banked call to: SendByte
//  818       SendByte(ch);
        ; Setup parameters for call to function SendByte
        MOV     R1,?V0
        LCALL   `??SendByte::?relay` ; Banked call to: SendByte
//  819       SendByte(cl);
        ; Setup parameters for call to function SendByte
        MOV     A,R6
        MOV     R1,A
        LCALL   `??SendByte::?relay` ; Banked call to: SendByte
//  820       SendByte(ch);
        ; Setup parameters for call to function SendByte
        MOV     R1,?V0
        LCALL   `??SendByte::?relay` ; Banked call to: SendByte
//  821       SendByte(cl);
        ; Setup parameters for call to function SendByte
        MOV     A,R6
        MOV     R1,A
        LCALL   `??SendByte::?relay` ; Banked call to: SendByte
//  822       SendByte(ch);
        ; Setup parameters for call to function SendByte
        MOV     R1,?V0
        LCALL   `??SendByte::?relay` ; Banked call to: SendByte
//  823       SendByte(cl);
        ; Setup parameters for call to function SendByte
        MOV     A,R6
        MOV     R1,A
        LCALL   `??SendByte::?relay` ; Banked call to: SendByte
//  824       SendByte(ch);
        ; Setup parameters for call to function SendByte
        MOV     R1,?V0
        LCALL   `??SendByte::?relay` ; Banked call to: SendByte
//  825       SendByte(cl);
        ; Setup parameters for call to function SendByte
        MOV     A,R6
        MOV     R1,A
        LCALL   `??SendByte::?relay` ; Banked call to: SendByte
//  826       SendByte(ch);
        ; Setup parameters for call to function SendByte
        MOV     R1,?V0
        LCALL   `??SendByte::?relay` ; Banked call to: SendByte
//  827       SendByte(cl);
        ; Setup parameters for call to function SendByte
        MOV     A,R6
        MOV     R1,A
        LCALL   `??SendByte::?relay` ; Banked call to: SendByte
//  828       SendByte(ch);
        ; Setup parameters for call to function SendByte
        MOV     R1,?V0
        LCALL   `??SendByte::?relay` ; Banked call to: SendByte
//  829       SendByte(cl);
        ; Setup parameters for call to function SendByte
        MOV     A,R6
        MOV     R1,A
        LCALL   `??SendByte::?relay` ; Banked call to: SendByte
//  830       SendByte(ch);
        ; Setup parameters for call to function SendByte
        MOV     R1,?V0
        LCALL   `??SendByte::?relay` ; Banked call to: SendByte
//  831       SendByte(cl);      
        ; Setup parameters for call to function SendByte
        MOV     A,R6
        MOV     R1,A
        LCALL   `??SendByte::?relay` ; Banked call to: SendByte
//  832       SendByte(ch);
        ; Setup parameters for call to function SendByte
        MOV     R1,?V0
        LCALL   `??SendByte::?relay` ; Banked call to: SendByte
//  833       SendByte(cl);
        ; Setup parameters for call to function SendByte
        MOV     A,R6
        MOV     R1,A
        LCALL   `??SendByte::?relay` ; Banked call to: SendByte
//  834       SendByte(ch);
        ; Setup parameters for call to function SendByte
        MOV     R1,?V0
        LCALL   `??SendByte::?relay` ; Banked call to: SendByte
//  835       SendByte(cl);
        ; Setup parameters for call to function SendByte
        MOV     A,R6
        MOV     R1,A
        LCALL   `??SendByte::?relay` ; Banked call to: SendByte
//  836       SendByte(ch);
        ; Setup parameters for call to function SendByte
        MOV     R1,?V0
        LCALL   `??SendByte::?relay` ; Banked call to: SendByte
//  837       SendByte(cl);
        ; Setup parameters for call to function SendByte
        MOV     A,R6
        MOV     R1,A
        LCALL   `??SendByte::?relay` ; Banked call to: SendByte
//  838       SendByte(ch);
        ; Setup parameters for call to function SendByte
        MOV     R1,?V0
        LCALL   `??SendByte::?relay` ; Banked call to: SendByte
//  839       SendByte(cl);
        ; Setup parameters for call to function SendByte
        MOV     A,R6
        MOV     R1,A
        LCALL   `??SendByte::?relay` ; Banked call to: SendByte
//  840       SendByte(ch);
        ; Setup parameters for call to function SendByte
        MOV     R1,?V0
        LCALL   `??SendByte::?relay` ; Banked call to: SendByte
//  841       SendByte(cl);
        ; Setup parameters for call to function SendByte
        MOV     A,R6
        MOV     R1,A
        LCALL   `??SendByte::?relay` ; Banked call to: SendByte
//  842       SendByte(ch);
        ; Setup parameters for call to function SendByte
        MOV     R1,?V0
        LCALL   `??SendByte::?relay` ; Banked call to: SendByte
//  843       SendByte(cl);
        ; Setup parameters for call to function SendByte
        MOV     A,R6
        MOV     R1,A
        LCALL   `??SendByte::?relay` ; Banked call to: SendByte
//  844       SendByte(ch);
        ; Setup parameters for call to function SendByte
        MOV     R1,?V0
        LCALL   `??SendByte::?relay` ; Banked call to: SendByte
//  845       SendByte(cl);
        ; Setup parameters for call to function SendByte
        MOV     A,R6
        MOV     R1,A
        LCALL   `??SendByte::?relay` ; Banked call to: SendByte
//  846       SendByte(ch);
        ; Setup parameters for call to function SendByte
        MOV     R1,?V0
        LCALL   `??SendByte::?relay` ; Banked call to: SendByte
//  847       SendByte(cl);
        ; Setup parameters for call to function SendByte
        MOV     A,R6
        MOV     R1,A
        LCALL   `??SendByte::?relay` ; Banked call to: SendByte
//  848       SendByte(ch);
        ; Setup parameters for call to function SendByte
        MOV     R1,?V0
        LCALL   `??SendByte::?relay` ; Banked call to: SendByte
//  849       SendByte(cl);
        ; Setup parameters for call to function SendByte
        MOV     A,R6
        MOV     R1,A
        LCALL   `??SendByte::?relay` ; Banked call to: SendByte
//  850       SendByte(ch);
        ; Setup parameters for call to function SendByte
        MOV     R1,?V0
        LCALL   `??SendByte::?relay` ; Banked call to: SendByte
//  851       SendByte(cl);
        ; Setup parameters for call to function SendByte
        MOV     A,R6
        MOV     R1,A
        LCALL   `??SendByte::?relay` ; Banked call to: SendByte
//  852       SendByte(ch);
        ; Setup parameters for call to function SendByte
        MOV     R1,?V0
        LCALL   `??SendByte::?relay` ; Banked call to: SendByte
//  853       SendByte(cl);
        ; Setup parameters for call to function SendByte
        MOV     A,R6
        MOV     R1,A
        LCALL   `??SendByte::?relay` ; Banked call to: SendByte
//  854       SendByte(ch);
        ; Setup parameters for call to function SendByte
        MOV     R1,?V0
        LCALL   `??SendByte::?relay` ; Banked call to: SendByte
//  855       SendByte(cl);
        ; Setup parameters for call to function SendByte
        MOV     A,R6
        MOV     R1,A
        LCALL   `??SendByte::?relay` ; Banked call to: SendByte
//  856       SendByte(ch);
        ; Setup parameters for call to function SendByte
        MOV     R1,?V0
        LCALL   `??SendByte::?relay` ; Banked call to: SendByte
//  857       SendByte(cl);
        ; Setup parameters for call to function SendByte
        MOV     A,R6
        MOV     R1,A
        LCALL   `??SendByte::?relay` ; Banked call to: SendByte
//  858       SendByte(ch);
        ; Setup parameters for call to function SendByte
        MOV     R1,?V0
        LCALL   `??SendByte::?relay` ; Banked call to: SendByte
//  859       SendByte(cl);
        ; Setup parameters for call to function SendByte
        MOV     A,R6
        MOV     R1,A
        LCALL   `??SendByte::?relay` ; Banked call to: SendByte
//  860       SendByte(ch);
        ; Setup parameters for call to function SendByte
        MOV     R1,?V0
        LCALL   `??SendByte::?relay` ; Banked call to: SendByte
//  861       SendByte(cl);
        ; Setup parameters for call to function SendByte
        MOV     A,R6
        MOV     R1,A
        LCALL   `??SendByte::?relay` ; Banked call to: SendByte
//  862       SendByte(ch);
        ; Setup parameters for call to function SendByte
        MOV     R1,?V0
        LCALL   `??SendByte::?relay` ; Banked call to: SendByte
//  863       SendByte(cl);
        ; Setup parameters for call to function SendByte
        MOV     A,R6
        MOV     R1,A
        LCALL   `??SendByte::?relay` ; Banked call to: SendByte
//  864       SendByte(ch);
        ; Setup parameters for call to function SendByte
        MOV     R1,?V0
        LCALL   `??SendByte::?relay` ; Banked call to: SendByte
//  865       SendByte(cl);
        ; Setup parameters for call to function SendByte
        MOV     A,R6
        MOV     R1,A
        LCALL   `??SendByte::?relay` ; Banked call to: SendByte
//  866       SendByte(ch);
        ; Setup parameters for call to function SendByte
        MOV     R1,?V0
        LCALL   `??SendByte::?relay` ; Banked call to: SendByte
//  867       SendByte(cl);
        ; Setup parameters for call to function SendByte
        MOV     A,R6
        MOV     R1,A
        LCALL   `??SendByte::?relay` ; Banked call to: SendByte
//  868       SendByte(ch);
        ; Setup parameters for call to function SendByte
        MOV     R1,?V0
        LCALL   `??SendByte::?relay` ; Banked call to: SendByte
//  869       SendByte(cl);
        ; Setup parameters for call to function SendByte
        MOV     A,R6
        MOV     R1,A
        LCALL   `??SendByte::?relay` ; Banked call to: SendByte
//  870       SendByte(ch);
        ; Setup parameters for call to function SendByte
        MOV     R1,?V0
        LCALL   `??SendByte::?relay` ; Banked call to: SendByte
//  871       SendByte(cl);
        ; Setup parameters for call to function SendByte
        MOV     A,R6
        MOV     R1,A
        LCALL   `??SendByte::?relay` ; Banked call to: SendByte
//  872       SendByte(ch);
        ; Setup parameters for call to function SendByte
        MOV     R1,?V0
        LCALL   `??SendByte::?relay` ; Banked call to: SendByte
//  873       SendByte(cl);
        ; Setup parameters for call to function SendByte
        MOV     A,R6
        MOV     R1,A
        LCALL   `??SendByte::?relay` ; Banked call to: SendByte
//  874       SendByte(ch);
        ; Setup parameters for call to function SendByte
        MOV     R1,?V0
        LCALL   `??SendByte::?relay` ; Banked call to: SendByte
//  875       SendByte(cl);
        ; Setup parameters for call to function SendByte
        MOV     A,R6
        MOV     R1,A
        LCALL   `??SendByte::?relay` ; Banked call to: SendByte
//  876       SendByte(ch);
        ; Setup parameters for call to function SendByte
        MOV     R1,?V0
        LCALL   `??SendByte::?relay` ; Banked call to: SendByte
//  877       SendByte(cl);
        ; Setup parameters for call to function SendByte
        MOV     A,R6
        MOV     R1,A
        LCALL   `??SendByte::?relay` ; Banked call to: SendByte
//  878       SendByte(ch);
        ; Setup parameters for call to function SendByte
        MOV     R1,?V0
        LCALL   `??SendByte::?relay` ; Banked call to: SendByte
//  879       SendByte(cl);
        ; Setup parameters for call to function SendByte
        MOV     A,R6
        MOV     R1,A
        LCALL   `??SendByte::?relay` ; Banked call to: SendByte
//  880       SendByte(ch);
        ; Setup parameters for call to function SendByte
        MOV     R1,?V0
        LCALL   `??SendByte::?relay` ; Banked call to: SendByte
//  881       SendByte(cl);
        ; Setup parameters for call to function SendByte
        MOV     A,R6
        MOV     R1,A
        LCALL   `??SendByte::?relay` ; Banked call to: SendByte
//  882       SendByte(ch);
        ; Setup parameters for call to function SendByte
        MOV     R1,?V0
        LCALL   `??SendByte::?relay` ; Banked call to: SendByte
//  883       SendByte(cl);
        ; Setup parameters for call to function SendByte
        MOV     A,R6
        MOV     R1,A
        LCALL   `??SendByte::?relay` ; Banked call to: SendByte
//  884       SendByte(ch);
        ; Setup parameters for call to function SendByte
        MOV     R1,?V0
        LCALL   `??SendByte::?relay` ; Banked call to: SendByte
//  885       SendByte(cl);
        ; Setup parameters for call to function SendByte
        MOV     A,R6
        MOV     R1,A
        LCALL   `??SendByte::?relay` ; Banked call to: SendByte
//  886       SendByte(ch);
        ; Setup parameters for call to function SendByte
        MOV     R1,?V0
        LCALL   `??SendByte::?relay` ; Banked call to: SendByte
//  887       SendByte(cl);
        ; Setup parameters for call to function SendByte
        MOV     A,R6
        MOV     R1,A
        LCALL   `??SendByte::?relay` ; Banked call to: SendByte
//  888       SendByte(ch);
        ; Setup parameters for call to function SendByte
        MOV     R1,?V0
        LCALL   `??SendByte::?relay` ; Banked call to: SendByte
//  889       SendByte(cl);
        ; Setup parameters for call to function SendByte
        MOV     A,R6
        MOV     R1,A
        LCALL   `??SendByte::?relay` ; Banked call to: SendByte
//  890       SendByte(ch);
        ; Setup parameters for call to function SendByte
        MOV     R1,?V0
        LCALL   `??SendByte::?relay` ; Banked call to: SendByte
//  891       SendByte(cl);
        ; Setup parameters for call to function SendByte
        MOV     A,R6
        MOV     R1,A
        LCALL   `??SendByte::?relay` ; Banked call to: SendByte
//  892       SendByte(ch);
        ; Setup parameters for call to function SendByte
        MOV     R1,?V0
        LCALL   `??SendByte::?relay` ; Banked call to: SendByte
//  893       SendByte(cl);
        ; Setup parameters for call to function SendByte
        MOV     A,R6
        MOV     R1,A
        LCALL   `??SendByte::?relay` ; Banked call to: SendByte
//  894       SendByte(ch);
        ; Setup parameters for call to function SendByte
        MOV     R1,?V0
        LCALL   `??SendByte::?relay` ; Banked call to: SendByte
//  895       SendByte(cl);
        ; Setup parameters for call to function SendByte
        MOV     A,R6
        MOV     R1,A
        LCALL   `??SendByte::?relay` ; Banked call to: SendByte
//  896     }
        DEC     R7
        MOV     A,R7
        JZ      $+5
        LJMP    ??LCD_clear_1 & 0xFFFF
        DEC     ?V1
        MOV     A,?V1
        JZ      $+5
        LJMP    ??LCD_clear_0 & 0xFFFF
//  897   LCD_DC_SET;
          CFI EndBlock cfiBlock40
        REQUIRE ?Subroutine5
        REQUIRE _A_P0
        ; // Fall through to label ?Subroutine5
//  898   //LCD_CS_SET;
//  899 }

        RSEG BANKED_CODE:CODE:NOROOT(0)
?Subroutine5:
          CFI Block cfiBlock41 Using cfiCommon0
          CFI NoFunction
          CFI CFA_SP SP+0
          CFI CFA_XSP16 add(XSP16, 10)
          CFI VB load(1, XDATA, add(CFA_XSP16, literal(-9)))
          CFI DPL0 load(1, XDATA, add(CFA_XSP16, literal(-2)))
          CFI DPH0 load(1, XDATA, add(CFA_XSP16, literal(-1)))
          CFI R6 load(1, XDATA, add(CFA_XSP16, literal(-10)))
          CFI R7 load(1, XDATA, add(CFA_XSP16, literal(-6)))
          CFI V0 load(1, XDATA, add(CFA_XSP16, literal(-8)))
          CFI V1 load(1, XDATA, add(CFA_XSP16, literal(-7)))
          CFI ?BRET_EXT load(1, XDATA, add(CFA_XSP16, literal(-3)))
          CFI ?RET_HIGH load(1, XDATA, add(CFA_XSP16, literal(-4)))
          CFI ?RET_LOW load(1, XDATA, add(CFA_XSP16, literal(-5)))
        SETB    0x80.0
        MOV     R7,#0x2
        LJMP    ?BANKED_LEAVE_XDATA
          CFI EndBlock cfiBlock41
//  900 
//  901 /****************************************************************************
//  902 * 名    称: LCD_write_EN()
//  903 * 功    能: 在指定位置显示 7 ×14 点阵ASCII字符 
//  904 * 入口参数: X - 显示位置左上角横坐标      Y ―显示位置左上角纵坐标
//  905 *           c ―显示字符                  
//  906 * 出口参数: 无
//  907 ****************************************************************************/

        RSEG BANKED_CODE:CODE:NOROOT(0)
//  908 static void LCD_write_EN(unsigned int X, unsigned int Y, unsigned char c)
LCD_write_EN:
          CFI Block cfiBlock42 Using cfiCommon0
          CFI Function LCD_write_EN
        CODE
//  909 {
        FUNCALL LCD_write_EN, LCD_set_window
        LOCFRAME ISTACK, 0, STACK
        LOCFRAME PSTACK, 0, STACK
        LOCFRAME XSTACK, 14, STACK
        LOCFRAME IOVERLAY, 0, STATIC
        LOCFRAME DOVERLAY, 0, STATIC
        ARGFRAME ISTACK, 0, STACK
        ARGFRAME PSTACK, 0, STACK
        ARGFRAME XSTACK, 14, STACK
        ARGFRAME IOVERLAY, 0, STATIC
        ARGFRAME DOVERLAY, 0, STATIC
        FUNCALL LCD_write_EN, SendByte
        LOCFRAME ISTACK, 0, STACK
        LOCFRAME PSTACK, 0, STACK
        LOCFRAME XSTACK, 10, STACK
        LOCFRAME IOVERLAY, 0, STATIC
        LOCFRAME DOVERLAY, 0, STATIC
        ARGFRAME ISTACK, 0, STACK
        ARGFRAME PSTACK, 0, STACK
        ARGFRAME XSTACK, 10, STACK
        ARGFRAME IOVERLAY, 0, STATIC
        ARGFRAME DOVERLAY, 0, STATIC
        FUNCALL LCD_write_EN, SendByte
        LOCFRAME ISTACK, 0, STACK
        LOCFRAME PSTACK, 0, STACK
        LOCFRAME XSTACK, 10, STACK
        LOCFRAME IOVERLAY, 0, STATIC
        LOCFRAME DOVERLAY, 0, STATIC
        ARGFRAME ISTACK, 0, STACK
        ARGFRAME PSTACK, 0, STACK
        ARGFRAME XSTACK, 10, STACK
        ARGFRAME IOVERLAY, 0, STATIC
        ARGFRAME DOVERLAY, 0, STATIC
        FUNCALL LCD_write_EN, SendByte
        LOCFRAME ISTACK, 0, STACK
        LOCFRAME PSTACK, 0, STACK
        LOCFRAME XSTACK, 10, STACK
        LOCFRAME IOVERLAY, 0, STATIC
        LOCFRAME DOVERLAY, 0, STATIC
        ARGFRAME ISTACK, 0, STACK
        ARGFRAME PSTACK, 0, STACK
        ARGFRAME XSTACK, 10, STACK
        ARGFRAME IOVERLAY, 0, STATIC
        ARGFRAME DOVERLAY, 0, STATIC
        FUNCALL LCD_write_EN, SendByte
        LOCFRAME ISTACK, 0, STACK
        LOCFRAME PSTACK, 0, STACK
        LOCFRAME XSTACK, 10, STACK
        LOCFRAME IOVERLAY, 0, STATIC
        LOCFRAME DOVERLAY, 0, STATIC
        ARGFRAME ISTACK, 0, STACK
        ARGFRAME PSTACK, 0, STACK
        ARGFRAME XSTACK, 10, STACK
        ARGFRAME IOVERLAY, 0, STATIC
        ARGFRAME DOVERLAY, 0, STATIC
        REQUIRE ?V0
        REQUIRE ?V1
        MOV     A,#-0xa
        LCALL   ?BANKED_ENTER_XDATA
          CFI DPH0 load(1, XDATA, add(CFA_XSP16, literal(-1)))
          CFI DPL0 load(1, XDATA, add(CFA_XSP16, literal(-2)))
          CFI ?BRET_EXT load(1, XDATA, add(CFA_XSP16, literal(-3)))
          CFI ?RET_HIGH load(1, XDATA, add(CFA_XSP16, literal(-4)))
          CFI ?RET_LOW load(1, XDATA, add(CFA_XSP16, literal(-5)))
          CFI R7 load(1, XDATA, add(CFA_XSP16, literal(-6)))
          CFI V1 load(1, XDATA, add(CFA_XSP16, literal(-7)))
          CFI V0 load(1, XDATA, add(CFA_XSP16, literal(-8)))
          CFI VB load(1, XDATA, add(CFA_XSP16, literal(-9)))
          CFI R6 load(1, XDATA, add(CFA_XSP16, literal(-10)))
          CFI CFA_SP SP+0
          CFI CFA_XSP16 add(XSP16, 10)
        ; Saved register size: 10
        ; Auto size: 0
        MOV     A,R1
        MOV     R6,A
//  910   unsigned char i,j,temp;
//  911   
//  912   LCD_set_window(X,Y,7,14);
        ; Setup parameters for call to function LCD_set_window
        MOV     ?V0,#0xe
        MOV     ?V1,#0x0
        MOV     R0,#?V0
        LCALL   ?PUSH_XSTACK_I_TWO
          CFI CFA_XSP16 add(XSP16, 12)
        MOV     ?V0,#0x7
        MOV     R0,#?V0
        LCALL   ?PUSH_XSTACK_I_TWO
          CFI CFA_XSP16 add(XSP16, 14)
        LCALL   `??LCD_set_window::?relay`; Banked call to: LCD_set_window
        MOV     A,#0x4
        LCALL   ?DEALLOC_XSTACK8
          CFI CFA_XSP16 add(XSP16, 10)
//  913   //LCD_CS_CLR ;
//  914   LCD_DC_SET ;
        SETB    0x80.0
//  915   for(i=0;i<14;i++)
        MOV     R7,#0x0
//  916   {
//  917     temp = ASCII7x14[c-32][i];
??LCD_write_EN_0:
        MOV     A,R6
        MOV     B,#0xe
        MUL     AB
        MOV     R0,A
        MOV     R1,B
        MOV     A,R7
        MOV     R2,A
        MOV     A,#(ASCII7x14 + 64) & 0xff
        ADD     A,R2
        MOV     R2,A
        CLR     A
        ADDC    A,#((ASCII7x14 - 448) >> 8) & 0xff
        MOV     R3,A
        MOV     A,R2
        ADD     A,R0
        MOV     DPL,A
        MOV     A,R3
        LCALL   ?Subroutine9 & 0xFFFF
??CrossCallReturnLabel_4:
        MOV     ?V0,A
//  918     for(j=0;j<7;j++)
        MOV     ?V1,#0x7
//  919     {
//  920       if(temp&0x80)
??LCD_write_EN_1:
        MOV     A,?V0
        MOV     C,0xE0 /* A   */.7
        JNC     ??LCD_write_EN_2
//  921       {
//  922         SendByte(Color>>8);  
        ; Setup parameters for call to function SendByte
        MOV     DPTR,#Color + 1
        MOVX    A,@DPTR
        MOV     R1,A
        LCALL   `??SendByte::?relay` ; Banked call to: SendByte
//  923         SendByte(Color) ;
        ; Setup parameters for call to function SendByte
        MOV     DPTR,#Color
        SJMP    ??LCD_write_EN_3
//  924       }
//  925       else
//  926       {
//  927         SendByte(Color_BK>>8) ;  
??LCD_write_EN_2:
        ; Setup parameters for call to function SendByte
        MOV     DPTR,#Color_BK + 1
        MOVX    A,@DPTR
        MOV     R1,A
        LCALL   `??SendByte::?relay` ; Banked call to: SendByte
//  928         SendByte(Color_BK);
        ; Setup parameters for call to function SendByte
        MOV     DPTR,#Color_BK
??LCD_write_EN_3:
        MOVX    A,@DPTR
        MOV     R1,A
        LCALL   `??SendByte::?relay` ; Banked call to: SendByte
//  929       }            
//  930       temp <<= 1 ;
        MOV     A,?V0
        CLR     C
        RLC     A
        MOV     ?V0,A
//  931     }
        DEC     ?V1
        MOV     A,?V1
        JNZ     ??LCD_write_EN_1
//  932   }
        INC     R7
        MOV     A,R7
        CLR     C
        SUBB    A,#0xe
        JC      ??LCD_write_EN_0
//  933   //LCD_CS_SET ; andy
//  934   LCD_DC_SET ;
        LJMP    ?Subroutine5 & 0xFFFF
          CFI EndBlock cfiBlock42
        REQUIRE _A_P0
//  935 }
//  936 
//  937 /****************************************************************************
//  938 * 名    称: LCD_write_EN_string()
//  939 * 功    能: 在指定位置显示 7 ×14 点阵ASCII字符串 
//  940 * 入口参数: X - 显示位置左上角横坐标      Y ―显示位置左上角纵坐标
//  941 *           s ―字符串指针                  
//  942 * 出口参数: 无
//  943 ****************************************************************************/

        RSEG BANKED_CODE:CODE:NOROOT(0)
//  944 void LCD_write_EN_string(unsigned char X,unsigned char Y,uint8 *s)
LCD_write_EN_string:
          CFI Block cfiBlock43 Using cfiCommon0
          CFI Function LCD_write_EN_string
        CODE
//  945 {
        FUNCALL LCD_write_EN_string, LCD_write_EN
        LOCFRAME ISTACK, 0, STACK
        LOCFRAME PSTACK, 0, STACK
        LOCFRAME XSTACK, 14, STACK
        LOCFRAME IOVERLAY, 0, STATIC
        LOCFRAME DOVERLAY, 0, STATIC
        ARGFRAME ISTACK, 0, STACK
        ARGFRAME PSTACK, 0, STACK
        ARGFRAME XSTACK, 14, STACK
        ARGFRAME IOVERLAY, 0, STATIC
        ARGFRAME DOVERLAY, 0, STATIC
        REQUIRE ?V0
        REQUIRE ?V1
        REQUIRE ?V2
        REQUIRE ?V4
        REQUIRE ?V5
        MOV     A,#-0xe
        LCALL   ?BANKED_ENTER_XDATA
          CFI DPH0 load(1, XDATA, add(CFA_XSP16, literal(-1)))
          CFI DPL0 load(1, XDATA, add(CFA_XSP16, literal(-2)))
          CFI ?BRET_EXT load(1, XDATA, add(CFA_XSP16, literal(-3)))
          CFI ?RET_HIGH load(1, XDATA, add(CFA_XSP16, literal(-4)))
          CFI ?RET_LOW load(1, XDATA, add(CFA_XSP16, literal(-5)))
          CFI R7 load(1, XDATA, add(CFA_XSP16, literal(-6)))
          CFI V5 load(1, XDATA, add(CFA_XSP16, literal(-7)))
          CFI V4 load(1, XDATA, add(CFA_XSP16, literal(-8)))
          CFI V3 load(1, XDATA, add(CFA_XSP16, literal(-9)))
          CFI V2 load(1, XDATA, add(CFA_XSP16, literal(-10)))
          CFI V1 load(1, XDATA, add(CFA_XSP16, literal(-11)))
          CFI V0 load(1, XDATA, add(CFA_XSP16, literal(-12)))
          CFI VB load(1, XDATA, add(CFA_XSP16, literal(-13)))
          CFI R6 load(1, XDATA, add(CFA_XSP16, literal(-14)))
          CFI CFA_SP SP+0
          CFI CFA_XSP16 add(XSP16, 14)
        ; Saved register size: 14
        ; Auto size: 0
        MOV     ?V2,R1
        MOV     ?V1,R2
        MOV     A,R4
        MOV     R6,A
        MOV     A,R5
        MOV     R7,A
//  946   unsigned char i=0;
        MOV     ?V0,#0x0
//  947   
//  948   while (*s)
??LCD_write_EN_string_0:
        MOV     DPL,R6
        MOV     DPH,R7
        MOVX    A,@DPTR
        JZ      ??LCD_write_EN_string_1
//  949   {
//  950     LCD_write_EN(X+i*7,Y,*s);
        ; Setup parameters for call to function LCD_write_EN
        MOV     R1,A
        MOV     R4,?V1
        MOV     R5,#0x0
        MOV     ?V4,?V2
        MOV     A,?V0
        MOV     B,#0x7
        MUL     AB
        MOV     R2,A
        MOV     R3,B
        MOV     A,?V4
        ADD     A,R2
        MOV     R2,A
        CLR     A
        ADDC    A,R3
        MOV     R3,A
        LCALL   `??LCD_write_EN::?relay`; Banked call to: LCD_write_EN
//  951     s++;
        MOV     DPL,R6
        MOV     DPH,R7
        INC     DPTR
        MOV     R6,DPL
        MOV     R7,DPH
//  952     i++;
        INC     ?V0
//  953     if(i>=HAL_LCD_MAX_CHARS)return;
        MOV     A,?V0
        CLR     C
        SUBB    A,#0x10
        JC      ??LCD_write_EN_string_0
//  954   }
//  955   return;
??LCD_write_EN_string_1:
        LJMP    ??Subroutine14_0 & 0xFFFF
//  956 }
          CFI EndBlock cfiBlock43
//  957 
//  958 /****************************************************************************
//  959 * 名    称: LCD_write_CN()
//  960 * 功    能: 在指定位置显示 14 ×14 点阵汉字字符  
//  961 * 入口参数: X - 显示位置左上角横坐标      Y ―显示位置左上角纵坐标
//  962 *           c ―显示字符指针                  
//  963 * 出口参数: 无
//  964 ****************************************************************************/

        RSEG BANKED_CODE:CODE:NOROOT(0)
//  965 static void LCD_write_CN(unsigned int X, unsigned int Y, unsigned char c)
LCD_write_CN:
          CFI Block cfiBlock44 Using cfiCommon0
          CFI Function LCD_write_CN
        CODE
//  966 {
        FUNCALL LCD_write_CN, LCD_set_window
        LOCFRAME ISTACK, 0, STACK
        LOCFRAME PSTACK, 0, STACK
        LOCFRAME XSTACK, 14, STACK
        LOCFRAME IOVERLAY, 0, STATIC
        LOCFRAME DOVERLAY, 0, STATIC
        ARGFRAME ISTACK, 0, STACK
        ARGFRAME PSTACK, 0, STACK
        ARGFRAME XSTACK, 14, STACK
        ARGFRAME IOVERLAY, 0, STATIC
        ARGFRAME DOVERLAY, 0, STATIC
        FUNCALL LCD_write_CN, SendByte
        LOCFRAME ISTACK, 0, STACK
        LOCFRAME PSTACK, 0, STACK
        LOCFRAME XSTACK, 10, STACK
        LOCFRAME IOVERLAY, 0, STATIC
        LOCFRAME DOVERLAY, 0, STATIC
        ARGFRAME ISTACK, 0, STACK
        ARGFRAME PSTACK, 0, STACK
        ARGFRAME XSTACK, 10, STACK
        ARGFRAME IOVERLAY, 0, STATIC
        ARGFRAME DOVERLAY, 0, STATIC
        FUNCALL LCD_write_CN, SendByte
        LOCFRAME ISTACK, 0, STACK
        LOCFRAME PSTACK, 0, STACK
        LOCFRAME XSTACK, 10, STACK
        LOCFRAME IOVERLAY, 0, STATIC
        LOCFRAME DOVERLAY, 0, STATIC
        ARGFRAME ISTACK, 0, STACK
        ARGFRAME PSTACK, 0, STACK
        ARGFRAME XSTACK, 10, STACK
        ARGFRAME IOVERLAY, 0, STATIC
        ARGFRAME DOVERLAY, 0, STATIC
        FUNCALL LCD_write_CN, SendByte
        LOCFRAME ISTACK, 0, STACK
        LOCFRAME PSTACK, 0, STACK
        LOCFRAME XSTACK, 10, STACK
        LOCFRAME IOVERLAY, 0, STATIC
        LOCFRAME DOVERLAY, 0, STATIC
        ARGFRAME ISTACK, 0, STACK
        ARGFRAME PSTACK, 0, STACK
        ARGFRAME XSTACK, 10, STACK
        ARGFRAME IOVERLAY, 0, STATIC
        ARGFRAME DOVERLAY, 0, STATIC
        FUNCALL LCD_write_CN, SendByte
        LOCFRAME ISTACK, 0, STACK
        LOCFRAME PSTACK, 0, STACK
        LOCFRAME XSTACK, 10, STACK
        LOCFRAME IOVERLAY, 0, STATIC
        LOCFRAME DOVERLAY, 0, STATIC
        ARGFRAME ISTACK, 0, STACK
        ARGFRAME PSTACK, 0, STACK
        ARGFRAME XSTACK, 10, STACK
        ARGFRAME IOVERLAY, 0, STATIC
        ARGFRAME DOVERLAY, 0, STATIC
        FUNCALL LCD_write_CN, SendByte
        LOCFRAME ISTACK, 0, STACK
        LOCFRAME PSTACK, 0, STACK
        LOCFRAME XSTACK, 10, STACK
        LOCFRAME IOVERLAY, 0, STATIC
        LOCFRAME DOVERLAY, 0, STATIC
        ARGFRAME ISTACK, 0, STACK
        ARGFRAME PSTACK, 0, STACK
        ARGFRAME XSTACK, 10, STACK
        ARGFRAME IOVERLAY, 0, STATIC
        ARGFRAME DOVERLAY, 0, STATIC
        FUNCALL LCD_write_CN, SendByte
        LOCFRAME ISTACK, 0, STACK
        LOCFRAME PSTACK, 0, STACK
        LOCFRAME XSTACK, 10, STACK
        LOCFRAME IOVERLAY, 0, STATIC
        LOCFRAME DOVERLAY, 0, STATIC
        ARGFRAME ISTACK, 0, STACK
        ARGFRAME PSTACK, 0, STACK
        ARGFRAME XSTACK, 10, STACK
        ARGFRAME IOVERLAY, 0, STATIC
        ARGFRAME DOVERLAY, 0, STATIC
        FUNCALL LCD_write_CN, SendByte
        LOCFRAME ISTACK, 0, STACK
        LOCFRAME PSTACK, 0, STACK
        LOCFRAME XSTACK, 10, STACK
        LOCFRAME IOVERLAY, 0, STATIC
        LOCFRAME DOVERLAY, 0, STATIC
        ARGFRAME ISTACK, 0, STACK
        ARGFRAME PSTACK, 0, STACK
        ARGFRAME XSTACK, 10, STACK
        ARGFRAME IOVERLAY, 0, STATIC
        ARGFRAME DOVERLAY, 0, STATIC
        FUNCALL LCD_write_CN, SendByte
        LOCFRAME ISTACK, 0, STACK
        LOCFRAME PSTACK, 0, STACK
        LOCFRAME XSTACK, 10, STACK
        LOCFRAME IOVERLAY, 0, STATIC
        LOCFRAME DOVERLAY, 0, STATIC
        ARGFRAME ISTACK, 0, STACK
        ARGFRAME PSTACK, 0, STACK
        ARGFRAME XSTACK, 10, STACK
        ARGFRAME IOVERLAY, 0, STATIC
        ARGFRAME DOVERLAY, 0, STATIC
        REQUIRE ?V0
        REQUIRE ?V1
        MOV     A,#-0xa
        LCALL   ?BANKED_ENTER_XDATA
          CFI DPH0 load(1, XDATA, add(CFA_XSP16, literal(-1)))
          CFI DPL0 load(1, XDATA, add(CFA_XSP16, literal(-2)))
          CFI ?BRET_EXT load(1, XDATA, add(CFA_XSP16, literal(-3)))
          CFI ?RET_HIGH load(1, XDATA, add(CFA_XSP16, literal(-4)))
          CFI ?RET_LOW load(1, XDATA, add(CFA_XSP16, literal(-5)))
          CFI R7 load(1, XDATA, add(CFA_XSP16, literal(-6)))
          CFI V1 load(1, XDATA, add(CFA_XSP16, literal(-7)))
          CFI V0 load(1, XDATA, add(CFA_XSP16, literal(-8)))
          CFI VB load(1, XDATA, add(CFA_XSP16, literal(-9)))
          CFI R6 load(1, XDATA, add(CFA_XSP16, literal(-10)))
          CFI CFA_SP SP+0
          CFI CFA_XSP16 add(XSP16, 10)
        ; Saved register size: 10
        ; Auto size: 0
        MOV     A,R1
        MOV     R7,A
//  967   unsigned char i,j,temp;
//  968   
//  969   LCD_set_window(X,Y,14,14);  //按字符点阵大小设置显示窗口
        ; Setup parameters for call to function LCD_set_window
        MOV     ?V0,#0xe
        MOV     ?V1,#0x0
        MOV     R0,#?V0
        LCALL   ?PUSH_XSTACK_I_TWO
          CFI CFA_XSP16 add(XSP16, 12)
        MOV     R0,#?V0
        LCALL   ?PUSH_XSTACK_I_TWO
          CFI CFA_XSP16 add(XSP16, 14)
        LCALL   `??LCD_set_window::?relay`; Banked call to: LCD_set_window
        MOV     A,#0x4
        LCALL   ?DEALLOC_XSTACK8
          CFI CFA_XSP16 add(XSP16, 10)
//  970   //LCD_CS_CLR;               //液晶SPI使能andy
//  971   LCD_DC_SET;                 //发送数据信号使能
        SETB    0x80.0
//  972   for(i=0;i<28;i++)           // 14x14字符点阵数据大小为2x14=28字节
        MOV     ?V0,#0x0
//  973   {
//  974     temp = CN14x14[c][i] ;    //读字模数组
??LCD_write_CN_0:
        LCALL   ?Subroutine7 & 0xFFFF
//  975     for(j=0;j<8;j++)          // 按位显示
??CrossCallReturnLabel_0:
        MOV     ?V1,#0x8
//  976     {
//  977       if(temp&0x80)           //如果位值为1，显示字符色
??LCD_write_CN_1:
        MOV     A,R6
        MOV     C,0xE0 /* A   */.7
        JNC     ??LCD_write_CN_2
//  978       {
//  979         SendByte(Color>>8);  
        ; Setup parameters for call to function SendByte
        MOV     DPTR,#Color + 1
        MOVX    A,@DPTR
        MOV     R1,A
        LCALL   `??SendByte::?relay` ; Banked call to: SendByte
//  980         SendByte(Color) ;
        ; Setup parameters for call to function SendByte
        MOV     DPTR,#Color
        SJMP    ??LCD_write_CN_3
//  981       }
//  982       else                    //如果位值为0，显示背景色
//  983       {
//  984         SendByte(Color_BK>>8) ;  
??LCD_write_CN_2:
        ; Setup parameters for call to function SendByte
        MOV     DPTR,#Color_BK + 1
        MOVX    A,@DPTR
        MOV     R1,A
        LCALL   `??SendByte::?relay` ; Banked call to: SendByte
//  985         SendByte(Color_BK);
        ; Setup parameters for call to function SendByte
        MOV     DPTR,#Color_BK
??LCD_write_CN_3:
        MOVX    A,@DPTR
        MOV     R1,A
        LCALL   `??SendByte::?relay` ; Banked call to: SendByte
//  986       }            
//  987       temp <<= 1 ;
        MOV     A,R6
        CLR     C
        RLC     A
        MOV     R6,A
//  988     }
        DEC     ?V1
        MOV     A,?V1
        JNZ     ??LCD_write_CN_1
//  989     i++ ;                     //指向下一字节
        INC     ?V0
//  990     temp = CN14x14[c][i];
        LCALL   ?Subroutine7 & 0xFFFF
//  991     for(j=0;j<6;j++)          // 按位显示，点阵横向为14像素，
??CrossCallReturnLabel_1:
        MOV     ?V1,#0x6
//  992     {                         // 所以每行第2字节最后2位抛弃
//  993       if(temp&0x80)           // 如果位值为1，显示字符色
??LCD_write_CN_4:
        MOV     A,R6
        MOV     C,0xE0 /* A   */.7
        JNC     ??LCD_write_CN_5
//  994       {
//  995         SendByte(Color>>8);  
        ; Setup parameters for call to function SendByte
        MOV     DPTR,#Color + 1
        MOVX    A,@DPTR
        MOV     R1,A
        LCALL   `??SendByte::?relay` ; Banked call to: SendByte
//  996         SendByte(Color) ;
        ; Setup parameters for call to function SendByte
        MOV     DPTR,#Color
        SJMP    ??LCD_write_CN_6
//  997       }
//  998       else                    // 如果位值为0，显示背景色
//  999       {
// 1000         SendByte(Color_BK>>8) ;  
??LCD_write_CN_5:
        ; Setup parameters for call to function SendByte
        MOV     DPTR,#Color_BK + 1
        MOVX    A,@DPTR
        MOV     R1,A
        LCALL   `??SendByte::?relay` ; Banked call to: SendByte
// 1001         SendByte(Color_BK);
        ; Setup parameters for call to function SendByte
        MOV     DPTR,#Color_BK
??LCD_write_CN_6:
        MOVX    A,@DPTR
        MOV     R1,A
        LCALL   `??SendByte::?relay` ; Banked call to: SendByte
// 1002       }            
// 1003       temp <<= 1 ;
        MOV     A,R6
        CLR     C
        RLC     A
        MOV     R6,A
// 1004     }
        DEC     ?V1
        MOV     A,?V1
        JNZ     ??LCD_write_CN_4
// 1005   }
        INC     ?V0
        MOV     A,?V0
        CLR     C
        SUBB    A,#0x1c
        JC      ??LCD_write_CN_0
// 1006   //LCD_CS_SET;               //液晶SPI禁止
// 1007   LCD_DC_SET;                 //数据控制信号禁止
        LJMP    ?Subroutine5 & 0xFFFF
          CFI EndBlock cfiBlock44
        REQUIRE _A_P0
// 1008 }

        RSEG BANKED_CODE:CODE:NOROOT(0)
?Subroutine7:
          CFI Block cfiCond45 Using cfiCommon0
          CFI Function LCD_write_CN
          CFI Conditional ??CrossCallReturnLabel_0
          CFI R6 load(1, XDATA, add(CFA_XSP16, literal(-10)))
          CFI VB load(1, XDATA, add(CFA_XSP16, literal(-9)))
          CFI V0 load(1, XDATA, add(CFA_XSP16, literal(-8)))
          CFI V1 load(1, XDATA, add(CFA_XSP16, literal(-7)))
          CFI R7 load(1, XDATA, add(CFA_XSP16, literal(-6)))
          CFI ?RET_LOW load(1, XDATA, add(CFA_XSP16, literal(-5)))
          CFI ?RET_HIGH load(1, XDATA, add(CFA_XSP16, literal(-4)))
          CFI ?BRET_EXT load(1, XDATA, add(CFA_XSP16, literal(-3)))
          CFI DPL0 load(1, XDATA, add(CFA_XSP16, literal(-2)))
          CFI DPH0 load(1, XDATA, add(CFA_XSP16, literal(-1)))
          CFI CFA_SP SP+-2
          CFI CFA_XSP16 add(XSP16, 10)
          CFI Block cfiCond46 Using cfiCommon0
          CFI (cfiCond46) Function LCD_write_CN
          CFI (cfiCond46) Conditional ??CrossCallReturnLabel_1
          CFI (cfiCond46) R6 load(1, XDATA, add(CFA_XSP16, literal(-10)))
          CFI (cfiCond46) VB load(1, XDATA, add(CFA_XSP16, literal(-9)))
          CFI (cfiCond46) V0 load(1, XDATA, add(CFA_XSP16, literal(-8)))
          CFI (cfiCond46) V1 load(1, XDATA, add(CFA_XSP16, literal(-7)))
          CFI (cfiCond46) R7 load(1, XDATA, add(CFA_XSP16, literal(-6)))
          CFI (cfiCond46) ?RET_LOW load(1, XDATA, add(CFA_XSP16, literal(-5)))
          CFI (cfiCond46) ?RET_HIGH load(1, XDATA, add(CFA_XSP16, literal(-4)))
          CFI (cfiCond46) ?BRET_EXT load(1, XDATA, add(CFA_XSP16, literal(-3)))
          CFI (cfiCond46) DPL0 load(1, XDATA, add(CFA_XSP16, literal(-2)))
          CFI (cfiCond46) DPH0 load(1, XDATA, add(CFA_XSP16, literal(-1)))
          CFI (cfiCond46) CFA_SP SP+-2
          CFI (cfiCond46) CFA_XSP16 add(XSP16, 10)
          CFI Block cfiPicker47 Using cfiCommon1
          CFI (cfiPicker47) NoFunction
          CFI (cfiPicker47) Picker
        MOV     R2,?V0
        MOV     A,R7
        MOV     B,#0x1c
        MUL     AB
        MOV     R0,A
        MOV     R1,B
        MOV     A,#CN14x14 & 0xff
        ADD     A,R0
        MOV     R0,A
        MOV     A,#(CN14x14 >> 8) & 0xff
        ADDC    A,R1
        MOV     R1,A
        MOV     A,R0
        ADD     A,R2
        MOV     DPL,A
        CLR     A
        LCALL   ?Subroutine9 & 0xFFFF
??CrossCallReturnLabel_7:
        MOV     R6,A
        RET
          CFI EndBlock cfiCond45
          CFI EndBlock cfiCond46
          CFI EndBlock cfiPicker47

        RSEG BANKED_CODE:CODE:NOROOT(0)
?Subroutine9:
          CFI Block cfiCond48 Using cfiCommon0
          CFI Function LCD_write_EN
          CFI Conditional ??CrossCallReturnLabel_4
          CFI R6 load(1, XDATA, add(CFA_XSP16, literal(-10)))
          CFI VB load(1, XDATA, add(CFA_XSP16, literal(-9)))
          CFI V0 load(1, XDATA, add(CFA_XSP16, literal(-8)))
          CFI V1 load(1, XDATA, add(CFA_XSP16, literal(-7)))
          CFI R7 load(1, XDATA, add(CFA_XSP16, literal(-6)))
          CFI ?RET_LOW load(1, XDATA, add(CFA_XSP16, literal(-5)))
          CFI ?RET_HIGH load(1, XDATA, add(CFA_XSP16, literal(-4)))
          CFI ?BRET_EXT load(1, XDATA, add(CFA_XSP16, literal(-3)))
          CFI DPL0 load(1, XDATA, add(CFA_XSP16, literal(-2)))
          CFI DPH0 load(1, XDATA, add(CFA_XSP16, literal(-1)))
          CFI CFA_SP SP+-2
          CFI CFA_XSP16 add(XSP16, 10)
          CFI Block cfiCond49 Using cfiCommon0
          CFI (cfiCond49) Function LCD_write_CN
          CFI (cfiCond49) Conditional ??CrossCallReturnLabel_7, ??CrossCallReturnLabel_0
          CFI (cfiCond49) R6 load(1, XDATA, add(CFA_XSP16, literal(-10)))
          CFI (cfiCond49) VB load(1, XDATA, add(CFA_XSP16, literal(-9)))
          CFI (cfiCond49) V0 load(1, XDATA, add(CFA_XSP16, literal(-8)))
          CFI (cfiCond49) V1 load(1, XDATA, add(CFA_XSP16, literal(-7)))
          CFI (cfiCond49) R7 load(1, XDATA, add(CFA_XSP16, literal(-6)))
          CFI (cfiCond49) ?RET_LOW load(1, XDATA, add(CFA_XSP16, literal(-5)))
          CFI (cfiCond49) ?RET_HIGH load(1, XDATA, add(CFA_XSP16, literal(-4)))
          CFI (cfiCond49) ?BRET_EXT load(1, XDATA, add(CFA_XSP16, literal(-3)))
          CFI (cfiCond49) DPL0 load(1, XDATA, add(CFA_XSP16, literal(-2)))
          CFI (cfiCond49) DPH0 load(1, XDATA, add(CFA_XSP16, literal(-1)))
          CFI (cfiCond49) CFA_SP SP+-4
          CFI (cfiCond49) CFA_XSP16 add(XSP16, 10)
          CFI Block cfiCond50 Using cfiCommon0
          CFI (cfiCond50) Function LCD_write_CN
          CFI (cfiCond50) Conditional ??CrossCallReturnLabel_7, ??CrossCallReturnLabel_1
          CFI (cfiCond50) R6 load(1, XDATA, add(CFA_XSP16, literal(-10)))
          CFI (cfiCond50) VB load(1, XDATA, add(CFA_XSP16, literal(-9)))
          CFI (cfiCond50) V0 load(1, XDATA, add(CFA_XSP16, literal(-8)))
          CFI (cfiCond50) V1 load(1, XDATA, add(CFA_XSP16, literal(-7)))
          CFI (cfiCond50) R7 load(1, XDATA, add(CFA_XSP16, literal(-6)))
          CFI (cfiCond50) ?RET_LOW load(1, XDATA, add(CFA_XSP16, literal(-5)))
          CFI (cfiCond50) ?RET_HIGH load(1, XDATA, add(CFA_XSP16, literal(-4)))
          CFI (cfiCond50) ?BRET_EXT load(1, XDATA, add(CFA_XSP16, literal(-3)))
          CFI (cfiCond50) DPL0 load(1, XDATA, add(CFA_XSP16, literal(-2)))
          CFI (cfiCond50) DPH0 load(1, XDATA, add(CFA_XSP16, literal(-1)))
          CFI (cfiCond50) CFA_SP SP+-4
          CFI (cfiCond50) CFA_XSP16 add(XSP16, 10)
          CFI Block cfiCond51 Using cfiCommon0
          CFI (cfiCond51) Function LCD_write_CN_string
          CFI (cfiCond51) Conditional ??CrossCallReturnLabel_5
          CFI (cfiCond51) R6 load(1, XDATA, add(CFA_XSP16, literal(-13)))
          CFI (cfiCond51) VB load(1, XDATA, add(CFA_XSP16, literal(-12)))
          CFI (cfiCond51) V0 load(1, XDATA, add(CFA_XSP16, literal(-11)))
          CFI (cfiCond51) V1 load(1, XDATA, add(CFA_XSP16, literal(-10)))
          CFI (cfiCond51) V2 load(1, XDATA, add(CFA_XSP16, literal(-9)))
          CFI (cfiCond51) V3 load(1, XDATA, add(CFA_XSP16, literal(-8)))
          CFI (cfiCond51) V4 load(1, XDATA, add(CFA_XSP16, literal(-7)))
          CFI (cfiCond51) R7 load(1, XDATA, add(CFA_XSP16, literal(-6)))
          CFI (cfiCond51) ?RET_LOW load(1, XDATA, add(CFA_XSP16, literal(-5)))
          CFI (cfiCond51) ?RET_HIGH load(1, XDATA, add(CFA_XSP16, literal(-4)))
          CFI (cfiCond51) ?BRET_EXT load(1, XDATA, add(CFA_XSP16, literal(-3)))
          CFI (cfiCond51) DPL0 load(1, XDATA, add(CFA_XSP16, literal(-2)))
          CFI (cfiCond51) DPH0 load(1, XDATA, add(CFA_XSP16, literal(-1)))
          CFI (cfiCond51) CFA_SP SP+-2
          CFI (cfiCond51) CFA_XSP16 add(XSP16, 13)
          CFI Block cfiCond52 Using cfiCommon0
          CFI (cfiCond52) Function LCD_write_CN_string
          CFI (cfiCond52) Conditional ??CrossCallReturnLabel_6
          CFI (cfiCond52) R6 load(1, XDATA, add(CFA_XSP16, literal(-13)))
          CFI (cfiCond52) VB load(1, XDATA, add(CFA_XSP16, literal(-12)))
          CFI (cfiCond52) V0 load(1, XDATA, add(CFA_XSP16, literal(-11)))
          CFI (cfiCond52) V1 load(1, XDATA, add(CFA_XSP16, literal(-10)))
          CFI (cfiCond52) V2 load(1, XDATA, add(CFA_XSP16, literal(-9)))
          CFI (cfiCond52) V3 load(1, XDATA, add(CFA_XSP16, literal(-8)))
          CFI (cfiCond52) V4 load(1, XDATA, add(CFA_XSP16, literal(-7)))
          CFI (cfiCond52) R7 load(1, XDATA, add(CFA_XSP16, literal(-6)))
          CFI (cfiCond52) ?RET_LOW load(1, XDATA, add(CFA_XSP16, literal(-5)))
          CFI (cfiCond52) ?RET_HIGH load(1, XDATA, add(CFA_XSP16, literal(-4)))
          CFI (cfiCond52) ?BRET_EXT load(1, XDATA, add(CFA_XSP16, literal(-3)))
          CFI (cfiCond52) DPL0 load(1, XDATA, add(CFA_XSP16, literal(-2)))
          CFI (cfiCond52) DPH0 load(1, XDATA, add(CFA_XSP16, literal(-1)))
          CFI (cfiCond52) CFA_SP SP+-2
          CFI (cfiCond52) CFA_XSP16 add(XSP16, 13)
          CFI Block cfiPicker53 Using cfiCommon1
          CFI (cfiPicker53) NoFunction
          CFI (cfiPicker53) Picker
        ADDC    A,R1
        MOV     DPH,A
        CLR     A
        MOVC    A,@A+DPTR
        RET
          CFI EndBlock cfiCond48
          CFI EndBlock cfiCond49
          CFI EndBlock cfiCond50
          CFI EndBlock cfiCond51
          CFI EndBlock cfiCond52
          CFI EndBlock cfiPicker53
// 1009 
// 1010 /****************************************************************************
// 1011 * 名    称: LCD_write_CN_string()
// 1012 * 功    能: 在指定位置显示 14 ×14 点阵中文字符串   
// 1013 * 入口参数: X - 显示位置左上角横坐标      Y ―显示位置左上角纵坐标
// 1014 *           s ―字符串指针                  
// 1015 * 出口参数: 无
// 1016 ****************************************************************************/

        RSEG BANKED_CODE:CODE:NOROOT(0)
// 1017 void LCD_write_CN_string(unsigned char X,unsigned char Y,uint8 *s)
LCD_write_CN_string:
          CFI Block cfiBlock54 Using cfiCommon0
          CFI Function LCD_write_CN_string
        CODE
// 1018 {
        FUNCALL LCD_write_CN_string, LCD_write_CN
        LOCFRAME ISTACK, 0, STACK
        LOCFRAME PSTACK, 0, STACK
        LOCFRAME XSTACK, 13, STACK
        LOCFRAME IOVERLAY, 0, STATIC
        LOCFRAME DOVERLAY, 0, STATIC
        ARGFRAME ISTACK, 0, STACK
        ARGFRAME PSTACK, 0, STACK
        ARGFRAME XSTACK, 13, STACK
        ARGFRAME IOVERLAY, 0, STATIC
        ARGFRAME DOVERLAY, 0, STATIC
        FUNCALL LCD_write_CN_string, DrawRectFill
        LOCFRAME ISTACK, 0, STACK
        LOCFRAME PSTACK, 0, STACK
        LOCFRAME XSTACK, 19, STACK
        LOCFRAME IOVERLAY, 0, STATIC
        LOCFRAME DOVERLAY, 0, STATIC
        ARGFRAME ISTACK, 0, STACK
        ARGFRAME PSTACK, 0, STACK
        ARGFRAME XSTACK, 19, STACK
        ARGFRAME IOVERLAY, 0, STATIC
        ARGFRAME DOVERLAY, 0, STATIC
        REQUIRE ?V0
        REQUIRE ?V1
        REQUIRE ?V2
        REQUIRE ?V3
        REQUIRE ?V4
        MOV     A,#-0xd
        LCALL   ?BANKED_ENTER_XDATA
          CFI DPH0 load(1, XDATA, add(CFA_XSP16, literal(-1)))
          CFI DPL0 load(1, XDATA, add(CFA_XSP16, literal(-2)))
          CFI ?BRET_EXT load(1, XDATA, add(CFA_XSP16, literal(-3)))
          CFI ?RET_HIGH load(1, XDATA, add(CFA_XSP16, literal(-4)))
          CFI ?RET_LOW load(1, XDATA, add(CFA_XSP16, literal(-5)))
          CFI R7 load(1, XDATA, add(CFA_XSP16, literal(-6)))
          CFI V4 load(1, XDATA, add(CFA_XSP16, literal(-7)))
          CFI V3 load(1, XDATA, add(CFA_XSP16, literal(-8)))
          CFI V2 load(1, XDATA, add(CFA_XSP16, literal(-9)))
          CFI V1 load(1, XDATA, add(CFA_XSP16, literal(-10)))
          CFI V0 load(1, XDATA, add(CFA_XSP16, literal(-11)))
          CFI VB load(1, XDATA, add(CFA_XSP16, literal(-12)))
          CFI R6 load(1, XDATA, add(CFA_XSP16, literal(-13)))
          CFI CFA_SP SP+0
          CFI CFA_XSP16 add(XSP16, 13)
        ; Saved register size: 13
        ; Auto size: 0
        MOV     ?V4,R1
        MOV     ?V1,R2
        MOV     A,R4
        MOV     R6,A
        MOV     A,R5
        MOV     R7,A
// 1019   unsigned char i=0;
        MOV     ?V0,#0x0
// 1020   static unsigned char j=0;
// 1021   
// 1022   while (*s)
??LCD_write_CN_string_0:
        MOV     DPL,R6
        MOV     DPH,R7
        MOVX    A,@DPTR
        JNZ     $+5
        LJMP    ??LCD_write_CN_string_1 & 0xFFFF
// 1023   {
// 1024     for(j=0;j<ALL_CNS;j++)                  //搜索点阵字模
        MOV     DPTR,#??j
        CLR     A
        MOVX    @DPTR,A
// 1025     { 
// 1026       if(  *s    ==CN14x14_Index[j*2]            
// 1027          &&*(s+1)==CN14x14_Index[j*2+1])    //汉字内码存在于字模索引数组中
??LCD_write_CN_string_2:
        MOV     DPL,R6
        MOV     DPH,R7
        MOVX    A,@DPTR
        MOV     R2,A
        MOV     DPTR,#??j
        MOVX    A,@DPTR
        ADD     A,0xE0 /* A   */
        MOV     R0,A
        CLR     A
        RLC     A
        MOV     R1,A
        MOV     A,#CN14x14_Index & 0xff
        ADD     A,R0
        MOV     DPL,A
        MOV     A,#(CN14x14_Index >> 8) & 0xff
        LCALL   ?Subroutine9 & 0xFFFF
??CrossCallReturnLabel_5:
        XRL     A,R2
        JNZ     ??LCD_write_CN_string_3
        MOV     DPL,R6
        MOV     DPH,R7
        INC     DPTR
        MOVX    A,@DPTR
        MOV     R2,A
        MOV     A,#(CN14x14_Index + 1) & 0xff
        ADD     A,R0
        MOV     DPL,A
        MOV     A,#((CN14x14_Index + 1) >> 8) & 0xff
        LCALL   ?Subroutine9 & 0xFFFF
??CrossCallReturnLabel_6:
        XRL     A,R2
        JNZ     ??LCD_write_CN_string_3
// 1028       {
// 1029         LCD_write_CN(X+i*14,Y,j) ;          //显示汉字
        ; Setup parameters for call to function LCD_write_CN
        MOV     DPTR,#??j
        MOVX    A,@DPTR
        MOV     R1,A
        MOV     R4,?V1
        MOV     R5,#0x0
        MOV     ?V2,?V4
        MOV     A,?V0
        MOV     B,#0xe
        MUL     AB
        MOV     R2,A
        MOV     R3,B
        MOV     A,?V2
        ADD     A,R2
        MOV     R2,A
        CLR     A
        ADDC    A,R3
        MOV     R3,A
        LCALL   `??LCD_write_CN::?relay`; Banked call to: LCD_write_CN
// 1030         break; 
        SJMP    ??LCD_write_CN_string_4
// 1031       }
// 1032     }
??LCD_write_CN_string_3:
        MOV     DPTR,#??j
        MOVX    A,@DPTR
        INC     A
        MOVX    @DPTR,A
        CLR     C
        SUBB    A,#-0x80
        JC      ??LCD_write_CN_string_2
// 1033     if(j>=ALL_CNS)                          //无此字的点阵字模
??LCD_write_CN_string_4:
        MOV     DPTR,#??j
        MOVX    A,@DPTR
        CLR     C
        SUBB    A,#-0x80
        JC      ??LCD_write_CN_string_5
// 1034     {
// 1035       DrawRectFill(X+i*14,Y,14,14,Color_BK);//显示空格
        ; Setup parameters for call to function DrawRectFill
        MOV     DPTR,#Color_BK
        LCALL   ?PUSH_XSTACK8_X_TWO
          CFI CFA_XSP16 add(XSP16, 15)
        MOV     ?V2,#0xe
        MOV     ?V3,#0x0
        MOV     R0,#?V2
        LCALL   ?PUSH_XSTACK_I_TWO
          CFI CFA_XSP16 add(XSP16, 17)
        MOV     R0,#?V2
        LCALL   ?PUSH_XSTACK_I_TWO
          CFI CFA_XSP16 add(XSP16, 19)
        MOV     R4,?V1
        MOV     R5,#0x0
        MOV     A,?V0
        MOV     B,#0xe
        MUL     AB
        MOV     R0,A
        MOV     ?V2,B
        MOV     R1,?V2
        MOV     A,?V4
        ADD     A,R0
        MOV     R2,A
        CLR     A
        ADDC    A,R1
        MOV     R3,A
        LCALL   `??DrawRectFill::?relay`; Banked call to: DrawRectFill
        MOV     A,#0x6
        LCALL   ?DEALLOC_XSTACK8
          CFI CFA_XSP16 add(XSP16, 13)
// 1036     }
// 1037     s++; s++ ;                              //字符指针移位
??LCD_write_CN_string_5:
        MOV     A,R6
        ADD     A,#0x2
        MOV     R6,A
        JNC     ??LCD_write_CN_string_6
        INC     R7
// 1038     i++;
??LCD_write_CN_string_6:
        INC     ?V0
// 1039     if(i>=HAL_LCD_MAX_CHARS/2)  
        MOV     A,?V0
        CLR     C
        SUBB    A,#0x8
        JNC     $+5
        LJMP    ??LCD_write_CN_string_0 & 0xFFFF
// 1040       return;                               //超过最大显示字符数，返回
// 1041   }
// 1042   return ;
??LCD_write_CN_string_1:
        LJMP    ??Subroutine11_0 & 0xFFFF
// 1043 }
          CFI EndBlock cfiBlock54

        RSEG XDATA_Z:XDATA:NOROOT(0)
        DATA8
??j:
        DS 1
        REQUIRE __INIT_XDATA_Z
// 1044 
// 1045 /****************************************************************************
// 1046 * 名    称: ShowImage()
// 1047 * 功    能: 显示图片   
// 1048 * 入口参数: p - 图片点阵数据  取模方式 水平扫描 从左到右 低位在前           
// 1049 * 出口参数: 无
// 1050 ****************************************************************************/

        RSEG BANKED_CODE:CODE:NOROOT(0)
// 1051 void ShowImage(const unsigned char *p) 
ShowImage:
          CFI Block cfiBlock55 Using cfiCommon0
          CFI Function ShowImage
        CODE
// 1052 {
        FUNCALL ShowImage, LCD_set_window
        LOCFRAME ISTACK, 0, STACK
        LOCFRAME PSTACK, 0, STACK
        LOCFRAME XSTACK, 16, STACK
        LOCFRAME IOVERLAY, 0, STATIC
        LOCFRAME DOVERLAY, 0, STATIC
        ARGFRAME ISTACK, 0, STACK
        ARGFRAME PSTACK, 0, STACK
        ARGFRAME XSTACK, 16, STACK
        ARGFRAME IOVERLAY, 0, STATIC
        ARGFRAME DOVERLAY, 0, STATIC
        FUNCALL ShowImage, LCD_WriteData_16Bit
        LOCFRAME ISTACK, 0, STACK
        LOCFRAME PSTACK, 0, STACK
        LOCFRAME XSTACK, 12, STACK
        LOCFRAME IOVERLAY, 0, STATIC
        LOCFRAME DOVERLAY, 0, STATIC
        ARGFRAME ISTACK, 0, STACK
        ARGFRAME PSTACK, 0, STACK
        ARGFRAME XSTACK, 12, STACK
        ARGFRAME IOVERLAY, 0, STATIC
        ARGFRAME DOVERLAY, 0, STATIC
        REQUIRE ?V0
        REQUIRE ?V1
        REQUIRE ?V2
        REQUIRE ?V3
        MOV     A,#-0xc
        LCALL   ?BANKED_ENTER_XDATA
          CFI DPH0 load(1, XDATA, add(CFA_XSP16, literal(-1)))
          CFI DPL0 load(1, XDATA, add(CFA_XSP16, literal(-2)))
          CFI ?BRET_EXT load(1, XDATA, add(CFA_XSP16, literal(-3)))
          CFI ?RET_HIGH load(1, XDATA, add(CFA_XSP16, literal(-4)))
          CFI ?RET_LOW load(1, XDATA, add(CFA_XSP16, literal(-5)))
          CFI R7 load(1, XDATA, add(CFA_XSP16, literal(-6)))
          CFI V3 load(1, XDATA, add(CFA_XSP16, literal(-7)))
          CFI V2 load(1, XDATA, add(CFA_XSP16, literal(-8)))
          CFI V1 load(1, XDATA, add(CFA_XSP16, literal(-9)))
          CFI V0 load(1, XDATA, add(CFA_XSP16, literal(-10)))
          CFI VB load(1, XDATA, add(CFA_XSP16, literal(-11)))
          CFI R6 load(1, XDATA, add(CFA_XSP16, literal(-12)))
          CFI CFA_SP SP+0
          CFI CFA_XSP16 add(XSP16, 12)
        ; Saved register size: 12
        ; Auto size: 0
        MOV     ?V0,R2
        MOV     ?V1,R3
// 1053   int i; 
// 1054   unsigned char picH,picL;
// 1055   
// 1056   LCD_set_window(24,5,80,40); //坐标设置
        ; Setup parameters for call to function LCD_set_window
        MOV     ?V2,#0x28
        MOV     ?V3,#0x0
        MOV     R0,#?V2
        LCALL   ?PUSH_XSTACK_I_TWO
          CFI CFA_XSP16 add(XSP16, 14)
        MOV     ?V2,#0x50
        MOV     R0,#?V2
        LCALL   ?PUSH_XSTACK_I_TWO
          CFI CFA_XSP16 add(XSP16, 16)
        MOV     R4,#0x5
        MOV     R5,#0x0
        MOV     R2,#0x18
        MOV     R3,#0x0
        LCALL   `??LCD_set_window::?relay`; Banked call to: LCD_set_window
        MOV     A,#0x4
        LCALL   ?DEALLOC_XSTACK8
          CFI CFA_XSP16 add(XSP16, 12)
// 1057   for(i=0;i<80*40;i++)
        MOV     R6,#0x0
        MOV     R7,#0x0
// 1058   {	
// 1059     picL=*(p+i*2);	//数据低位在前
// 1060     picH=*(p+i*2+1);				
// 1061     LCD_WriteData_16Bit(picH<<8|picL);  						
??ShowImage_0:
        MOV     A,R6
        MOV     R0,A
        MOV     A,R7
        MOV     R1,A
        MOV     A,R0
        ADD     A,R0
        MOV     R0,A
        MOV     A,R1
        RLC     A
        MOV     R1,A
        MOV     A,?V0
        ADD     A,R0
        MOV     R0,A
        MOV     A,?V1
        ADDC    A,R1
        MOV     R1,A
        ; Setup parameters for call to function LCD_WriteData_16Bit
        MOV     DPL,R0
        MOV     DPH,R1
        INC     DPTR
        MOVX    A,@DPTR
        MOV     R3,A
        MOV     DPL,R0
        MOV     DPH,R1
        MOVX    A,@DPTR
        MOV     R2,A
        LCALL   `??LCD_WriteData_16Bit::?relay`; Banked call to: LCD_WriteData_16Bit
// 1062   }	
        INC     R6
        MOV     A,R6
        JNZ     ??ShowImage_1
        INC     R7
??ShowImage_1:
        CLR     C
        SUBB    A,#-0x80
        MOV     A,R7
        SUBB    A,#0xc
        MOV     C,0xD0 /* PSW */.2
        XRL     A,PSW
        RLC     A
        JC      ??ShowImage_0
// 1063 }
        LJMP    ??Subroutine13_0 & 0xFFFF
          CFI EndBlock cfiBlock55
// 1064 
// 1065 //初始化LCD

        RSEG BANKED_CODE:CODE:NOROOT(0)
// 1066 void HalLcd_HW_Init(void)
HalLcd_HW_Init:
          CFI Block cfiBlock56 Using cfiCommon0
          CFI Function HalLcd_HW_Init
        CODE
// 1067 {
        FUNCALL HalLcd_HW_Init, Lcd_Reset
        LOCFRAME ISTACK, 2, STACK
        LOCFRAME PSTACK, 0, STACK
        LOCFRAME XSTACK, 0, STACK
        LOCFRAME IOVERLAY, 0, STATIC
        LOCFRAME DOVERLAY, 0, STATIC
        ARGFRAME ISTACK, 2, STACK
        ARGFRAME PSTACK, 0, STACK
        ARGFRAME XSTACK, 0, STACK
        ARGFRAME IOVERLAY, 0, STATIC
        ARGFRAME DOVERLAY, 0, STATIC
        FUNCALL HalLcd_HW_Init, LCD_write_byte
        LOCFRAME ISTACK, 2, STACK
        LOCFRAME PSTACK, 0, STACK
        LOCFRAME XSTACK, 0, STACK
        LOCFRAME IOVERLAY, 0, STATIC
        LOCFRAME DOVERLAY, 0, STATIC
        ARGFRAME ISTACK, 2, STACK
        ARGFRAME PSTACK, 0, STACK
        ARGFRAME XSTACK, 0, STACK
        ARGFRAME IOVERLAY, 0, STATIC
        ARGFRAME DOVERLAY, 0, STATIC
        FUNCALL HalLcd_HW_Init, DelayMS
        LOCFRAME ISTACK, 2, STACK
        LOCFRAME PSTACK, 0, STACK
        LOCFRAME XSTACK, 0, STACK
        LOCFRAME IOVERLAY, 0, STATIC
        LOCFRAME DOVERLAY, 0, STATIC
        ARGFRAME ISTACK, 2, STACK
        ARGFRAME PSTACK, 0, STACK
        ARGFRAME XSTACK, 0, STACK
        ARGFRAME IOVERLAY, 0, STATIC
        ARGFRAME DOVERLAY, 0, STATIC
        FUNCALL HalLcd_HW_Init, LCD_write_byte
        LOCFRAME ISTACK, 2, STACK
        LOCFRAME PSTACK, 0, STACK
        LOCFRAME XSTACK, 0, STACK
        LOCFRAME IOVERLAY, 0, STATIC
        LOCFRAME DOVERLAY, 0, STATIC
        ARGFRAME ISTACK, 2, STACK
        ARGFRAME PSTACK, 0, STACK
        ARGFRAME XSTACK, 0, STACK
        ARGFRAME IOVERLAY, 0, STATIC
        ARGFRAME DOVERLAY, 0, STATIC
        FUNCALL HalLcd_HW_Init, LCD_write_byte
        LOCFRAME ISTACK, 2, STACK
        LOCFRAME PSTACK, 0, STACK
        LOCFRAME XSTACK, 0, STACK
        LOCFRAME IOVERLAY, 0, STATIC
        LOCFRAME DOVERLAY, 0, STATIC
        ARGFRAME ISTACK, 2, STACK
        ARGFRAME PSTACK, 0, STACK
        ARGFRAME XSTACK, 0, STACK
        ARGFRAME IOVERLAY, 0, STATIC
        ARGFRAME DOVERLAY, 0, STATIC
        FUNCALL HalLcd_HW_Init, LCD_write_byte
        LOCFRAME ISTACK, 2, STACK
        LOCFRAME PSTACK, 0, STACK
        LOCFRAME XSTACK, 0, STACK
        LOCFRAME IOVERLAY, 0, STATIC
        LOCFRAME DOVERLAY, 0, STATIC
        ARGFRAME ISTACK, 2, STACK
        ARGFRAME PSTACK, 0, STACK
        ARGFRAME XSTACK, 0, STACK
        ARGFRAME IOVERLAY, 0, STATIC
        ARGFRAME DOVERLAY, 0, STATIC
        FUNCALL HalLcd_HW_Init, LCD_write_byte
        LOCFRAME ISTACK, 2, STACK
        LOCFRAME PSTACK, 0, STACK
        LOCFRAME XSTACK, 0, STACK
        LOCFRAME IOVERLAY, 0, STATIC
        LOCFRAME DOVERLAY, 0, STATIC
        ARGFRAME ISTACK, 2, STACK
        ARGFRAME PSTACK, 0, STACK
        ARGFRAME XSTACK, 0, STACK
        ARGFRAME IOVERLAY, 0, STATIC
        ARGFRAME DOVERLAY, 0, STATIC
        FUNCALL HalLcd_HW_Init, LCD_write_byte
        LOCFRAME ISTACK, 2, STACK
        LOCFRAME PSTACK, 0, STACK
        LOCFRAME XSTACK, 0, STACK
        LOCFRAME IOVERLAY, 0, STATIC
        LOCFRAME DOVERLAY, 0, STATIC
        ARGFRAME ISTACK, 2, STACK
        ARGFRAME PSTACK, 0, STACK
        ARGFRAME XSTACK, 0, STACK
        ARGFRAME IOVERLAY, 0, STATIC
        ARGFRAME DOVERLAY, 0, STATIC
        FUNCALL HalLcd_HW_Init, LCD_write_byte
        LOCFRAME ISTACK, 2, STACK
        LOCFRAME PSTACK, 0, STACK
        LOCFRAME XSTACK, 0, STACK
        LOCFRAME IOVERLAY, 0, STATIC
        LOCFRAME DOVERLAY, 0, STATIC
        ARGFRAME ISTACK, 2, STACK
        ARGFRAME PSTACK, 0, STACK
        ARGFRAME XSTACK, 0, STACK
        ARGFRAME IOVERLAY, 0, STATIC
        ARGFRAME DOVERLAY, 0, STATIC
        FUNCALL HalLcd_HW_Init, LCD_write_byte
        LOCFRAME ISTACK, 2, STACK
        LOCFRAME PSTACK, 0, STACK
        LOCFRAME XSTACK, 0, STACK
        LOCFRAME IOVERLAY, 0, STATIC
        LOCFRAME DOVERLAY, 0, STATIC
        ARGFRAME ISTACK, 2, STACK
        ARGFRAME PSTACK, 0, STACK
        ARGFRAME XSTACK, 0, STACK
        ARGFRAME IOVERLAY, 0, STATIC
        ARGFRAME DOVERLAY, 0, STATIC
        FUNCALL HalLcd_HW_Init, LCD_write_byte
        LOCFRAME ISTACK, 2, STACK
        LOCFRAME PSTACK, 0, STACK
        LOCFRAME XSTACK, 0, STACK
        LOCFRAME IOVERLAY, 0, STATIC
        LOCFRAME DOVERLAY, 0, STATIC
        ARGFRAME ISTACK, 2, STACK
        ARGFRAME PSTACK, 0, STACK
        ARGFRAME XSTACK, 0, STACK
        ARGFRAME IOVERLAY, 0, STATIC
        ARGFRAME DOVERLAY, 0, STATIC
        FUNCALL HalLcd_HW_Init, LCD_write_byte
        LOCFRAME ISTACK, 2, STACK
        LOCFRAME PSTACK, 0, STACK
        LOCFRAME XSTACK, 0, STACK
        LOCFRAME IOVERLAY, 0, STATIC
        LOCFRAME DOVERLAY, 0, STATIC
        ARGFRAME ISTACK, 2, STACK
        ARGFRAME PSTACK, 0, STACK
        ARGFRAME XSTACK, 0, STACK
        ARGFRAME IOVERLAY, 0, STATIC
        ARGFRAME DOVERLAY, 0, STATIC
        FUNCALL HalLcd_HW_Init, LCD_write_byte
        LOCFRAME ISTACK, 2, STACK
        LOCFRAME PSTACK, 0, STACK
        LOCFRAME XSTACK, 0, STACK
        LOCFRAME IOVERLAY, 0, STATIC
        LOCFRAME DOVERLAY, 0, STATIC
        ARGFRAME ISTACK, 2, STACK
        ARGFRAME PSTACK, 0, STACK
        ARGFRAME XSTACK, 0, STACK
        ARGFRAME IOVERLAY, 0, STATIC
        ARGFRAME DOVERLAY, 0, STATIC
        FUNCALL HalLcd_HW_Init, LCD_write_byte
        LOCFRAME ISTACK, 2, STACK
        LOCFRAME PSTACK, 0, STACK
        LOCFRAME XSTACK, 0, STACK
        LOCFRAME IOVERLAY, 0, STATIC
        LOCFRAME DOVERLAY, 0, STATIC
        ARGFRAME ISTACK, 2, STACK
        ARGFRAME PSTACK, 0, STACK
        ARGFRAME XSTACK, 0, STACK
        ARGFRAME IOVERLAY, 0, STATIC
        ARGFRAME DOVERLAY, 0, STATIC
        FUNCALL HalLcd_HW_Init, LCD_write_byte
        LOCFRAME ISTACK, 2, STACK
        LOCFRAME PSTACK, 0, STACK
        LOCFRAME XSTACK, 0, STACK
        LOCFRAME IOVERLAY, 0, STATIC
        LOCFRAME DOVERLAY, 0, STATIC
        ARGFRAME ISTACK, 2, STACK
        ARGFRAME PSTACK, 0, STACK
        ARGFRAME XSTACK, 0, STACK
        ARGFRAME IOVERLAY, 0, STATIC
        ARGFRAME DOVERLAY, 0, STATIC
        FUNCALL HalLcd_HW_Init, LCD_write_byte
        LOCFRAME ISTACK, 2, STACK
        LOCFRAME PSTACK, 0, STACK
        LOCFRAME XSTACK, 0, STACK
        LOCFRAME IOVERLAY, 0, STATIC
        LOCFRAME DOVERLAY, 0, STATIC
        ARGFRAME ISTACK, 2, STACK
        ARGFRAME PSTACK, 0, STACK
        ARGFRAME XSTACK, 0, STACK
        ARGFRAME IOVERLAY, 0, STATIC
        ARGFRAME DOVERLAY, 0, STATIC
        FUNCALL HalLcd_HW_Init, LCD_write_byte
        LOCFRAME ISTACK, 2, STACK
        LOCFRAME PSTACK, 0, STACK
        LOCFRAME XSTACK, 0, STACK
        LOCFRAME IOVERLAY, 0, STATIC
        LOCFRAME DOVERLAY, 0, STATIC
        ARGFRAME ISTACK, 2, STACK
        ARGFRAME PSTACK, 0, STACK
        ARGFRAME XSTACK, 0, STACK
        ARGFRAME IOVERLAY, 0, STATIC
        ARGFRAME DOVERLAY, 0, STATIC
        FUNCALL HalLcd_HW_Init, LCD_write_byte
        LOCFRAME ISTACK, 2, STACK
        LOCFRAME PSTACK, 0, STACK
        LOCFRAME XSTACK, 0, STACK
        LOCFRAME IOVERLAY, 0, STATIC
        LOCFRAME DOVERLAY, 0, STATIC
        ARGFRAME ISTACK, 2, STACK
        ARGFRAME PSTACK, 0, STACK
        ARGFRAME XSTACK, 0, STACK
        ARGFRAME IOVERLAY, 0, STATIC
        ARGFRAME DOVERLAY, 0, STATIC
        FUNCALL HalLcd_HW_Init, LCD_write_byte
        LOCFRAME ISTACK, 2, STACK
        LOCFRAME PSTACK, 0, STACK
        LOCFRAME XSTACK, 0, STACK
        LOCFRAME IOVERLAY, 0, STATIC
        LOCFRAME DOVERLAY, 0, STATIC
        ARGFRAME ISTACK, 2, STACK
        ARGFRAME PSTACK, 0, STACK
        ARGFRAME XSTACK, 0, STACK
        ARGFRAME IOVERLAY, 0, STATIC
        ARGFRAME DOVERLAY, 0, STATIC
        FUNCALL HalLcd_HW_Init, LCD_write_byte
        LOCFRAME ISTACK, 2, STACK
        LOCFRAME PSTACK, 0, STACK
        LOCFRAME XSTACK, 0, STACK
        LOCFRAME IOVERLAY, 0, STATIC
        LOCFRAME DOVERLAY, 0, STATIC
        ARGFRAME ISTACK, 2, STACK
        ARGFRAME PSTACK, 0, STACK
        ARGFRAME XSTACK, 0, STACK
        ARGFRAME IOVERLAY, 0, STATIC
        ARGFRAME DOVERLAY, 0, STATIC
        FUNCALL HalLcd_HW_Init, LCD_write_byte
        LOCFRAME ISTACK, 2, STACK
        LOCFRAME PSTACK, 0, STACK
        LOCFRAME XSTACK, 0, STACK
        LOCFRAME IOVERLAY, 0, STATIC
        LOCFRAME DOVERLAY, 0, STATIC
        ARGFRAME ISTACK, 2, STACK
        ARGFRAME PSTACK, 0, STACK
        ARGFRAME XSTACK, 0, STACK
        ARGFRAME IOVERLAY, 0, STATIC
        ARGFRAME DOVERLAY, 0, STATIC
        FUNCALL HalLcd_HW_Init, LCD_write_byte
        LOCFRAME ISTACK, 2, STACK
        LOCFRAME PSTACK, 0, STACK
        LOCFRAME XSTACK, 0, STACK
        LOCFRAME IOVERLAY, 0, STATIC
        LOCFRAME DOVERLAY, 0, STATIC
        ARGFRAME ISTACK, 2, STACK
        ARGFRAME PSTACK, 0, STACK
        ARGFRAME XSTACK, 0, STACK
        ARGFRAME IOVERLAY, 0, STATIC
        ARGFRAME DOVERLAY, 0, STATIC
        FUNCALL HalLcd_HW_Init, LCD_write_byte
        LOCFRAME ISTACK, 2, STACK
        LOCFRAME PSTACK, 0, STACK
        LOCFRAME XSTACK, 0, STACK
        LOCFRAME IOVERLAY, 0, STATIC
        LOCFRAME DOVERLAY, 0, STATIC
        ARGFRAME ISTACK, 2, STACK
        ARGFRAME PSTACK, 0, STACK
        ARGFRAME XSTACK, 0, STACK
        ARGFRAME IOVERLAY, 0, STATIC
        ARGFRAME DOVERLAY, 0, STATIC
        FUNCALL HalLcd_HW_Init, LCD_write_byte
        LOCFRAME ISTACK, 2, STACK
        LOCFRAME PSTACK, 0, STACK
        LOCFRAME XSTACK, 0, STACK
        LOCFRAME IOVERLAY, 0, STATIC
        LOCFRAME DOVERLAY, 0, STATIC
        ARGFRAME ISTACK, 2, STACK
        ARGFRAME PSTACK, 0, STACK
        ARGFRAME XSTACK, 0, STACK
        ARGFRAME IOVERLAY, 0, STATIC
        ARGFRAME DOVERLAY, 0, STATIC
        FUNCALL HalLcd_HW_Init, LCD_write_byte
        LOCFRAME ISTACK, 2, STACK
        LOCFRAME PSTACK, 0, STACK
        LOCFRAME XSTACK, 0, STACK
        LOCFRAME IOVERLAY, 0, STATIC
        LOCFRAME DOVERLAY, 0, STATIC
        ARGFRAME ISTACK, 2, STACK
        ARGFRAME PSTACK, 0, STACK
        ARGFRAME XSTACK, 0, STACK
        ARGFRAME IOVERLAY, 0, STATIC
        ARGFRAME DOVERLAY, 0, STATIC
        FUNCALL HalLcd_HW_Init, LCD_write_byte
        LOCFRAME ISTACK, 2, STACK
        LOCFRAME PSTACK, 0, STACK
        LOCFRAME XSTACK, 0, STACK
        LOCFRAME IOVERLAY, 0, STATIC
        LOCFRAME DOVERLAY, 0, STATIC
        ARGFRAME ISTACK, 2, STACK
        ARGFRAME PSTACK, 0, STACK
        ARGFRAME XSTACK, 0, STACK
        ARGFRAME IOVERLAY, 0, STATIC
        ARGFRAME DOVERLAY, 0, STATIC
        FUNCALL HalLcd_HW_Init, LCD_write_byte
        LOCFRAME ISTACK, 2, STACK
        LOCFRAME PSTACK, 0, STACK
        LOCFRAME XSTACK, 0, STACK
        LOCFRAME IOVERLAY, 0, STATIC
        LOCFRAME DOVERLAY, 0, STATIC
        ARGFRAME ISTACK, 2, STACK
        ARGFRAME PSTACK, 0, STACK
        ARGFRAME XSTACK, 0, STACK
        ARGFRAME IOVERLAY, 0, STATIC
        ARGFRAME DOVERLAY, 0, STATIC
        FUNCALL HalLcd_HW_Init, LCD_write_byte
        LOCFRAME ISTACK, 2, STACK
        LOCFRAME PSTACK, 0, STACK
        LOCFRAME XSTACK, 0, STACK
        LOCFRAME IOVERLAY, 0, STATIC
        LOCFRAME DOVERLAY, 0, STATIC
        ARGFRAME ISTACK, 2, STACK
        ARGFRAME PSTACK, 0, STACK
        ARGFRAME XSTACK, 0, STACK
        ARGFRAME IOVERLAY, 0, STATIC
        ARGFRAME DOVERLAY, 0, STATIC
        FUNCALL HalLcd_HW_Init, LCD_write_byte
        LOCFRAME ISTACK, 2, STACK
        LOCFRAME PSTACK, 0, STACK
        LOCFRAME XSTACK, 0, STACK
        LOCFRAME IOVERLAY, 0, STATIC
        LOCFRAME DOVERLAY, 0, STATIC
        ARGFRAME ISTACK, 2, STACK
        ARGFRAME PSTACK, 0, STACK
        ARGFRAME XSTACK, 0, STACK
        ARGFRAME IOVERLAY, 0, STATIC
        ARGFRAME DOVERLAY, 0, STATIC
        FUNCALL HalLcd_HW_Init, LCD_write_byte
        LOCFRAME ISTACK, 2, STACK
        LOCFRAME PSTACK, 0, STACK
        LOCFRAME XSTACK, 0, STACK
        LOCFRAME IOVERLAY, 0, STATIC
        LOCFRAME DOVERLAY, 0, STATIC
        ARGFRAME ISTACK, 2, STACK
        ARGFRAME PSTACK, 0, STACK
        ARGFRAME XSTACK, 0, STACK
        ARGFRAME IOVERLAY, 0, STATIC
        ARGFRAME DOVERLAY, 0, STATIC
        FUNCALL HalLcd_HW_Init, LCD_write_byte
        LOCFRAME ISTACK, 2, STACK
        LOCFRAME PSTACK, 0, STACK
        LOCFRAME XSTACK, 0, STACK
        LOCFRAME IOVERLAY, 0, STATIC
        LOCFRAME DOVERLAY, 0, STATIC
        ARGFRAME ISTACK, 2, STACK
        ARGFRAME PSTACK, 0, STACK
        ARGFRAME XSTACK, 0, STACK
        ARGFRAME IOVERLAY, 0, STATIC
        ARGFRAME DOVERLAY, 0, STATIC
        FUNCALL HalLcd_HW_Init, LCD_write_byte
        LOCFRAME ISTACK, 2, STACK
        LOCFRAME PSTACK, 0, STACK
        LOCFRAME XSTACK, 0, STACK
        LOCFRAME IOVERLAY, 0, STATIC
        LOCFRAME DOVERLAY, 0, STATIC
        ARGFRAME ISTACK, 2, STACK
        ARGFRAME PSTACK, 0, STACK
        ARGFRAME XSTACK, 0, STACK
        ARGFRAME IOVERLAY, 0, STATIC
        ARGFRAME DOVERLAY, 0, STATIC
        FUNCALL HalLcd_HW_Init, LCD_write_byte
        LOCFRAME ISTACK, 2, STACK
        LOCFRAME PSTACK, 0, STACK
        LOCFRAME XSTACK, 0, STACK
        LOCFRAME IOVERLAY, 0, STATIC
        LOCFRAME DOVERLAY, 0, STATIC
        ARGFRAME ISTACK, 2, STACK
        ARGFRAME PSTACK, 0, STACK
        ARGFRAME XSTACK, 0, STACK
        ARGFRAME IOVERLAY, 0, STATIC
        ARGFRAME DOVERLAY, 0, STATIC
        FUNCALL HalLcd_HW_Init, LCD_write_byte
        LOCFRAME ISTACK, 2, STACK
        LOCFRAME PSTACK, 0, STACK
        LOCFRAME XSTACK, 0, STACK
        LOCFRAME IOVERLAY, 0, STATIC
        LOCFRAME DOVERLAY, 0, STATIC
        ARGFRAME ISTACK, 2, STACK
        ARGFRAME PSTACK, 0, STACK
        ARGFRAME XSTACK, 0, STACK
        ARGFRAME IOVERLAY, 0, STATIC
        ARGFRAME DOVERLAY, 0, STATIC
        FUNCALL HalLcd_HW_Init, LCD_write_byte
        LOCFRAME ISTACK, 2, STACK
        LOCFRAME PSTACK, 0, STACK
        LOCFRAME XSTACK, 0, STACK
        LOCFRAME IOVERLAY, 0, STATIC
        LOCFRAME DOVERLAY, 0, STATIC
        ARGFRAME ISTACK, 2, STACK
        ARGFRAME PSTACK, 0, STACK
        ARGFRAME XSTACK, 0, STACK
        ARGFRAME IOVERLAY, 0, STATIC
        ARGFRAME DOVERLAY, 0, STATIC
        FUNCALL HalLcd_HW_Init, LCD_write_byte
        LOCFRAME ISTACK, 2, STACK
        LOCFRAME PSTACK, 0, STACK
        LOCFRAME XSTACK, 0, STACK
        LOCFRAME IOVERLAY, 0, STATIC
        LOCFRAME DOVERLAY, 0, STATIC
        ARGFRAME ISTACK, 2, STACK
        ARGFRAME PSTACK, 0, STACK
        ARGFRAME XSTACK, 0, STACK
        ARGFRAME IOVERLAY, 0, STATIC
        ARGFRAME DOVERLAY, 0, STATIC
        FUNCALL HalLcd_HW_Init, LCD_write_byte
        LOCFRAME ISTACK, 2, STACK
        LOCFRAME PSTACK, 0, STACK
        LOCFRAME XSTACK, 0, STACK
        LOCFRAME IOVERLAY, 0, STATIC
        LOCFRAME DOVERLAY, 0, STATIC
        ARGFRAME ISTACK, 2, STACK
        ARGFRAME PSTACK, 0, STACK
        ARGFRAME XSTACK, 0, STACK
        ARGFRAME IOVERLAY, 0, STATIC
        ARGFRAME DOVERLAY, 0, STATIC
        FUNCALL HalLcd_HW_Init, LCD_write_byte
        LOCFRAME ISTACK, 2, STACK
        LOCFRAME PSTACK, 0, STACK
        LOCFRAME XSTACK, 0, STACK
        LOCFRAME IOVERLAY, 0, STATIC
        LOCFRAME DOVERLAY, 0, STATIC
        ARGFRAME ISTACK, 2, STACK
        ARGFRAME PSTACK, 0, STACK
        ARGFRAME XSTACK, 0, STACK
        ARGFRAME IOVERLAY, 0, STATIC
        ARGFRAME DOVERLAY, 0, STATIC
        FUNCALL HalLcd_HW_Init, LCD_write_byte
        LOCFRAME ISTACK, 2, STACK
        LOCFRAME PSTACK, 0, STACK
        LOCFRAME XSTACK, 0, STACK
        LOCFRAME IOVERLAY, 0, STATIC
        LOCFRAME DOVERLAY, 0, STATIC
        ARGFRAME ISTACK, 2, STACK
        ARGFRAME PSTACK, 0, STACK
        ARGFRAME XSTACK, 0, STACK
        ARGFRAME IOVERLAY, 0, STATIC
        ARGFRAME DOVERLAY, 0, STATIC
        FUNCALL HalLcd_HW_Init, LCD_write_byte
        LOCFRAME ISTACK, 2, STACK
        LOCFRAME PSTACK, 0, STACK
        LOCFRAME XSTACK, 0, STACK
        LOCFRAME IOVERLAY, 0, STATIC
        LOCFRAME DOVERLAY, 0, STATIC
        ARGFRAME ISTACK, 2, STACK
        ARGFRAME PSTACK, 0, STACK
        ARGFRAME XSTACK, 0, STACK
        ARGFRAME IOVERLAY, 0, STATIC
        ARGFRAME DOVERLAY, 0, STATIC
        FUNCALL HalLcd_HW_Init, LCD_write_byte
        LOCFRAME ISTACK, 2, STACK
        LOCFRAME PSTACK, 0, STACK
        LOCFRAME XSTACK, 0, STACK
        LOCFRAME IOVERLAY, 0, STATIC
        LOCFRAME DOVERLAY, 0, STATIC
        ARGFRAME ISTACK, 2, STACK
        ARGFRAME PSTACK, 0, STACK
        ARGFRAME XSTACK, 0, STACK
        ARGFRAME IOVERLAY, 0, STATIC
        ARGFRAME DOVERLAY, 0, STATIC
        FUNCALL HalLcd_HW_Init, LCD_write_byte
        LOCFRAME ISTACK, 2, STACK
        LOCFRAME PSTACK, 0, STACK
        LOCFRAME XSTACK, 0, STACK
        LOCFRAME IOVERLAY, 0, STATIC
        LOCFRAME DOVERLAY, 0, STATIC
        ARGFRAME ISTACK, 2, STACK
        ARGFRAME PSTACK, 0, STACK
        ARGFRAME XSTACK, 0, STACK
        ARGFRAME IOVERLAY, 0, STATIC
        ARGFRAME DOVERLAY, 0, STATIC
        FUNCALL HalLcd_HW_Init, LCD_write_byte
        LOCFRAME ISTACK, 2, STACK
        LOCFRAME PSTACK, 0, STACK
        LOCFRAME XSTACK, 0, STACK
        LOCFRAME IOVERLAY, 0, STATIC
        LOCFRAME DOVERLAY, 0, STATIC
        ARGFRAME ISTACK, 2, STACK
        ARGFRAME PSTACK, 0, STACK
        ARGFRAME XSTACK, 0, STACK
        ARGFRAME IOVERLAY, 0, STATIC
        ARGFRAME DOVERLAY, 0, STATIC
        FUNCALL HalLcd_HW_Init, LCD_write_byte
        LOCFRAME ISTACK, 2, STACK
        LOCFRAME PSTACK, 0, STACK
        LOCFRAME XSTACK, 0, STACK
        LOCFRAME IOVERLAY, 0, STATIC
        LOCFRAME DOVERLAY, 0, STATIC
        ARGFRAME ISTACK, 2, STACK
        ARGFRAME PSTACK, 0, STACK
        ARGFRAME XSTACK, 0, STACK
        ARGFRAME IOVERLAY, 0, STATIC
        ARGFRAME DOVERLAY, 0, STATIC
        FUNCALL HalLcd_HW_Init, LCD_write_byte
        LOCFRAME ISTACK, 2, STACK
        LOCFRAME PSTACK, 0, STACK
        LOCFRAME XSTACK, 0, STACK
        LOCFRAME IOVERLAY, 0, STATIC
        LOCFRAME DOVERLAY, 0, STATIC
        ARGFRAME ISTACK, 2, STACK
        ARGFRAME PSTACK, 0, STACK
        ARGFRAME XSTACK, 0, STACK
        ARGFRAME IOVERLAY, 0, STATIC
        ARGFRAME DOVERLAY, 0, STATIC
        FUNCALL HalLcd_HW_Init, LCD_write_byte
        LOCFRAME ISTACK, 2, STACK
        LOCFRAME PSTACK, 0, STACK
        LOCFRAME XSTACK, 0, STACK
        LOCFRAME IOVERLAY, 0, STATIC
        LOCFRAME DOVERLAY, 0, STATIC
        ARGFRAME ISTACK, 2, STACK
        ARGFRAME PSTACK, 0, STACK
        ARGFRAME XSTACK, 0, STACK
        ARGFRAME IOVERLAY, 0, STATIC
        ARGFRAME DOVERLAY, 0, STATIC
        FUNCALL HalLcd_HW_Init, LCD_write_byte
        LOCFRAME ISTACK, 2, STACK
        LOCFRAME PSTACK, 0, STACK
        LOCFRAME XSTACK, 0, STACK
        LOCFRAME IOVERLAY, 0, STATIC
        LOCFRAME DOVERLAY, 0, STATIC
        ARGFRAME ISTACK, 2, STACK
        ARGFRAME PSTACK, 0, STACK
        ARGFRAME XSTACK, 0, STACK
        ARGFRAME IOVERLAY, 0, STATIC
        ARGFRAME DOVERLAY, 0, STATIC
        FUNCALL HalLcd_HW_Init, LCD_write_byte
        LOCFRAME ISTACK, 2, STACK
        LOCFRAME PSTACK, 0, STACK
        LOCFRAME XSTACK, 0, STACK
        LOCFRAME IOVERLAY, 0, STATIC
        LOCFRAME DOVERLAY, 0, STATIC
        ARGFRAME ISTACK, 2, STACK
        ARGFRAME PSTACK, 0, STACK
        ARGFRAME XSTACK, 0, STACK
        ARGFRAME IOVERLAY, 0, STATIC
        ARGFRAME DOVERLAY, 0, STATIC
        FUNCALL HalLcd_HW_Init, LCD_write_byte
        LOCFRAME ISTACK, 2, STACK
        LOCFRAME PSTACK, 0, STACK
        LOCFRAME XSTACK, 0, STACK
        LOCFRAME IOVERLAY, 0, STATIC
        LOCFRAME DOVERLAY, 0, STATIC
        ARGFRAME ISTACK, 2, STACK
        ARGFRAME PSTACK, 0, STACK
        ARGFRAME XSTACK, 0, STACK
        ARGFRAME IOVERLAY, 0, STATIC
        ARGFRAME DOVERLAY, 0, STATIC
        FUNCALL HalLcd_HW_Init, LCD_write_byte
        LOCFRAME ISTACK, 2, STACK
        LOCFRAME PSTACK, 0, STACK
        LOCFRAME XSTACK, 0, STACK
        LOCFRAME IOVERLAY, 0, STATIC
        LOCFRAME DOVERLAY, 0, STATIC
        ARGFRAME ISTACK, 2, STACK
        ARGFRAME PSTACK, 0, STACK
        ARGFRAME XSTACK, 0, STACK
        ARGFRAME IOVERLAY, 0, STATIC
        ARGFRAME DOVERLAY, 0, STATIC
        FUNCALL HalLcd_HW_Init, LCD_write_byte
        LOCFRAME ISTACK, 2, STACK
        LOCFRAME PSTACK, 0, STACK
        LOCFRAME XSTACK, 0, STACK
        LOCFRAME IOVERLAY, 0, STATIC
        LOCFRAME DOVERLAY, 0, STATIC
        ARGFRAME ISTACK, 2, STACK
        ARGFRAME PSTACK, 0, STACK
        ARGFRAME XSTACK, 0, STACK
        ARGFRAME IOVERLAY, 0, STATIC
        ARGFRAME DOVERLAY, 0, STATIC
        FUNCALL HalLcd_HW_Init, LCD_write_byte
        LOCFRAME ISTACK, 2, STACK
        LOCFRAME PSTACK, 0, STACK
        LOCFRAME XSTACK, 0, STACK
        LOCFRAME IOVERLAY, 0, STATIC
        LOCFRAME DOVERLAY, 0, STATIC
        ARGFRAME ISTACK, 2, STACK
        ARGFRAME PSTACK, 0, STACK
        ARGFRAME XSTACK, 0, STACK
        ARGFRAME IOVERLAY, 0, STATIC
        ARGFRAME DOVERLAY, 0, STATIC
        FUNCALL HalLcd_HW_Init, LCD_write_byte
        LOCFRAME ISTACK, 2, STACK
        LOCFRAME PSTACK, 0, STACK
        LOCFRAME XSTACK, 0, STACK
        LOCFRAME IOVERLAY, 0, STATIC
        LOCFRAME DOVERLAY, 0, STATIC
        ARGFRAME ISTACK, 2, STACK
        ARGFRAME PSTACK, 0, STACK
        ARGFRAME XSTACK, 0, STACK
        ARGFRAME IOVERLAY, 0, STATIC
        ARGFRAME DOVERLAY, 0, STATIC
        FUNCALL HalLcd_HW_Init, LCD_write_byte
        LOCFRAME ISTACK, 2, STACK
        LOCFRAME PSTACK, 0, STACK
        LOCFRAME XSTACK, 0, STACK
        LOCFRAME IOVERLAY, 0, STATIC
        LOCFRAME DOVERLAY, 0, STATIC
        ARGFRAME ISTACK, 2, STACK
        ARGFRAME PSTACK, 0, STACK
        ARGFRAME XSTACK, 0, STACK
        ARGFRAME IOVERLAY, 0, STATIC
        ARGFRAME DOVERLAY, 0, STATIC
        FUNCALL HalLcd_HW_Init, LCD_write_byte
        LOCFRAME ISTACK, 2, STACK
        LOCFRAME PSTACK, 0, STACK
        LOCFRAME XSTACK, 0, STACK
        LOCFRAME IOVERLAY, 0, STATIC
        LOCFRAME DOVERLAY, 0, STATIC
        ARGFRAME ISTACK, 2, STACK
        ARGFRAME PSTACK, 0, STACK
        ARGFRAME XSTACK, 0, STACK
        ARGFRAME IOVERLAY, 0, STATIC
        ARGFRAME DOVERLAY, 0, STATIC
        FUNCALL HalLcd_HW_Init, LCD_write_byte
        LOCFRAME ISTACK, 2, STACK
        LOCFRAME PSTACK, 0, STACK
        LOCFRAME XSTACK, 0, STACK
        LOCFRAME IOVERLAY, 0, STATIC
        LOCFRAME DOVERLAY, 0, STATIC
        ARGFRAME ISTACK, 2, STACK
        ARGFRAME PSTACK, 0, STACK
        ARGFRAME XSTACK, 0, STACK
        ARGFRAME IOVERLAY, 0, STATIC
        ARGFRAME DOVERLAY, 0, STATIC
        FUNCALL HalLcd_HW_Init, LCD_write_byte
        LOCFRAME ISTACK, 2, STACK
        LOCFRAME PSTACK, 0, STACK
        LOCFRAME XSTACK, 0, STACK
        LOCFRAME IOVERLAY, 0, STATIC
        LOCFRAME DOVERLAY, 0, STATIC
        ARGFRAME ISTACK, 2, STACK
        ARGFRAME PSTACK, 0, STACK
        ARGFRAME XSTACK, 0, STACK
        ARGFRAME IOVERLAY, 0, STATIC
        ARGFRAME DOVERLAY, 0, STATIC
        FUNCALL HalLcd_HW_Init, LCD_write_byte
        LOCFRAME ISTACK, 2, STACK
        LOCFRAME PSTACK, 0, STACK
        LOCFRAME XSTACK, 0, STACK
        LOCFRAME IOVERLAY, 0, STATIC
        LOCFRAME DOVERLAY, 0, STATIC
        ARGFRAME ISTACK, 2, STACK
        ARGFRAME PSTACK, 0, STACK
        ARGFRAME XSTACK, 0, STACK
        ARGFRAME IOVERLAY, 0, STATIC
        ARGFRAME DOVERLAY, 0, STATIC
        FUNCALL HalLcd_HW_Init, LCD_write_byte
        LOCFRAME ISTACK, 2, STACK
        LOCFRAME PSTACK, 0, STACK
        LOCFRAME XSTACK, 0, STACK
        LOCFRAME IOVERLAY, 0, STATIC
        LOCFRAME DOVERLAY, 0, STATIC
        ARGFRAME ISTACK, 2, STACK
        ARGFRAME PSTACK, 0, STACK
        ARGFRAME XSTACK, 0, STACK
        ARGFRAME IOVERLAY, 0, STATIC
        ARGFRAME DOVERLAY, 0, STATIC
        FUNCALL HalLcd_HW_Init, LCD_write_byte
        LOCFRAME ISTACK, 2, STACK
        LOCFRAME PSTACK, 0, STACK
        LOCFRAME XSTACK, 0, STACK
        LOCFRAME IOVERLAY, 0, STATIC
        LOCFRAME DOVERLAY, 0, STATIC
        ARGFRAME ISTACK, 2, STACK
        ARGFRAME PSTACK, 0, STACK
        ARGFRAME XSTACK, 0, STACK
        ARGFRAME IOVERLAY, 0, STATIC
        ARGFRAME DOVERLAY, 0, STATIC
        FUNCALL HalLcd_HW_Init, LCD_write_byte
        LOCFRAME ISTACK, 2, STACK
        LOCFRAME PSTACK, 0, STACK
        LOCFRAME XSTACK, 0, STACK
        LOCFRAME IOVERLAY, 0, STATIC
        LOCFRAME DOVERLAY, 0, STATIC
        ARGFRAME ISTACK, 2, STACK
        ARGFRAME PSTACK, 0, STACK
        ARGFRAME XSTACK, 0, STACK
        ARGFRAME IOVERLAY, 0, STATIC
        ARGFRAME DOVERLAY, 0, STATIC
        FUNCALL HalLcd_HW_Init, LCD_write_byte
        LOCFRAME ISTACK, 2, STACK
        LOCFRAME PSTACK, 0, STACK
        LOCFRAME XSTACK, 0, STACK
        LOCFRAME IOVERLAY, 0, STATIC
        LOCFRAME DOVERLAY, 0, STATIC
        ARGFRAME ISTACK, 2, STACK
        ARGFRAME PSTACK, 0, STACK
        ARGFRAME XSTACK, 0, STACK
        ARGFRAME IOVERLAY, 0, STATIC
        ARGFRAME DOVERLAY, 0, STATIC
        FUNCALL HalLcd_HW_Init, LCD_write_byte
        LOCFRAME ISTACK, 2, STACK
        LOCFRAME PSTACK, 0, STACK
        LOCFRAME XSTACK, 0, STACK
        LOCFRAME IOVERLAY, 0, STATIC
        LOCFRAME DOVERLAY, 0, STATIC
        ARGFRAME ISTACK, 2, STACK
        ARGFRAME PSTACK, 0, STACK
        ARGFRAME XSTACK, 0, STACK
        ARGFRAME IOVERLAY, 0, STATIC
        ARGFRAME DOVERLAY, 0, STATIC
        FUNCALL HalLcd_HW_Init, LCD_write_byte
        LOCFRAME ISTACK, 2, STACK
        LOCFRAME PSTACK, 0, STACK
        LOCFRAME XSTACK, 0, STACK
        LOCFRAME IOVERLAY, 0, STATIC
        LOCFRAME DOVERLAY, 0, STATIC
        ARGFRAME ISTACK, 2, STACK
        ARGFRAME PSTACK, 0, STACK
        ARGFRAME XSTACK, 0, STACK
        ARGFRAME IOVERLAY, 0, STATIC
        ARGFRAME DOVERLAY, 0, STATIC
        FUNCALL HalLcd_HW_Init, LCD_write_byte
        LOCFRAME ISTACK, 2, STACK
        LOCFRAME PSTACK, 0, STACK
        LOCFRAME XSTACK, 0, STACK
        LOCFRAME IOVERLAY, 0, STATIC
        LOCFRAME DOVERLAY, 0, STATIC
        ARGFRAME ISTACK, 2, STACK
        ARGFRAME PSTACK, 0, STACK
        ARGFRAME XSTACK, 0, STACK
        ARGFRAME IOVERLAY, 0, STATIC
        ARGFRAME DOVERLAY, 0, STATIC
        FUNCALL HalLcd_HW_Init, LCD_write_byte
        LOCFRAME ISTACK, 2, STACK
        LOCFRAME PSTACK, 0, STACK
        LOCFRAME XSTACK, 0, STACK
        LOCFRAME IOVERLAY, 0, STATIC
        LOCFRAME DOVERLAY, 0, STATIC
        ARGFRAME ISTACK, 2, STACK
        ARGFRAME PSTACK, 0, STACK
        ARGFRAME XSTACK, 0, STACK
        ARGFRAME IOVERLAY, 0, STATIC
        ARGFRAME DOVERLAY, 0, STATIC
        FUNCALL HalLcd_HW_Init, LCD_write_byte
        LOCFRAME ISTACK, 2, STACK
        LOCFRAME PSTACK, 0, STACK
        LOCFRAME XSTACK, 0, STACK
        LOCFRAME IOVERLAY, 0, STATIC
        LOCFRAME DOVERLAY, 0, STATIC
        ARGFRAME ISTACK, 2, STACK
        ARGFRAME PSTACK, 0, STACK
        ARGFRAME XSTACK, 0, STACK
        ARGFRAME IOVERLAY, 0, STATIC
        ARGFRAME DOVERLAY, 0, STATIC
        FUNCALL HalLcd_HW_Init, LCD_write_byte
        LOCFRAME ISTACK, 2, STACK
        LOCFRAME PSTACK, 0, STACK
        LOCFRAME XSTACK, 0, STACK
        LOCFRAME IOVERLAY, 0, STATIC
        LOCFRAME DOVERLAY, 0, STATIC
        ARGFRAME ISTACK, 2, STACK
        ARGFRAME PSTACK, 0, STACK
        ARGFRAME XSTACK, 0, STACK
        ARGFRAME IOVERLAY, 0, STATIC
        ARGFRAME DOVERLAY, 0, STATIC
        FUNCALL HalLcd_HW_Init, LCD_write_byte
        LOCFRAME ISTACK, 2, STACK
        LOCFRAME PSTACK, 0, STACK
        LOCFRAME XSTACK, 0, STACK
        LOCFRAME IOVERLAY, 0, STATIC
        LOCFRAME DOVERLAY, 0, STATIC
        ARGFRAME ISTACK, 2, STACK
        ARGFRAME PSTACK, 0, STACK
        ARGFRAME XSTACK, 0, STACK
        ARGFRAME IOVERLAY, 0, STATIC
        ARGFRAME DOVERLAY, 0, STATIC
        FUNCALL HalLcd_HW_Init, LCD_write_byte
        LOCFRAME ISTACK, 2, STACK
        LOCFRAME PSTACK, 0, STACK
        LOCFRAME XSTACK, 0, STACK
        LOCFRAME IOVERLAY, 0, STATIC
        LOCFRAME DOVERLAY, 0, STATIC
        ARGFRAME ISTACK, 2, STACK
        ARGFRAME PSTACK, 0, STACK
        ARGFRAME XSTACK, 0, STACK
        ARGFRAME IOVERLAY, 0, STATIC
        ARGFRAME DOVERLAY, 0, STATIC
        FUNCALL HalLcd_HW_Init, LCD_write_byte
        LOCFRAME ISTACK, 2, STACK
        LOCFRAME PSTACK, 0, STACK
        LOCFRAME XSTACK, 0, STACK
        LOCFRAME IOVERLAY, 0, STATIC
        LOCFRAME DOVERLAY, 0, STATIC
        ARGFRAME ISTACK, 2, STACK
        ARGFRAME PSTACK, 0, STACK
        ARGFRAME XSTACK, 0, STACK
        ARGFRAME IOVERLAY, 0, STATIC
        ARGFRAME DOVERLAY, 0, STATIC
        FUNCALL HalLcd_HW_Init, LCD_write_byte
        LOCFRAME ISTACK, 2, STACK
        LOCFRAME PSTACK, 0, STACK
        LOCFRAME XSTACK, 0, STACK
        LOCFRAME IOVERLAY, 0, STATIC
        LOCFRAME DOVERLAY, 0, STATIC
        ARGFRAME ISTACK, 2, STACK
        ARGFRAME PSTACK, 0, STACK
        ARGFRAME XSTACK, 0, STACK
        ARGFRAME IOVERLAY, 0, STATIC
        ARGFRAME DOVERLAY, 0, STATIC
        FUNCALL HalLcd_HW_Init, LCD_write_byte
        LOCFRAME ISTACK, 2, STACK
        LOCFRAME PSTACK, 0, STACK
        LOCFRAME XSTACK, 0, STACK
        LOCFRAME IOVERLAY, 0, STATIC
        LOCFRAME DOVERLAY, 0, STATIC
        ARGFRAME ISTACK, 2, STACK
        ARGFRAME PSTACK, 0, STACK
        ARGFRAME XSTACK, 0, STACK
        ARGFRAME IOVERLAY, 0, STATIC
        ARGFRAME DOVERLAY, 0, STATIC
        FUNCALL HalLcd_HW_Init, LCD_write_byte
        LOCFRAME ISTACK, 2, STACK
        LOCFRAME PSTACK, 0, STACK
        LOCFRAME XSTACK, 0, STACK
        LOCFRAME IOVERLAY, 0, STATIC
        LOCFRAME DOVERLAY, 0, STATIC
        ARGFRAME ISTACK, 2, STACK
        ARGFRAME PSTACK, 0, STACK
        ARGFRAME XSTACK, 0, STACK
        ARGFRAME IOVERLAY, 0, STATIC
        ARGFRAME DOVERLAY, 0, STATIC
        FUNCALL HalLcd_HW_Init, LCD_write_byte
        LOCFRAME ISTACK, 2, STACK
        LOCFRAME PSTACK, 0, STACK
        LOCFRAME XSTACK, 0, STACK
        LOCFRAME IOVERLAY, 0, STATIC
        LOCFRAME DOVERLAY, 0, STATIC
        ARGFRAME ISTACK, 2, STACK
        ARGFRAME PSTACK, 0, STACK
        ARGFRAME XSTACK, 0, STACK
        ARGFRAME IOVERLAY, 0, STATIC
        ARGFRAME DOVERLAY, 0, STATIC
        FUNCALL HalLcd_HW_Init, LCD_write_byte
        LOCFRAME ISTACK, 2, STACK
        LOCFRAME PSTACK, 0, STACK
        LOCFRAME XSTACK, 0, STACK
        LOCFRAME IOVERLAY, 0, STATIC
        LOCFRAME DOVERLAY, 0, STATIC
        ARGFRAME ISTACK, 2, STACK
        ARGFRAME PSTACK, 0, STACK
        ARGFRAME XSTACK, 0, STACK
        ARGFRAME IOVERLAY, 0, STATIC
        ARGFRAME DOVERLAY, 0, STATIC
        FUNCALL HalLcd_HW_Init, LCD_write_byte
        LOCFRAME ISTACK, 2, STACK
        LOCFRAME PSTACK, 0, STACK
        LOCFRAME XSTACK, 0, STACK
        LOCFRAME IOVERLAY, 0, STATIC
        LOCFRAME DOVERLAY, 0, STATIC
        ARGFRAME ISTACK, 2, STACK
        ARGFRAME PSTACK, 0, STACK
        ARGFRAME XSTACK, 0, STACK
        ARGFRAME IOVERLAY, 0, STATIC
        ARGFRAME DOVERLAY, 0, STATIC
        FUNCALL HalLcd_HW_Init, LCD_write_byte
        LOCFRAME ISTACK, 2, STACK
        LOCFRAME PSTACK, 0, STACK
        LOCFRAME XSTACK, 0, STACK
        LOCFRAME IOVERLAY, 0, STATIC
        LOCFRAME DOVERLAY, 0, STATIC
        ARGFRAME ISTACK, 2, STACK
        ARGFRAME PSTACK, 0, STACK
        ARGFRAME XSTACK, 0, STACK
        ARGFRAME IOVERLAY, 0, STATIC
        ARGFRAME DOVERLAY, 0, STATIC
        FUNCALL HalLcd_HW_Init, LCD_write_byte
        LOCFRAME ISTACK, 2, STACK
        LOCFRAME PSTACK, 0, STACK
        LOCFRAME XSTACK, 0, STACK
        LOCFRAME IOVERLAY, 0, STATIC
        LOCFRAME DOVERLAY, 0, STATIC
        ARGFRAME ISTACK, 2, STACK
        ARGFRAME PSTACK, 0, STACK
        ARGFRAME XSTACK, 0, STACK
        ARGFRAME IOVERLAY, 0, STATIC
        ARGFRAME DOVERLAY, 0, STATIC
        FUNCALL HalLcd_HW_Init, LCD_write_byte
        LOCFRAME ISTACK, 2, STACK
        LOCFRAME PSTACK, 0, STACK
        LOCFRAME XSTACK, 0, STACK
        LOCFRAME IOVERLAY, 0, STATIC
        LOCFRAME DOVERLAY, 0, STATIC
        ARGFRAME ISTACK, 2, STACK
        ARGFRAME PSTACK, 0, STACK
        ARGFRAME XSTACK, 0, STACK
        ARGFRAME IOVERLAY, 0, STATIC
        ARGFRAME DOVERLAY, 0, STATIC
        FUNCALL HalLcd_HW_Init, LCD_write_byte
        LOCFRAME ISTACK, 2, STACK
        LOCFRAME PSTACK, 0, STACK
        LOCFRAME XSTACK, 0, STACK
        LOCFRAME IOVERLAY, 0, STATIC
        LOCFRAME DOVERLAY, 0, STATIC
        ARGFRAME ISTACK, 2, STACK
        ARGFRAME PSTACK, 0, STACK
        ARGFRAME XSTACK, 0, STACK
        ARGFRAME IOVERLAY, 0, STATIC
        ARGFRAME DOVERLAY, 0, STATIC
        FUNCALL HalLcd_HW_Init, LCD_write_byte
        LOCFRAME ISTACK, 2, STACK
        LOCFRAME PSTACK, 0, STACK
        LOCFRAME XSTACK, 0, STACK
        LOCFRAME IOVERLAY, 0, STATIC
        LOCFRAME DOVERLAY, 0, STATIC
        ARGFRAME ISTACK, 2, STACK
        ARGFRAME PSTACK, 0, STACK
        ARGFRAME XSTACK, 0, STACK
        ARGFRAME IOVERLAY, 0, STATIC
        ARGFRAME DOVERLAY, 0, STATIC
        FUNCALL HalLcd_HW_Init, LCD_write_byte
        LOCFRAME ISTACK, 2, STACK
        LOCFRAME PSTACK, 0, STACK
        LOCFRAME XSTACK, 0, STACK
        LOCFRAME IOVERLAY, 0, STATIC
        LOCFRAME DOVERLAY, 0, STATIC
        ARGFRAME ISTACK, 2, STACK
        ARGFRAME PSTACK, 0, STACK
        ARGFRAME XSTACK, 0, STACK
        ARGFRAME IOVERLAY, 0, STATIC
        ARGFRAME DOVERLAY, 0, STATIC
        FUNCALL HalLcd_HW_Init, LCD_write_byte
        LOCFRAME ISTACK, 2, STACK
        LOCFRAME PSTACK, 0, STACK
        LOCFRAME XSTACK, 0, STACK
        LOCFRAME IOVERLAY, 0, STATIC
        LOCFRAME DOVERLAY, 0, STATIC
        ARGFRAME ISTACK, 2, STACK
        ARGFRAME PSTACK, 0, STACK
        ARGFRAME XSTACK, 0, STACK
        ARGFRAME IOVERLAY, 0, STATIC
        ARGFRAME DOVERLAY, 0, STATIC
        FUNCALL HalLcd_HW_Init, LCD_write_byte
        LOCFRAME ISTACK, 2, STACK
        LOCFRAME PSTACK, 0, STACK
        LOCFRAME XSTACK, 0, STACK
        LOCFRAME IOVERLAY, 0, STATIC
        LOCFRAME DOVERLAY, 0, STATIC
        ARGFRAME ISTACK, 2, STACK
        ARGFRAME PSTACK, 0, STACK
        ARGFRAME XSTACK, 0, STACK
        ARGFRAME IOVERLAY, 0, STATIC
        ARGFRAME DOVERLAY, 0, STATIC
        FUNCALL HalLcd_HW_Init, LCD_write_byte
        LOCFRAME ISTACK, 2, STACK
        LOCFRAME PSTACK, 0, STACK
        LOCFRAME XSTACK, 0, STACK
        LOCFRAME IOVERLAY, 0, STATIC
        LOCFRAME DOVERLAY, 0, STATIC
        ARGFRAME ISTACK, 2, STACK
        ARGFRAME PSTACK, 0, STACK
        ARGFRAME XSTACK, 0, STACK
        ARGFRAME IOVERLAY, 0, STATIC
        ARGFRAME DOVERLAY, 0, STATIC
        FUNCALL HalLcd_HW_Init, LCD_write_byte
        LOCFRAME ISTACK, 2, STACK
        LOCFRAME PSTACK, 0, STACK
        LOCFRAME XSTACK, 0, STACK
        LOCFRAME IOVERLAY, 0, STATIC
        LOCFRAME DOVERLAY, 0, STATIC
        ARGFRAME ISTACK, 2, STACK
        ARGFRAME PSTACK, 0, STACK
        ARGFRAME XSTACK, 0, STACK
        ARGFRAME IOVERLAY, 0, STATIC
        ARGFRAME DOVERLAY, 0, STATIC
        FUNCALL HalLcd_HW_Init, LCD_write_byte
        LOCFRAME ISTACK, 2, STACK
        LOCFRAME PSTACK, 0, STACK
        LOCFRAME XSTACK, 0, STACK
        LOCFRAME IOVERLAY, 0, STATIC
        LOCFRAME DOVERLAY, 0, STATIC
        ARGFRAME ISTACK, 2, STACK
        ARGFRAME PSTACK, 0, STACK
        ARGFRAME XSTACK, 0, STACK
        ARGFRAME IOVERLAY, 0, STATIC
        ARGFRAME DOVERLAY, 0, STATIC
        FUNCALL HalLcd_HW_Init, LCD_write_byte
        LOCFRAME ISTACK, 2, STACK
        LOCFRAME PSTACK, 0, STACK
        LOCFRAME XSTACK, 0, STACK
        LOCFRAME IOVERLAY, 0, STATIC
        LOCFRAME DOVERLAY, 0, STATIC
        ARGFRAME ISTACK, 2, STACK
        ARGFRAME PSTACK, 0, STACK
        ARGFRAME XSTACK, 0, STACK
        ARGFRAME IOVERLAY, 0, STATIC
        ARGFRAME DOVERLAY, 0, STATIC
        FUNCALL HalLcd_HW_Init, LCD_write_byte
        LOCFRAME ISTACK, 2, STACK
        LOCFRAME PSTACK, 0, STACK
        LOCFRAME XSTACK, 0, STACK
        LOCFRAME IOVERLAY, 0, STATIC
        LOCFRAME DOVERLAY, 0, STATIC
        ARGFRAME ISTACK, 2, STACK
        ARGFRAME PSTACK, 0, STACK
        ARGFRAME XSTACK, 0, STACK
        ARGFRAME IOVERLAY, 0, STATIC
        ARGFRAME DOVERLAY, 0, STATIC
        FUNCALL HalLcd_HW_Init, LCD_clear
        LOCFRAME ISTACK, 2, STACK
        LOCFRAME PSTACK, 0, STACK
        LOCFRAME XSTACK, 0, STACK
        LOCFRAME IOVERLAY, 0, STATIC
        LOCFRAME DOVERLAY, 0, STATIC
        ARGFRAME ISTACK, 2, STACK
        ARGFRAME PSTACK, 0, STACK
        ARGFRAME XSTACK, 0, STACK
        ARGFRAME IOVERLAY, 0, STATIC
        ARGFRAME DOVERLAY, 0, STATIC
        PUSH    DPL
          CFI DPL0 Frame(CFA_SP, 4)
          CFI CFA_SP SP+-4
        PUSH    DPH
          CFI DPH0 Frame(CFA_SP, 5)
          CFI CFA_SP SP+-5
        ; Saved register size: 2
        ; Auto size: 0
// 1068   P0SEL &= 0xFE; //设置P00为普通IO口，
        ANL     0xf3,#0xfe
// 1069   P0DIR |= 0x01; //设置P00为输出
        ORL     0xfd,#0x1
// 1070   P1SEL &= 0x73; //设置P12，P13,P17为普通IO口
        ANL     0xf4,#0x73
// 1071   P1DIR |= 0x8c; //设置P12，P13,P17为输出 
        ORL     0xfe,#0x8c
// 1072 
// 1073   Lcd_Reset();
        ; Setup parameters for call to function Lcd_Reset
        LCALL   `??Lcd_Reset::?relay`; Banked call to: Lcd_Reset
// 1074   
// 1075 #ifdef HARDWARE_SPI                                         
// 1076   P1DIR &= 0x9F;
// 1077   SPI_Init();   //初始化SPI端口  
// 1078 #endif
// 1079  
// 1080   LCD_write_byte(0x11,LCD_COMMAND); //退出睡眠模式
        ; Setup parameters for call to function LCD_write_byte
        MOV     R2,#0x0
        MOV     R1,#0x11
        LCALL   `??LCD_write_byte::?relay`; Banked call to: LCD_write_byte
// 1081   DelayMS(1); 
        ; Setup parameters for call to function DelayMS
        MOV     R2,#0x1
        MOV     R3,#0x0
        LCALL   `??DelayMS::?relay`  ; Banked call to: DelayMS
// 1082 
// 1083   ///ST7735R Frame Rate
// 1084   LCD_write_byte(0xB1,LCD_COMMAND); 
        ; Setup parameters for call to function LCD_write_byte
        MOV     R2,#0x0
        MOV     R1,#-0x4f
        LCALL   `??LCD_write_byte::?relay`; Banked call to: LCD_write_byte
// 1085   LCD_write_byte(0x01,LCD_DATA); 
        ; Setup parameters for call to function LCD_write_byte
        MOV     R2,#0x1
        MOV     R1,#0x1
        LCALL   `??LCD_write_byte::?relay`; Banked call to: LCD_write_byte
// 1086   LCD_write_byte(0x2C,LCD_DATA); 
        ; Setup parameters for call to function LCD_write_byte
        MOV     R2,#0x1
        MOV     R1,#0x2c
        LCALL   `??LCD_write_byte::?relay`; Banked call to: LCD_write_byte
// 1087   LCD_write_byte(0x2D,LCD_DATA); 
        ; Setup parameters for call to function LCD_write_byte
        MOV     R2,#0x1
        MOV     R1,#0x2d
        LCALL   `??LCD_write_byte::?relay`; Banked call to: LCD_write_byte
// 1088   LCD_write_byte(0xB2,LCD_COMMAND); 
        ; Setup parameters for call to function LCD_write_byte
        MOV     R2,#0x0
        MOV     R1,#-0x4e
        LCALL   `??LCD_write_byte::?relay`; Banked call to: LCD_write_byte
// 1089   LCD_write_byte(0x01,LCD_DATA); 
        ; Setup parameters for call to function LCD_write_byte
        MOV     R2,#0x1
        MOV     R1,#0x1
        LCALL   `??LCD_write_byte::?relay`; Banked call to: LCD_write_byte
// 1090   LCD_write_byte(0x2C,LCD_DATA); 
        ; Setup parameters for call to function LCD_write_byte
        MOV     R2,#0x1
        MOV     R1,#0x2c
        LCALL   `??LCD_write_byte::?relay`; Banked call to: LCD_write_byte
// 1091   LCD_write_byte(0x2D,LCD_DATA); 
        ; Setup parameters for call to function LCD_write_byte
        MOV     R2,#0x1
        MOV     R1,#0x2d
        LCALL   `??LCD_write_byte::?relay`; Banked call to: LCD_write_byte
// 1092   LCD_write_byte(0xB3,LCD_COMMAND); 
        ; Setup parameters for call to function LCD_write_byte
        MOV     R2,#0x0
        MOV     R1,#-0x4d
        LCALL   `??LCD_write_byte::?relay`; Banked call to: LCD_write_byte
// 1093   LCD_write_byte(0x01,LCD_DATA); 
        ; Setup parameters for call to function LCD_write_byte
        MOV     R2,#0x1
        MOV     R1,#0x1
        LCALL   `??LCD_write_byte::?relay`; Banked call to: LCD_write_byte
// 1094   LCD_write_byte(0x2C,LCD_DATA); 
        ; Setup parameters for call to function LCD_write_byte
        MOV     R2,#0x1
        MOV     R1,#0x2c
        LCALL   `??LCD_write_byte::?relay`; Banked call to: LCD_write_byte
// 1095   LCD_write_byte(0x2D,LCD_DATA); 
        ; Setup parameters for call to function LCD_write_byte
        MOV     R2,#0x1
        MOV     R1,#0x2d
        LCALL   `??LCD_write_byte::?relay`; Banked call to: LCD_write_byte
// 1096   LCD_write_byte(0x01,LCD_DATA); 
        ; Setup parameters for call to function LCD_write_byte
        MOV     R2,#0x1
        MOV     R1,#0x1
        LCALL   `??LCD_write_byte::?relay`; Banked call to: LCD_write_byte
// 1097   LCD_write_byte(0x2C,LCD_DATA); 
        ; Setup parameters for call to function LCD_write_byte
        MOV     R2,#0x1
        MOV     R1,#0x2c
        LCALL   `??LCD_write_byte::?relay`; Banked call to: LCD_write_byte
// 1098   LCD_write_byte(0x2D,LCD_DATA); 
        ; Setup parameters for call to function LCD_write_byte
        MOV     R2,#0x1
        MOV     R1,#0x2d
        LCALL   `??LCD_write_byte::?relay`; Banked call to: LCD_write_byte
// 1099 
// 1100   LCD_write_byte(0xB4,LCD_COMMAND);//列对调
        ; Setup parameters for call to function LCD_write_byte
        MOV     R2,#0x0
        MOV     R1,#-0x4c
        LCALL   `??LCD_write_byte::?relay`; Banked call to: LCD_write_byte
// 1101   LCD_write_byte(0x07,LCD_DATA); 
        ; Setup parameters for call to function LCD_write_byte
        MOV     R2,#0x1
        MOV     R1,#0x7
        LCALL   `??LCD_write_byte::?relay`; Banked call to: LCD_write_byte
// 1102   //ST7735R加电序列
// 1103   LCD_write_byte(0xC0,LCD_COMMAND); 
        ; Setup parameters for call to function LCD_write_byte
        MOV     R2,#0x0
        MOV     R1,#-0x40
        LCALL   `??LCD_write_byte::?relay`; Banked call to: LCD_write_byte
// 1104   LCD_write_byte(0xA2,LCD_DATA); 
        ; Setup parameters for call to function LCD_write_byte
        MOV     R2,#0x1
        MOV     R1,#-0x5e
        LCALL   `??LCD_write_byte::?relay`; Banked call to: LCD_write_byte
// 1105   LCD_write_byte(0x02,LCD_DATA); 
        ; Setup parameters for call to function LCD_write_byte
        MOV     R2,#0x1
        MOV     R1,#0x2
        LCALL   `??LCD_write_byte::?relay`; Banked call to: LCD_write_byte
// 1106   LCD_write_byte(0x84,LCD_DATA); 
        ; Setup parameters for call to function LCD_write_byte
        MOV     R2,#0x1
        MOV     R1,#-0x7c
        LCALL   `??LCD_write_byte::?relay`; Banked call to: LCD_write_byte
// 1107   LCD_write_byte(0xC1,LCD_COMMAND); 
        ; Setup parameters for call to function LCD_write_byte
        MOV     R2,#0x0
        MOV     R1,#-0x3f
        LCALL   `??LCD_write_byte::?relay`; Banked call to: LCD_write_byte
// 1108   LCD_write_byte(0xC5,LCD_DATA); 
        ; Setup parameters for call to function LCD_write_byte
        MOV     R2,#0x1
        MOV     R1,#-0x3b
        LCALL   `??LCD_write_byte::?relay`; Banked call to: LCD_write_byte
// 1109   LCD_write_byte(0xC2,LCD_COMMAND); 
        ; Setup parameters for call to function LCD_write_byte
        MOV     R2,#0x0
        MOV     R1,#-0x3e
        LCALL   `??LCD_write_byte::?relay`; Banked call to: LCD_write_byte
// 1110   LCD_write_byte(0x0A,LCD_DATA); 
        ; Setup parameters for call to function LCD_write_byte
        MOV     R2,#0x1
        MOV     R1,#0xa
        LCALL   `??LCD_write_byte::?relay`; Banked call to: LCD_write_byte
// 1111   LCD_write_byte(0x00,LCD_DATA); 
        ; Setup parameters for call to function LCD_write_byte
        MOV     R2,#0x1
        MOV     R1,#0x0
        LCALL   `??LCD_write_byte::?relay`; Banked call to: LCD_write_byte
// 1112   LCD_write_byte(0xC3,LCD_COMMAND); 
        ; Setup parameters for call to function LCD_write_byte
        MOV     R2,#0x0
        MOV     R1,#-0x3d
        LCALL   `??LCD_write_byte::?relay`; Banked call to: LCD_write_byte
// 1113   LCD_write_byte(0x8A,LCD_DATA); 
        ; Setup parameters for call to function LCD_write_byte
        MOV     R2,#0x1
        MOV     R1,#-0x76
        LCALL   `??LCD_write_byte::?relay`; Banked call to: LCD_write_byte
// 1114   LCD_write_byte(0x2A,LCD_DATA); 
        ; Setup parameters for call to function LCD_write_byte
        MOV     R2,#0x1
        MOV     R1,#0x2a
        LCALL   `??LCD_write_byte::?relay`; Banked call to: LCD_write_byte
// 1115   LCD_write_byte(0xC4,LCD_COMMAND); 
        ; Setup parameters for call to function LCD_write_byte
        MOV     R2,#0x0
        MOV     R1,#-0x3c
        LCALL   `??LCD_write_byte::?relay`; Banked call to: LCD_write_byte
// 1116   LCD_write_byte(0x8A,LCD_DATA); 
        ; Setup parameters for call to function LCD_write_byte
        MOV     R2,#0x1
        MOV     R1,#-0x76
        LCALL   `??LCD_write_byte::?relay`; Banked call to: LCD_write_byte
// 1117   LCD_write_byte(0xEE,LCD_DATA); 
        ; Setup parameters for call to function LCD_write_byte
        MOV     R2,#0x1
        MOV     R1,#-0x12
        LCALL   `??LCD_write_byte::?relay`; Banked call to: LCD_write_byte
// 1118 
// 1119   LCD_write_byte(0xC5,LCD_COMMAND); //加VCOM 
        ; Setup parameters for call to function LCD_write_byte
        MOV     R2,#0x0
        MOV     R1,#-0x3b
        LCALL   `??LCD_write_byte::?relay`; Banked call to: LCD_write_byte
// 1120   LCD_write_byte(0x0E,LCD_DATA); 
        ; Setup parameters for call to function LCD_write_byte
        MOV     R2,#0x1
        MOV     R1,#0xe
        LCALL   `??LCD_write_byte::?relay`; Banked call to: LCD_write_byte
// 1121 
// 1122   LCD_write_byte(0x36,LCD_COMMAND); //RGB模式 
        ; Setup parameters for call to function LCD_write_byte
        MOV     R2,#0x0
        MOV     R1,#0x36
        LCALL   `??LCD_write_byte::?relay`; Banked call to: LCD_write_byte
// 1123   LCD_write_byte(0xC8,LCD_DATA); 
        ; Setup parameters for call to function LCD_write_byte
        MOV     R2,#0x1
        MOV     R1,#-0x38
        LCALL   `??LCD_write_byte::?relay`; Banked call to: LCD_write_byte
// 1124   
// 1125   // ST7735R Gamma 校正序列
// 1126   LCD_write_byte(0xe0,LCD_COMMAND); 
        ; Setup parameters for call to function LCD_write_byte
        MOV     R2,#0x0
        MOV     R1,#-0x20
        LCALL   `??LCD_write_byte::?relay`; Banked call to: LCD_write_byte
// 1127   LCD_write_byte(0x0f,LCD_DATA); 
        ; Setup parameters for call to function LCD_write_byte
        MOV     R2,#0x1
        MOV     R1,#0xf
        LCALL   `??LCD_write_byte::?relay`; Banked call to: LCD_write_byte
// 1128   LCD_write_byte(0x1a,LCD_DATA); 
        ; Setup parameters for call to function LCD_write_byte
        MOV     R2,#0x1
        MOV     R1,#0x1a
        LCALL   `??LCD_write_byte::?relay`; Banked call to: LCD_write_byte
// 1129   LCD_write_byte(0x0f,LCD_DATA); 
        ; Setup parameters for call to function LCD_write_byte
        MOV     R2,#0x1
        MOV     R1,#0xf
        LCALL   `??LCD_write_byte::?relay`; Banked call to: LCD_write_byte
// 1130   LCD_write_byte(0x18,LCD_DATA); 
        ; Setup parameters for call to function LCD_write_byte
        MOV     R2,#0x1
        MOV     R1,#0x18
        LCALL   `??LCD_write_byte::?relay`; Banked call to: LCD_write_byte
// 1131   LCD_write_byte(0x2f,LCD_DATA); 
        ; Setup parameters for call to function LCD_write_byte
        MOV     R2,#0x1
        MOV     R1,#0x2f
        LCALL   `??LCD_write_byte::?relay`; Banked call to: LCD_write_byte
// 1132   LCD_write_byte(0x28,LCD_DATA); 
        ; Setup parameters for call to function LCD_write_byte
        MOV     R2,#0x1
        MOV     R1,#0x28
        LCALL   `??LCD_write_byte::?relay`; Banked call to: LCD_write_byte
// 1133   LCD_write_byte(0x20,LCD_DATA); 
        ; Setup parameters for call to function LCD_write_byte
        MOV     R2,#0x1
        MOV     R1,#0x20
        LCALL   `??LCD_write_byte::?relay`; Banked call to: LCD_write_byte
// 1134   LCD_write_byte(0x22,LCD_DATA); 
        ; Setup parameters for call to function LCD_write_byte
        MOV     R2,#0x1
        MOV     R1,#0x22
        LCALL   `??LCD_write_byte::?relay`; Banked call to: LCD_write_byte
// 1135   LCD_write_byte(0x1f,LCD_DATA); 
        ; Setup parameters for call to function LCD_write_byte
        MOV     R2,#0x1
        MOV     R1,#0x1f
        LCALL   `??LCD_write_byte::?relay`; Banked call to: LCD_write_byte
// 1136   LCD_write_byte(0x1b,LCD_DATA); 
        ; Setup parameters for call to function LCD_write_byte
        MOV     R2,#0x1
        MOV     R1,#0x1b
        LCALL   `??LCD_write_byte::?relay`; Banked call to: LCD_write_byte
// 1137   LCD_write_byte(0x23,LCD_DATA); 
        ; Setup parameters for call to function LCD_write_byte
        MOV     R2,#0x1
        MOV     R1,#0x23
        LCALL   `??LCD_write_byte::?relay`; Banked call to: LCD_write_byte
// 1138   LCD_write_byte(0x37,LCD_DATA); 
        ; Setup parameters for call to function LCD_write_byte
        MOV     R2,#0x1
        MOV     R1,#0x37
        LCALL   `??LCD_write_byte::?relay`; Banked call to: LCD_write_byte
// 1139   LCD_write_byte(0x00,LCD_DATA); 
        ; Setup parameters for call to function LCD_write_byte
        MOV     R2,#0x1
        MOV     R1,#0x0
        LCALL   `??LCD_write_byte::?relay`; Banked call to: LCD_write_byte
// 1140 
// 1141   LCD_write_byte(0x07,LCD_DATA); 
        ; Setup parameters for call to function LCD_write_byte
        MOV     R2,#0x1
        MOV     R1,#0x7
        LCALL   `??LCD_write_byte::?relay`; Banked call to: LCD_write_byte
// 1142   LCD_write_byte(0x02,LCD_DATA); 
        ; Setup parameters for call to function LCD_write_byte
        MOV     R2,#0x1
        MOV     R1,#0x2
        LCALL   `??LCD_write_byte::?relay`; Banked call to: LCD_write_byte
// 1143   LCD_write_byte(0x10,LCD_DATA); 
        ; Setup parameters for call to function LCD_write_byte
        MOV     R2,#0x1
        MOV     R1,#0x10
        LCALL   `??LCD_write_byte::?relay`; Banked call to: LCD_write_byte
// 1144   LCD_write_byte(0xe1,LCD_COMMAND); 
        ; Setup parameters for call to function LCD_write_byte
        MOV     R2,#0x0
        MOV     R1,#-0x1f
        LCALL   `??LCD_write_byte::?relay`; Banked call to: LCD_write_byte
// 1145   LCD_write_byte(0x0f,LCD_DATA); 
        ; Setup parameters for call to function LCD_write_byte
        MOV     R2,#0x1
        MOV     R1,#0xf
        LCALL   `??LCD_write_byte::?relay`; Banked call to: LCD_write_byte
// 1146   LCD_write_byte(0x1b,LCD_DATA); 
        ; Setup parameters for call to function LCD_write_byte
        MOV     R2,#0x1
        MOV     R1,#0x1b
        LCALL   `??LCD_write_byte::?relay`; Banked call to: LCD_write_byte
// 1147   LCD_write_byte(0x0f,LCD_DATA); 
        ; Setup parameters for call to function LCD_write_byte
        MOV     R2,#0x1
        MOV     R1,#0xf
        LCALL   `??LCD_write_byte::?relay`; Banked call to: LCD_write_byte
// 1148   LCD_write_byte(0x17,LCD_DATA); 
        ; Setup parameters for call to function LCD_write_byte
        MOV     R2,#0x1
        MOV     R1,#0x17
        LCALL   `??LCD_write_byte::?relay`; Banked call to: LCD_write_byte
// 1149   LCD_write_byte(0x33,LCD_DATA); 
        ; Setup parameters for call to function LCD_write_byte
        MOV     R2,#0x1
        MOV     R1,#0x33
        LCALL   `??LCD_write_byte::?relay`; Banked call to: LCD_write_byte
// 1150   LCD_write_byte(0x2c,LCD_DATA); 
        ; Setup parameters for call to function LCD_write_byte
        MOV     R2,#0x1
        MOV     R1,#0x2c
        LCALL   `??LCD_write_byte::?relay`; Banked call to: LCD_write_byte
// 1151   LCD_write_byte(0x29,LCD_DATA); 
        ; Setup parameters for call to function LCD_write_byte
        MOV     R2,#0x1
        MOV     R1,#0x29
        LCALL   `??LCD_write_byte::?relay`; Banked call to: LCD_write_byte
// 1152   LCD_write_byte(0x2e,LCD_DATA); 
        ; Setup parameters for call to function LCD_write_byte
        MOV     R2,#0x1
        MOV     R1,#0x2e
        LCALL   `??LCD_write_byte::?relay`; Banked call to: LCD_write_byte
// 1153   LCD_write_byte(0x30,LCD_DATA); 
        ; Setup parameters for call to function LCD_write_byte
        MOV     R2,#0x1
        MOV     R1,#0x30
        LCALL   `??LCD_write_byte::?relay`; Banked call to: LCD_write_byte
// 1154   LCD_write_byte(0x30,LCD_DATA); 
        ; Setup parameters for call to function LCD_write_byte
        MOV     R2,#0x1
        MOV     R1,#0x30
        LCALL   `??LCD_write_byte::?relay`; Banked call to: LCD_write_byte
// 1155   LCD_write_byte(0x39,LCD_DATA); 
        ; Setup parameters for call to function LCD_write_byte
        MOV     R2,#0x1
        MOV     R1,#0x39
        LCALL   `??LCD_write_byte::?relay`; Banked call to: LCD_write_byte
// 1156   LCD_write_byte(0x3f,LCD_DATA); 
        ; Setup parameters for call to function LCD_write_byte
        MOV     R2,#0x1
        MOV     R1,#0x3f
        LCALL   `??LCD_write_byte::?relay`; Banked call to: LCD_write_byte
// 1157   LCD_write_byte(0x00,LCD_DATA); 
        ; Setup parameters for call to function LCD_write_byte
        MOV     R2,#0x1
        MOV     R1,#0x0
        LCALL   `??LCD_write_byte::?relay`; Banked call to: LCD_write_byte
// 1158   LCD_write_byte(0x07,LCD_DATA); 
        ; Setup parameters for call to function LCD_write_byte
        MOV     R2,#0x1
        MOV     R1,#0x7
        LCALL   `??LCD_write_byte::?relay`; Banked call to: LCD_write_byte
// 1159   LCD_write_byte(0x03,LCD_DATA); 
        ; Setup parameters for call to function LCD_write_byte
        MOV     R2,#0x1
        MOV     R1,#0x3
        LCALL   `??LCD_write_byte::?relay`; Banked call to: LCD_write_byte
// 1160   LCD_write_byte(0x10,LCD_DATA);  
        ; Setup parameters for call to function LCD_write_byte
        MOV     R2,#0x1
        MOV     R1,#0x10
        LCALL   `??LCD_write_byte::?relay`; Banked call to: LCD_write_byte
// 1161 
// 1162   LCD_write_byte(0x2a,LCD_COMMAND);
        ; Setup parameters for call to function LCD_write_byte
        MOV     R2,#0x0
        MOV     R1,#0x2a
        LCALL   `??LCD_write_byte::?relay`; Banked call to: LCD_write_byte
// 1163   LCD_write_byte(0x00,LCD_DATA);
        ; Setup parameters for call to function LCD_write_byte
        MOV     R2,#0x1
        MOV     R1,#0x0
        LCALL   `??LCD_write_byte::?relay`; Banked call to: LCD_write_byte
// 1164   LCD_write_byte(0x00,LCD_DATA);
        ; Setup parameters for call to function LCD_write_byte
        MOV     R2,#0x1
        MOV     R1,#0x0
        LCALL   `??LCD_write_byte::?relay`; Banked call to: LCD_write_byte
// 1165   LCD_write_byte(0x00,LCD_DATA);
        ; Setup parameters for call to function LCD_write_byte
        MOV     R2,#0x1
        MOV     R1,#0x0
        LCALL   `??LCD_write_byte::?relay`; Banked call to: LCD_write_byte
// 1166   LCD_write_byte(0x7f,LCD_DATA);
        ; Setup parameters for call to function LCD_write_byte
        MOV     R2,#0x1
        MOV     R1,#0x7f
        LCALL   `??LCD_write_byte::?relay`; Banked call to: LCD_write_byte
// 1167   LCD_write_byte(0x2b,LCD_COMMAND);
        ; Setup parameters for call to function LCD_write_byte
        MOV     R2,#0x0
        MOV     R1,#0x2b
        LCALL   `??LCD_write_byte::?relay`; Banked call to: LCD_write_byte
// 1168   LCD_write_byte(0x00,LCD_DATA);
        ; Setup parameters for call to function LCD_write_byte
        MOV     R2,#0x1
        MOV     R1,#0x0
        LCALL   `??LCD_write_byte::?relay`; Banked call to: LCD_write_byte
// 1169   LCD_write_byte(0x00,LCD_DATA);
        ; Setup parameters for call to function LCD_write_byte
        MOV     R2,#0x1
        MOV     R1,#0x0
        LCALL   `??LCD_write_byte::?relay`; Banked call to: LCD_write_byte
// 1170   LCD_write_byte(0x00,LCD_DATA);
        ; Setup parameters for call to function LCD_write_byte
        MOV     R2,#0x1
        MOV     R1,#0x0
        LCALL   `??LCD_write_byte::?relay`; Banked call to: LCD_write_byte
// 1171   LCD_write_byte(0x9f,LCD_DATA);
        ; Setup parameters for call to function LCD_write_byte
        MOV     R2,#0x1
        MOV     R1,#-0x61
        LCALL   `??LCD_write_byte::?relay`; Banked call to: LCD_write_byte
// 1172 
// 1173   LCD_write_byte(0xF0,LCD_COMMAND); //使能测试命令  
        ; Setup parameters for call to function LCD_write_byte
        MOV     R2,#0x0
        MOV     R1,#-0x10
        LCALL   `??LCD_write_byte::?relay`; Banked call to: LCD_write_byte
// 1174   LCD_write_byte(0x01,LCD_DATA); 
        ; Setup parameters for call to function LCD_write_byte
        MOV     R2,#0x1
        MOV     R1,#0x1
        LCALL   `??LCD_write_byte::?relay`; Banked call to: LCD_write_byte
// 1175   LCD_write_byte(0xF6,LCD_COMMAND); //关闭ram省电模式 
        ; Setup parameters for call to function LCD_write_byte
        MOV     R2,#0x0
        MOV     R1,#-0xa
        LCALL   `??LCD_write_byte::?relay`; Banked call to: LCD_write_byte
// 1176   LCD_write_byte(0x00,LCD_DATA); 
        ; Setup parameters for call to function LCD_write_byte
        MOV     R2,#0x1
        MOV     R1,#0x0
        LCALL   `??LCD_write_byte::?relay`; Banked call to: LCD_write_byte
// 1177 
// 1178   LCD_write_byte(0x3A,LCD_COMMAND); //色深16bit 
        ; Setup parameters for call to function LCD_write_byte
        MOV     R2,#0x0
        MOV     R1,#0x3a
        LCALL   `??LCD_write_byte::?relay`; Banked call to: LCD_write_byte
// 1179   LCD_write_byte(0x05,LCD_DATA); 
        ; Setup parameters for call to function LCD_write_byte
        MOV     R2,#0x1
        MOV     R1,#0x5
        LCALL   `??LCD_write_byte::?relay`; Banked call to: LCD_write_byte
// 1180   
// 1181   LCD_write_byte(0x29,LCD_COMMAND); //开显示  
        ; Setup parameters for call to function LCD_write_byte
        MOV     R2,#0x0
        MOV     R1,#0x29
        LCALL   `??LCD_write_byte::?relay`; Banked call to: LCD_write_byte
// 1182   LCD_clear(GREEN);                 //清屏 
        ; Setup parameters for call to function LCD_clear
        MOV     R2,#-0x20
        MOV     R3,#0x7
        LCALL   `??LCD_clear::?relay`; Banked call to: LCD_clear
// 1183 }
        LJMP    ?Subroutine0 & 0xFFFF
          CFI EndBlock cfiBlock56
        REQUIRE P0SEL
        REQUIRE P0DIR
        REQUIRE P1SEL
        REQUIRE P1DIR

        RSEG XDATA_ID:CODE:NOROOT(0)
`?<Initializer for Color>`:
        DATA16
        DW 31

        RSEG XDATA_ID:CODE:NOROOT(0)
`?<Initializer for Color_BK>`:
        DATA16
        DW 2016

        RSEG BANK_RELAYS:CODE:REORDER:NOROOT(0)
`??HalLcdInit::?relay`:
        CODE
        LCALL   ?BDISPATCH
        DATA24
        DC24    HalLcdInit

        RSEG BANK_RELAYS:CODE:REORDER:NOROOT(0)
`??HalLcdWriteValue::?relay`:
        CODE
        LCALL   ?BDISPATCH
        DATA24
        DC24    HalLcdWriteValue

        RSEG BANK_RELAYS:CODE:REORDER:NOROOT(0)
`??HalLcdWriteScreen::?relay`:
        CODE
        LCALL   ?BDISPATCH
        DATA24
        DC24    HalLcdWriteScreen

        RSEG BANK_RELAYS:CODE:REORDER:NOROOT(0)
`??HalLcdWriteStringValue::?relay`:
        CODE
        LCALL   ?BDISPATCH
        DATA24
        DC24    HalLcdWriteStringValue

        RSEG BANK_RELAYS:CODE:REORDER:NOROOT(0)
`??HalLcdWriteEnString::?relay`:
        CODE
        LCALL   ?BDISPATCH
        DATA24
        DC24    HalLcdWriteEnString

        RSEG BANK_RELAYS:CODE:REORDER:NOROOT(0)
`??HalLcdWriteStringValueValue::?relay`:
        CODE
        LCALL   ?BDISPATCH
        DATA24
        DC24    HalLcdWriteStringValueValue

        RSEG BANK_RELAYS:CODE:REORDER:NOROOT(0)
`??DelayMS::?relay`:
        CODE
        LCALL   ?BDISPATCH
        DATA24
        DC24    DelayMS

        RSEG BANK_RELAYS:CODE:REORDER:NOROOT(0)
`??HalLcdWriteString::?relay`:
        CODE
        LCALL   ?BDISPATCH
        DATA24
        DC24    HalLcdWriteString

        RSEG BANK_RELAYS:CODE:REORDER:NOROOT(0)
`??SendByte::?relay`:
        CODE
        LCALL   ?BDISPATCH
        DATA24
        DC24    SendByte

        RSEG BANK_RELAYS:CODE:REORDER:NOROOT(0)
`??SPI_WriteData::?relay`:
        CODE
        LCALL   ?BDISPATCH
        DATA24
        DC24    SPI_WriteData

        RSEG BANK_RELAYS:CODE:REORDER:NOROOT(0)
`??LCD_WrCmd::?relay`:
        CODE
        LCALL   ?BDISPATCH
        DATA24
        DC24    LCD_WrCmd

        RSEG BANK_RELAYS:CODE:REORDER:NOROOT(0)
`??LCD_WrDat::?relay`:
        CODE
        LCALL   ?BDISPATCH
        DATA24
        DC24    LCD_WrDat

        RSEG BANK_RELAYS:CODE:REORDER:NOROOT(0)
`??LCD_WriteData_16Bit::?relay`:
        CODE
        LCALL   ?BDISPATCH
        DATA24
        DC24    LCD_WriteData_16Bit

        RSEG BANK_RELAYS:CODE:REORDER:NOROOT(0)
`??LCD_write_byte::?relay`:
        CODE
        LCALL   ?BDISPATCH
        DATA24
        DC24    LCD_write_byte

        RSEG BANK_RELAYS:CODE:REORDER:NOROOT(0)
`??Lcd_Reset::?relay`:
        CODE
        LCALL   ?BDISPATCH
        DATA24
        DC24    Lcd_Reset

        RSEG BANK_RELAYS:CODE:REORDER:NOROOT(0)
`??LCD_set_window::?relay`:
        CODE
        LCALL   ?BDISPATCH
        DATA24
        DC24    LCD_set_window

        RSEG BANK_RELAYS:CODE:REORDER:NOROOT(0)
`??DrawPixel::?relay`:
        CODE
        LCALL   ?BDISPATCH
        DATA24
        DC24    DrawPixel

        RSEG BANK_RELAYS:CODE:REORDER:NOROOT(0)
`??DrawVerticalLine::?relay`:
        CODE
        LCALL   ?BDISPATCH
        DATA24
        DC24    DrawVerticalLine

        RSEG BANK_RELAYS:CODE:REORDER:NOROOT(0)
`??DrawHorizonLine::?relay`:
        CODE
        LCALL   ?BDISPATCH
        DATA24
        DC24    DrawHorizonLine

        RSEG BANK_RELAYS:CODE:REORDER:NOROOT(0)
`??DrawRect::?relay`:
        CODE
        LCALL   ?BDISPATCH
        DATA24
        DC24    DrawRect

        RSEG BANK_RELAYS:CODE:REORDER:NOROOT(0)
`??DrawRectFill::?relay`:
        CODE
        LCALL   ?BDISPATCH
        DATA24
        DC24    DrawRectFill

        RSEG BANK_RELAYS:CODE:REORDER:NOROOT(0)
`??LCD_clear::?relay`:
        CODE
        LCALL   ?BDISPATCH
        DATA24
        DC24    LCD_clear

        RSEG BANK_RELAYS:CODE:REORDER:NOROOT(0)
`??LCD_write_EN::?relay`:
        CODE
        LCALL   ?BDISPATCH
        DATA24
        DC24    LCD_write_EN

        RSEG BANK_RELAYS:CODE:REORDER:NOROOT(0)
`??LCD_write_EN_string::?relay`:
        CODE
        LCALL   ?BDISPATCH
        DATA24
        DC24    LCD_write_EN_string

        RSEG BANK_RELAYS:CODE:REORDER:NOROOT(0)
`??LCD_write_CN::?relay`:
        CODE
        LCALL   ?BDISPATCH
        DATA24
        DC24    LCD_write_CN

        RSEG BANK_RELAYS:CODE:REORDER:NOROOT(0)
`??LCD_write_CN_string::?relay`:
        CODE
        LCALL   ?BDISPATCH
        DATA24
        DC24    LCD_write_CN_string

        RSEG BANK_RELAYS:CODE:REORDER:NOROOT(0)
`??ShowImage::?relay`:
        CODE
        LCALL   ?BDISPATCH
        DATA24
        DC24    ShowImage

        RSEG BANK_RELAYS:CODE:REORDER:NOROOT(0)
`??HalLcd_HW_Init::?relay`:
        CODE
        LCALL   ?BDISPATCH
        DATA24
        DC24    HalLcd_HW_Init

        END
// 1184 #endif
// 
// 3 735 bytes in segment BANKED_CODE
//   168 bytes in segment BANK_RELAYS
// 2 249 bytes in segment CODE_C
//     6 bytes in segment SFR_AN
//     4 bytes in segment XDATA_I
//     4 bytes in segment XDATA_ID
//     1 byte  in segment XDATA_Z
// 
// 6 156 bytes of CODE  memory
//     0 bytes of DATA  memory (+ 6 bytes shared)
//     5 bytes of XDATA memory
//
//Errors: none
//Warnings: none
