///////////////////////////////////////////////////////////////////////////////
//
// IAR C/C++ Compiler V9.30.1.3056 for 8051               25/Jun/2017  12:06:32
// Copyright 2004-2015 IAR Systems AB.
// Standalone license - IAR Embedded Workbench for 8051
//
//    Core               =  plain
//    Code model         =  banked
//    Data model         =  large
//    Calling convention =  xdata reentrant
//    Constant location  =  data_rom
//    Dptr setup         =  1,16
//                          
//    Source file        =  
//        F:\Zigbeespace\20170624\ZStack-2.5.1a\Projects\zstack\Samples\SampleApp\Source\MQ2.c
//    Command line       =  
//        -f
//        F:\Zigbeespace\20170624\ZStack-2.5.1a\Projects\zstack\Samples\SampleApp\CC2530DB\..\..\..\Tools\CC2530DB\f8wCoord.cfg
//        (-DCPU32MHZ -DROOT=__near_func -DMAC_CFG_APP_PENDING_QUEUE=TRUE
//        -DMAC_CFG_TX_DATA_MAX=5 -DMAC_CFG_TX_MAX=8 -DMAC_CFG_RX_MAX=5
//        -DZDO_COORDINATOR -DRTR_NWK) -f
//        F:\Zigbeespace\20170624\ZStack-2.5.1a\Projects\zstack\Samples\SampleApp\CC2530DB\..\..\..\Tools\CC2530DB\f8wConfig.cfg
//        (-DZIGBEEPRO -DSECURE=0 -DZG_SECURE_DYNAMIC=0 -DREFLECTOR
//        -DDEFAULT_CHANLIST=0x00000800 -DZDAPP_CONFIG_PAN_ID=0x333;
//        -DNWK_START_DELAY=100 -DEXTENDED_JOINING_RANDOM_MASK=0x007F
//        -DBEACON_REQUEST_DELAY=100 -DBEACON_REQ_DELAY_MASK=0x00FF
//        -DLINK_STATUS_JITTER_MASK=0x007F -DROUTE_EXPIRY_TIME=30
//        -DAPSC_ACK_WAIT_DURATION_POLLED=3000 -DNWK_INDIRECT_MSG_TIMEOUT=7
//        -DMAX_RREQ_ENTRIES=8 -DAPSC_MAX_FRAME_RETRIES=3
//        -DNWK_MAX_DATA_RETRIES=2 -DMAX_POLL_FAILURE_RETRIES=2 -DMAX_BCAST=9
//        -DAPS_MAX_GROUPS=16 -DMAX_RTG_ENTRIES=40 -DNWK_MAX_BINDING_ENTRIES=4
//        -DMAX_BINDING_CLUSTER_IDS=4 "-DDEFAULT_KEY={0x01, 0x03, 0x05, 0x07,
//        0x09, 0x0B, 0x0D, 0x0F, 0x00, 0x02, 0x04, 0x06, 0x08, 0x0A, 0x0C,
//        0x0D}" -DMAC_MAX_FRAME_SIZE=116 -DZDNWKMGR_MIN_TRANSMISSIONS=20
//        "-DCONST=const __code" -DGENERIC=__generic -DRFD_RCVC_ALWAYS_ON=TRUE
//        -DPOLL_RATE=1000 -DQUEUED_POLL_RATE=100 -DRESPONSE_POLL_RATE=100)
//        -DREJOIN_POLL_RATE=440
//        F:\Zigbeespace\20170624\ZStack-2.5.1a\Projects\zstack\Samples\SampleApp\Source\MQ2.c
//        -D ZTOOL_P1 -D xMT_TASK -D xMT_SYS_FUNC -D xMT_ZDO_FUNC -D
//        xLCD_SUPPORTED=DEBUG -lC
//        F:\Zigbeespace\20170624\ZStack-2.5.1a\Projects\zstack\Samples\SampleApp\CC2530DB\CoordinatorEB\List
//        -lA
//        F:\Zigbeespace\20170624\ZStack-2.5.1a\Projects\zstack\Samples\SampleApp\CC2530DB\CoordinatorEB\List
//        --diag_suppress Pe001,Pa010 -o
//        F:\Zigbeespace\20170624\ZStack-2.5.1a\Projects\zstack\Samples\SampleApp\CC2530DB\CoordinatorEB\Obj
//        -e --no_code_motion --debug --core=plain --dptr=16,1
//        --data_model=large --code_model=banked
//        --calling_convention=xdata_reentrant --place_constants=data_rom
//        --nr_virtual_regs 8 -I
//        F:\Zigbeespace\20170624\ZStack-2.5.1a\Projects\zstack\Samples\SampleApp\CC2530DB\
//        -I
//        F:\Zigbeespace\20170624\ZStack-2.5.1a\Projects\zstack\Samples\SampleApp\CC2530DB\..\Source\
//        -I
//        F:\Zigbeespace\20170624\ZStack-2.5.1a\Projects\zstack\Samples\SampleApp\CC2530DB\..\..\..\ZMain\TI2530DB\
//        -I
//        F:\Zigbeespace\20170624\ZStack-2.5.1a\Projects\zstack\Samples\SampleApp\CC2530DB\..\..\..\..\..\Components\hal\include\
//        -I
//        F:\Zigbeespace\20170624\ZStack-2.5.1a\Projects\zstack\Samples\SampleApp\CC2530DB\..\..\..\..\..\Components\hal\target\CC2530EB\
//        -I
//        F:\Zigbeespace\20170624\ZStack-2.5.1a\Projects\zstack\Samples\SampleApp\CC2530DB\..\..\..\..\..\Components\mac\include\
//        -I
//        F:\Zigbeespace\20170624\ZStack-2.5.1a\Projects\zstack\Samples\SampleApp\CC2530DB\..\..\..\..\..\Components\mac\high_level\
//        -I
//        F:\Zigbeespace\20170624\ZStack-2.5.1a\Projects\zstack\Samples\SampleApp\CC2530DB\..\..\..\..\..\Components\mac\low_level\srf04\
//        -I
//        F:\Zigbeespace\20170624\ZStack-2.5.1a\Projects\zstack\Samples\SampleApp\CC2530DB\..\..\..\..\..\Components\mac\low_level\srf04\single_chip\
//        -I
//        F:\Zigbeespace\20170624\ZStack-2.5.1a\Projects\zstack\Samples\SampleApp\CC2530DB\..\..\..\..\..\Components\mt\
//        -I
//        F:\Zigbeespace\20170624\ZStack-2.5.1a\Projects\zstack\Samples\SampleApp\CC2530DB\..\..\..\..\..\Components\osal\include\
//        -I
//        F:\Zigbeespace\20170624\ZStack-2.5.1a\Projects\zstack\Samples\SampleApp\CC2530DB\..\..\..\..\..\Components\services\saddr\
//        -I
//        F:\Zigbeespace\20170624\ZStack-2.5.1a\Projects\zstack\Samples\SampleApp\CC2530DB\..\..\..\..\..\Components\services\sdata\
//        -I
//        F:\Zigbeespace\20170624\ZStack-2.5.1a\Projects\zstack\Samples\SampleApp\CC2530DB\..\..\..\..\..\Components\stack\af\
//        -I
//        F:\Zigbeespace\20170624\ZStack-2.5.1a\Projects\zstack\Samples\SampleApp\CC2530DB\..\..\..\..\..\Components\stack\nwk\
//        -I
//        F:\Zigbeespace\20170624\ZStack-2.5.1a\Projects\zstack\Samples\SampleApp\CC2530DB\..\..\..\..\..\Components\stack\sapi\
//        -I
//        F:\Zigbeespace\20170624\ZStack-2.5.1a\Projects\zstack\Samples\SampleApp\CC2530DB\..\..\..\..\..\Components\stack\sec\
//        -I
//        F:\Zigbeespace\20170624\ZStack-2.5.1a\Projects\zstack\Samples\SampleApp\CC2530DB\..\..\..\..\..\Components\stack\sys\
//        -I
//        F:\Zigbeespace\20170624\ZStack-2.5.1a\Projects\zstack\Samples\SampleApp\CC2530DB\..\..\..\..\..\Components\stack\zdo\
//        -I
//        F:\Zigbeespace\20170624\ZStack-2.5.1a\Projects\zstack\Samples\SampleApp\CC2530DB\..\..\..\..\..\Components\zmac\
//        -I
//        F:\Zigbeespace\20170624\ZStack-2.5.1a\Projects\zstack\Samples\SampleApp\CC2530DB\..\..\..\..\..\Components\zmac\f8w\
//        -Ohz --require_prototypes
//    List file          =  
//        F:\Zigbeespace\20170624\ZStack-2.5.1a\Projects\zstack\Samples\SampleApp\CC2530DB\CoordinatorEB\List\MQ2.s51
//
///////////////////////////////////////////////////////////////////////////////

        NAME MQ2

        RTMODEL "__SystemLibrary", "CLib"
        RTMODEL "__calling_convention", "xdata_reentrant"
        RTMODEL "__code_model", "banked"
        RTMODEL "__core", "plain"
        RTMODEL "__data_model", "large"
        RTMODEL "__dptr_size", "16"
        RTMODEL "__extended_stack", "disabled"
        RTMODEL "__location_for_constants", "data"
        RTMODEL "__number_of_dptrs", "1"
        RTMODEL "__rt_version", "1"

        RSEG DOVERLAY:DATA:NOROOT(0)
        RSEG IOVERLAY:IDATA:NOROOT(0)
        RSEG ISTACK:IDATA:NOROOT(0)
        RSEG PSTACK:XDATA:NOROOT(0)
        RSEG XSTACK:XDATA:NOROOT(0)

        EXTERN ?V0
        EXTERN ?V1
        EXTERN ?BANKED_ENTER_XDATA
        EXTERN ?BANKED_LEAVE_XDATA
        EXTERN ?BDISPATCH
        EXTERN ?BRET
        EXTERN ?US_DIV_MOD
        EXTERN ?US_SHR

        PUBLIC `??ReadGasData::?relay`
        FUNCTION `??ReadGasData::?relay`,0203H
        PUBLIC `??mq2_value::?relay`
        FUNCTION `??mq2_value::?relay`,0203H
        PUBWEAK ADCCON3
        PUBWEAK ADCH
        PUBWEAK ADCL
        PUBWEAK P0DIR
        PUBLIC ReadGasData
        FUNCTION ReadGasData,080203H
        ARGFRAME XSTACK, 10, STACK
        ARGFRAME IOVERLAY, 0, STATIC
        ARGFRAME DOVERLAY, 0, STATIC
        LOCFRAME ISTACK, 2, STACK
        PUBWEAK _A_TCON
        PUBLIC mq2_value
        FUNCTION mq2_value,0a1203H
        ARGFRAME XSTACK, 0, STACK
        LOCFRAME ISTACK, 1, STACK
        LOCFRAME XSTACK, 10, STACK
        
          CFI Names cfiNames0
          CFI StackFrame CFA_SP SP IDATA
          CFI StackFrame CFA_PSP16 PSP16 XDATA
          CFI StackFrame CFA_XSP16 XSP16 XDATA
          CFI StaticOverlayFrame CFA_IOVERLAY IOVERLAY
          CFI StaticOverlayFrame CFA_DOVERLAY DOVERLAY
          CFI Resource `PSW.CY`:1, `B.BR0`:1, `B.BR1`:1, `B.BR2`:1, `B.BR3`:1
          CFI Resource `B.BR4`:1, `B.BR5`:1, `B.BR6`:1, `B.BR7`:1, `VB.BR8`:1
          CFI Resource `VB.BR9`:1, `VB.BR10`:1, `VB.BR11`:1, `VB.BR12`:1
          CFI Resource `VB.BR13`:1, `VB.BR14`:1, `VB.BR15`:1, VB:8, B:8, A:8
          CFI Resource PSW:8, DPL0:8, DPH0:8, R0:8, R1:8, R2:8, R3:8, R4:8, R5:8
          CFI Resource R6:8, R7:8, V0:8, V1:8, V2:8, V3:8, V4:8, V5:8, V6:8, V7:8
          CFI Resource SP:8, PSPH:8, PSPL:8, PSP16:16, XSPH:8, XSPL:8, XSP16:16
          CFI VirtualResource ?RET:24
          CFI Resource ?BRET_EXT:8
          CFI VirtualResource ?RET_HIGH:8, ?RET_LOW:8
          CFI ResourceParts PSP16 PSPH, PSPL
          CFI ResourceParts XSP16 XSPH, XSPL
          CFI ResourceParts ?RET ?BRET_EXT, ?RET_HIGH, ?RET_LOW
          CFI EndNames cfiNames0
        
          CFI Common cfiCommon0 Using cfiNames0
          CFI CodeAlign 1
          CFI DataAlign -1
          CFI ReturnAddress ?RET CODE
          CFI CFA_DOVERLAY Used
          CFI CFA_IOVERLAY Used
          CFI CFA_SP SP+-3
          CFI CFA_PSP16 PSP16+0
          CFI CFA_XSP16 XSP16+0
          CFI `PSW.CY` SameValue
          CFI `B.BR0` SameValue
          CFI `B.BR1` SameValue
          CFI `B.BR2` SameValue
          CFI `B.BR3` SameValue
          CFI `B.BR4` SameValue
          CFI `B.BR5` SameValue
          CFI `B.BR6` SameValue
          CFI `B.BR7` SameValue
          CFI `VB.BR8` SameValue
          CFI `VB.BR9` SameValue
          CFI `VB.BR10` SameValue
          CFI `VB.BR11` SameValue
          CFI `VB.BR12` SameValue
          CFI `VB.BR13` SameValue
          CFI `VB.BR14` SameValue
          CFI `VB.BR15` SameValue
          CFI VB SameValue
          CFI B Undefined
          CFI A Undefined
          CFI PSW SameValue
          CFI DPL0 SameValue
          CFI DPH0 SameValue
          CFI R0 Undefined
          CFI R1 Undefined
          CFI R2 Undefined
          CFI R3 Undefined
          CFI R4 Undefined
          CFI R5 Undefined
          CFI R6 SameValue
          CFI R7 SameValue
          CFI V0 SameValue
          CFI V1 SameValue
          CFI V2 SameValue
          CFI V3 SameValue
          CFI V4 SameValue
          CFI V5 SameValue
          CFI V6 SameValue
          CFI V7 SameValue
          CFI PSPH Undefined
          CFI PSPL Undefined
          CFI XSPH Undefined
          CFI XSPL Undefined
          CFI ?RET Concat
          CFI ?BRET_EXT Frame(CFA_SP, 3)
          CFI ?RET_HIGH Frame(CFA_SP, 2)
          CFI ?RET_LOW Frame(CFA_SP, 1)
          CFI EndCommon cfiCommon0
        
        
          CFI Common cfiCommon1 Using cfiNames0
          CFI CodeAlign 1
          CFI DataAlign -1
          CFI ReturnAddress ?RET CODE
          CFI CFA_DOVERLAY Used
          CFI CFA_IOVERLAY Used
          CFI CFA_SP SP+-2
          CFI CFA_PSP16 PSP16+0
          CFI CFA_XSP16 XSP16+0
          CFI `PSW.CY` SameValue
          CFI `B.BR0` SameValue
          CFI `B.BR1` SameValue
          CFI `B.BR2` SameValue
          CFI `B.BR3` SameValue
          CFI `B.BR4` SameValue
          CFI `B.BR5` SameValue
          CFI `B.BR6` SameValue
          CFI `B.BR7` SameValue
          CFI `VB.BR8` SameValue
          CFI `VB.BR9` SameValue
          CFI `VB.BR10` SameValue
          CFI `VB.BR11` SameValue
          CFI `VB.BR12` SameValue
          CFI `VB.BR13` SameValue
          CFI `VB.BR14` SameValue
          CFI `VB.BR15` SameValue
          CFI VB SameValue
          CFI B SameValue
          CFI A SameValue
          CFI PSW SameValue
          CFI DPL0 SameValue
          CFI DPH0 SameValue
          CFI R0 SameValue
          CFI R1 SameValue
          CFI R2 SameValue
          CFI R3 SameValue
          CFI R4 SameValue
          CFI R5 SameValue
          CFI R6 SameValue
          CFI R7 SameValue
          CFI V0 SameValue
          CFI V1 SameValue
          CFI V2 SameValue
          CFI V3 SameValue
          CFI V4 SameValue
          CFI V5 SameValue
          CFI V6 SameValue
          CFI V7 SameValue
          CFI PSPH Undefined
          CFI PSPL Undefined
          CFI XSPH Undefined
          CFI XSPL Undefined
          CFI ?RET Concat
          CFI ?BRET_EXT SameValue
          CFI ?RET_HIGH Frame(CFA_SP, 2)
          CFI ?RET_LOW Frame(CFA_SP, 1)
          CFI EndCommon cfiCommon1
        
ReadGasData         SYMBOL "ReadGasData"
`??ReadGasData::?relay` SYMBOL "?relay", ReadGasData
mq2_value           SYMBOL "mq2_value"
`??mq2_value::?relay` SYMBOL "?relay", mq2_value

// F:\Zigbeespace\20170624\ZStack-2.5.1a\Projects\zstack\Samples\SampleApp\Source\MQ2.c
//    1 #include"MQ2.h"

        ASEGN SFR_AN:DATA:NOROOT,088H
// union <unnamed> volatile __sfr _A_TCON
_A_TCON:
        DATA8
        DS 1

        ASEGN SFR_AN:DATA:NOROOT,0b6H
// unsigned char volatile __sfr ADCCON3
ADCCON3:
        DATA8
        DS 1

        ASEGN SFR_AN:DATA:NOROOT,0baH
// unsigned char volatile __sfr ADCL
ADCL:
        DATA8
        DS 1

        ASEGN SFR_AN:DATA:NOROOT,0bbH
// unsigned char volatile __sfr ADCH
ADCH:
        DATA8
        DS 1

        ASEGN SFR_AN:DATA:NOROOT,0fdH
// unsigned char volatile __sfr P0DIR
P0DIR:
        DATA8
        DS 1
//    2 #include"OnBoard.h"
//    3 #include"hal_adc.h"
//    4 
//    5 #define HAL_ADC_DEC_064     0x00    /* Decimate by 64 : 8-bit resolution */
//    6 #define HAL_ADC_DEC_128     0x10    /* Decimate by 128 : 10-bit resolution */
//    7 #define HAL_ADC_DEC_256     0x20    /* Decimate by 256 : 12-bit resolution */
//    8 #define HAL_ADC_DEC_512     0x30    /* Decimate by 512 : 14-bit resolution */
//    9 #define HAL_ADC_DEC_BITS    0x30    /* Bits [5:4] */
//   10 
//   11 
//   12 

        RSEG BANKED_CODE:CODE:NOROOT(0)
//   13 uint16 ReadGasData( void )
ReadGasData:
          CFI Block cfiBlock0 Using cfiCommon0
          CFI Function ReadGasData
        CODE
//   14 {
        REQUIRE ?V0
        REQUIRE ?V1
        PUSH    ?V0
          CFI V0 Frame(CFA_SP, 4)
          CFI CFA_SP SP+-4
        PUSH    ?V1
          CFI V1 Frame(CFA_SP, 5)
          CFI CFA_SP SP+-5
        ; Saved register size: 2
        ; Auto size: 0
//   15   uint16 reading = 0;
//   16   
//   17   P0DIR &= ~0x40;  // 设置P0.6为输入方式
        ANL     0xfd,#0xbf
//   18   //asm("NOP");asm("NOP");
//   19   
//   20   /* Clear ADC interrupt flag */
//   21   ADCIF = 0;
        CLR     0x88.5
//   22   
//   23   //64抽取率,即7位有效分辨率(AD转换出的电压范围0~128,对应传感器浓度范围),通道6
//   24   ADCCON3 = (0x40 | HAL_ADC_DEC_512 | HAL_ADC_CHANNEL_6);
        MOV     0xb6,#0x76
//   25   
//   26   /* Wait for the conversion to finish */
//   27   while ( !ADCIF );
??ReadGasData_0:
        MOV     C,0x88.5
        JNC     ??ReadGasData_0
//   28   
//   29   asm("NOP");asm("NOP");
        NOP
        NOP
//   30   
//   31   /* Read the result */
//   32   reading = ADCL;
        MOV     R0,0xba+0x0
//   33   reading |= (int16) (ADCH << 8);
//   34   reading >>= 4;
//   35     
//   36   return reading;
        MOV     R3,0xbb
        MOV     A,R0
        MOV     ?V0,A
        MOV     A,R3
        MOV     ?V1,A
        MOV     A,#0x4
        MOV     R0,#?V0
        LCALL   ?US_SHR
        MOV     R2,?V0
        MOV     R3,?V1
        POP     ?V1
          CFI V1 SameValue
          CFI CFA_SP SP+-4
        POP     ?V0
          CFI V0 SameValue
          CFI CFA_SP SP+-3
        LJMP    ?BRET
          CFI EndBlock cfiBlock0
        REQUIRE P0DIR
        REQUIRE _A_TCON
        REQUIRE ADCCON3
        REQUIRE ADCL
        REQUIRE ADCH
//   37 }
//   38 

        RSEG BANKED_CODE:CODE:NOROOT(0)
//   39 char mq2_value(char* GasData)
mq2_value:
          CFI Block cfiBlock1 Using cfiCommon0
          CFI Function mq2_value
        CODE
//   40 {
        FUNCALL mq2_value, ReadGasData
        LOCFRAME ISTACK, 0, STACK
        LOCFRAME PSTACK, 0, STACK
        LOCFRAME XSTACK, 10, STACK
        LOCFRAME IOVERLAY, 0, STATIC
        LOCFRAME DOVERLAY, 0, STATIC
        ARGFRAME ISTACK, 0, STACK
        ARGFRAME PSTACK, 0, STACK
        ARGFRAME XSTACK, 10, STACK
        ARGFRAME IOVERLAY, 0, STATIC
        ARGFRAME DOVERLAY, 0, STATIC
        REQUIRE ?V0
        REQUIRE ?V1
        MOV     A,#-0xa
        LCALL   ?BANKED_ENTER_XDATA
          CFI DPH0 load(1, XDATA, add(CFA_XSP16, literal(-1)))
          CFI DPL0 load(1, XDATA, add(CFA_XSP16, literal(-2)))
          CFI ?BRET_EXT load(1, XDATA, add(CFA_XSP16, literal(-3)))
          CFI ?RET_HIGH load(1, XDATA, add(CFA_XSP16, literal(-4)))
          CFI ?RET_LOW load(1, XDATA, add(CFA_XSP16, literal(-5)))
          CFI R7 load(1, XDATA, add(CFA_XSP16, literal(-6)))
          CFI V1 load(1, XDATA, add(CFA_XSP16, literal(-7)))
          CFI V0 load(1, XDATA, add(CFA_XSP16, literal(-8)))
          CFI VB load(1, XDATA, add(CFA_XSP16, literal(-9)))
          CFI R6 load(1, XDATA, add(CFA_XSP16, literal(-10)))
          CFI CFA_SP SP+0
          CFI CFA_XSP16 add(XSP16, 10)
        ; Saved register size: 10
        ; Auto size: 0
        MOV     A,R2
        MOV     R6,A
        MOV     A,R3
        MOV     R7,A
//   41   uint16 nGasData=0;
//   42   nGasData = ReadGasData();
        ; Setup parameters for call to function ReadGasData
        LCALL   `??ReadGasData::?relay`; Banked call to: ReadGasData
        MOV     ?V0,R2
        MOV     ?V1,R3
        MOV     R4,?V0
        MOV     R5,?V1
//   43     if(nGasData / 100 == 0)
        MOV     A,R4
        MOV     R0,A
        MOV     A,R5
        MOV     R1,A
        MOV     R2,#0x64
        MOV     R3,#0x0
        LCALL   ?US_DIV_MOD
        MOV     ?V1,R1
        MOV     A,R0
        ORL     A,?V1
        JNZ     ??mq2_value_0
//   44     {
//   45       GasData[0] = ' ';//当等于0时，防止除的结果是乱码
        MOV     DPL,R6
        MOV     DPH,R7
        MOV     A,#0x20
        LCALL   ??Subroutine2_0 & 0xFFFF
//   46     }
//   47       else        //三位数时
//   48       { 
//   49         GasData[0] = nGasData / 100 + '0';
//   50         //电压十位
//   51         GasData[1] = nGasData / 10%10 + '0';      
//   52         //电压个位
//   53         GasData[2] = nGasData % 10 + '0'; 
//   54         GasData[3] = '\0';
//   55         return 3;//返回位数
//   56       }   
//   57     
//   58                   //无三位数，则判断十位
//   59     if(nGasData / 10%10 == 0)
??CrossCallReturnLabel_5:
        LCALL   ?US_DIV_MOD
        MOV     R2,#0xa
        MOV     R3,#0x0
        LCALL   ?US_DIV_MOD
        MOV     ?V1,R3
        MOV     A,R2
        ORL     A,?V1
        JNZ     ??mq2_value_1
//   60     {
//   61       GasData[1] = ' '; 
        INC     DPTR
        MOV     A,#0x20
        LCALL   ??Subroutine2_0 & 0xFFFF
//   62     }
//   63       else        //两位数时
//   64       { //电压十位
//   65         GasData[1] = nGasData / 10%10 + '0';      
//   66         //电压个位
//   67         GasData[2] = nGasData % 10 + '0'; 
//   68         GasData[3] = '\0';
//   69         return 2;
//   70       }
//   71     
//   72                   //无两位数，则判断个位    
//   73     if(nGasData % 10 == 0)
??CrossCallReturnLabel_6:
        LCALL   ?US_DIV_MOD
        MOV     ?V1,R3
        MOV     A,R2
        ORL     A,?V1
        JNZ     ??mq2_value_2
//   74     {
//   75       GasData[2] = ' ';
        MOV     DPL,R6
        MOV     DPH,R7
        INC     DPTR
        INC     DPTR
        MOV     A,#0x20
        MOVX    @DPTR,A
//   76     }
//   77       else        //一位数时
//   78       {
//   79         GasData[2] = nGasData % 10 + '0';
//   80         GasData[3] = '\0';
//   81         return 1;
//   82       } 
//   83 //  }
//   84   return 0;
        MOV     R1,#0x0
        SJMP    ??mq2_value_3
??mq2_value_0:
        MOV     A,R4
        MOV     R0,A
        MOV     A,R5
        MOV     R1,A
        MOV     R2,#0x64
        MOV     R3,#0x0
        LCALL   ?US_DIV_MOD
        MOV     A,R0
        ADD     A,#0x30
        MOV     DPL,R6
        MOV     DPH,R7
        LCALL   ??Subroutine2_0 & 0xFFFF
??CrossCallReturnLabel_7:
        LCALL   ?US_DIV_MOD
        MOV     R2,#0xa
        MOV     R3,#0x0
        LCALL   ?US_DIV_MOD
        LCALL   ?Subroutine1 & 0xFFFF
??CrossCallReturnLabel_3:
        LCALL   ?US_DIV_MOD
        LCALL   ?Subroutine0 & 0xFFFF
??CrossCallReturnLabel_0:
        MOV     R1,#0x3
        SJMP    ??mq2_value_3
??mq2_value_1:
        MOV     A,R4
        MOV     R0,A
        MOV     A,R5
        MOV     R1,A
        MOV     R2,#0xa
        MOV     R3,#0x0
        LCALL   ?US_DIV_MOD
        MOV     R2,#0xa
        MOV     R3,#0x0
        LCALL   ?US_DIV_MOD
        LCALL   ?Subroutine1 & 0xFFFF
??CrossCallReturnLabel_4:
        LCALL   ?US_DIV_MOD
        LCALL   ?Subroutine0 & 0xFFFF
??CrossCallReturnLabel_1:
        MOV     R1,#0x2
        SJMP    ??mq2_value_3
??mq2_value_2:
        MOV     A,R4
        MOV     R0,A
        MOV     A,R5
        MOV     R1,A
        MOV     R2,#0xa
        MOV     R3,#0x0
        LCALL   ?US_DIV_MOD
        LCALL   ?Subroutine0 & 0xFFFF
??CrossCallReturnLabel_2:
        MOV     R1,#0x1
??mq2_value_3:
        MOV     R7,#0x2
        LJMP    ?BANKED_LEAVE_XDATA
//   85 }
          CFI EndBlock cfiBlock1

        RSEG BANKED_CODE:CODE:NOROOT(0)
?Subroutine1:
          CFI Block cfiCond2 Using cfiCommon0
          CFI Function mq2_value
          CFI Conditional ??CrossCallReturnLabel_3
          CFI R6 load(1, XDATA, add(CFA_XSP16, literal(-10)))
          CFI VB load(1, XDATA, add(CFA_XSP16, literal(-9)))
          CFI V0 load(1, XDATA, add(CFA_XSP16, literal(-8)))
          CFI V1 load(1, XDATA, add(CFA_XSP16, literal(-7)))
          CFI R7 load(1, XDATA, add(CFA_XSP16, literal(-6)))
          CFI ?RET_LOW load(1, XDATA, add(CFA_XSP16, literal(-5)))
          CFI ?RET_HIGH load(1, XDATA, add(CFA_XSP16, literal(-4)))
          CFI ?BRET_EXT load(1, XDATA, add(CFA_XSP16, literal(-3)))
          CFI DPL0 load(1, XDATA, add(CFA_XSP16, literal(-2)))
          CFI DPH0 load(1, XDATA, add(CFA_XSP16, literal(-1)))
          CFI CFA_SP SP+-2
          CFI CFA_XSP16 add(XSP16, 10)
          CFI Block cfiCond3 Using cfiCommon0
          CFI (cfiCond3) Function mq2_value
          CFI (cfiCond3) Conditional ??CrossCallReturnLabel_4
          CFI (cfiCond3) R6 load(1, XDATA, add(CFA_XSP16, literal(-10)))
          CFI (cfiCond3) VB load(1, XDATA, add(CFA_XSP16, literal(-9)))
          CFI (cfiCond3) V0 load(1, XDATA, add(CFA_XSP16, literal(-8)))
          CFI (cfiCond3) V1 load(1, XDATA, add(CFA_XSP16, literal(-7)))
          CFI (cfiCond3) R7 load(1, XDATA, add(CFA_XSP16, literal(-6)))
          CFI (cfiCond3) ?RET_LOW load(1, XDATA, add(CFA_XSP16, literal(-5)))
          CFI (cfiCond3) ?RET_HIGH load(1, XDATA, add(CFA_XSP16, literal(-4)))
          CFI (cfiCond3) ?BRET_EXT load(1, XDATA, add(CFA_XSP16, literal(-3)))
          CFI (cfiCond3) DPL0 load(1, XDATA, add(CFA_XSP16, literal(-2)))
          CFI (cfiCond3) DPH0 load(1, XDATA, add(CFA_XSP16, literal(-1)))
          CFI (cfiCond3) CFA_SP SP+-2
          CFI (cfiCond3) CFA_XSP16 add(XSP16, 10)
          CFI Block cfiPicker4 Using cfiCommon1
          CFI (cfiPicker4) NoFunction
          CFI (cfiPicker4) Picker
        MOV     A,R2
        ADD     A,#0x30
        INC     DPTR
          CFI EndBlock cfiCond2
          CFI EndBlock cfiCond3
          CFI EndBlock cfiPicker4
        REQUIRE ??Subroutine2_0
        ; // Fall through to label ??Subroutine2_0

        RSEG BANKED_CODE:CODE:NOROOT(0)
??Subroutine2_0:
          CFI Block cfiCond5 Using cfiCommon0
          CFI Function mq2_value
          CFI Conditional ??CrossCallReturnLabel_5
          CFI R6 load(1, XDATA, add(CFA_XSP16, literal(-10)))
          CFI VB load(1, XDATA, add(CFA_XSP16, literal(-9)))
          CFI V0 load(1, XDATA, add(CFA_XSP16, literal(-8)))
          CFI V1 load(1, XDATA, add(CFA_XSP16, literal(-7)))
          CFI R7 load(1, XDATA, add(CFA_XSP16, literal(-6)))
          CFI ?RET_LOW load(1, XDATA, add(CFA_XSP16, literal(-5)))
          CFI ?RET_HIGH load(1, XDATA, add(CFA_XSP16, literal(-4)))
          CFI ?BRET_EXT load(1, XDATA, add(CFA_XSP16, literal(-3)))
          CFI DPL0 load(1, XDATA, add(CFA_XSP16, literal(-2)))
          CFI DPH0 load(1, XDATA, add(CFA_XSP16, literal(-1)))
          CFI CFA_SP SP+-2
          CFI CFA_XSP16 add(XSP16, 10)
          CFI Block cfiCond6 Using cfiCommon0
          CFI (cfiCond6) Function mq2_value
          CFI (cfiCond6) Conditional ??CrossCallReturnLabel_6
          CFI (cfiCond6) R6 load(1, XDATA, add(CFA_XSP16, literal(-10)))
          CFI (cfiCond6) VB load(1, XDATA, add(CFA_XSP16, literal(-9)))
          CFI (cfiCond6) V0 load(1, XDATA, add(CFA_XSP16, literal(-8)))
          CFI (cfiCond6) V1 load(1, XDATA, add(CFA_XSP16, literal(-7)))
          CFI (cfiCond6) R7 load(1, XDATA, add(CFA_XSP16, literal(-6)))
          CFI (cfiCond6) ?RET_LOW load(1, XDATA, add(CFA_XSP16, literal(-5)))
          CFI (cfiCond6) ?RET_HIGH load(1, XDATA, add(CFA_XSP16, literal(-4)))
          CFI (cfiCond6) ?BRET_EXT load(1, XDATA, add(CFA_XSP16, literal(-3)))
          CFI (cfiCond6) DPL0 load(1, XDATA, add(CFA_XSP16, literal(-2)))
          CFI (cfiCond6) DPH0 load(1, XDATA, add(CFA_XSP16, literal(-1)))
          CFI (cfiCond6) CFA_SP SP+-2
          CFI (cfiCond6) CFA_XSP16 add(XSP16, 10)
          CFI Block cfiCond7 Using cfiCommon0
          CFI (cfiCond7) Function mq2_value
          CFI (cfiCond7) Conditional ??CrossCallReturnLabel_7
          CFI (cfiCond7) R6 load(1, XDATA, add(CFA_XSP16, literal(-10)))
          CFI (cfiCond7) VB load(1, XDATA, add(CFA_XSP16, literal(-9)))
          CFI (cfiCond7) V0 load(1, XDATA, add(CFA_XSP16, literal(-8)))
          CFI (cfiCond7) V1 load(1, XDATA, add(CFA_XSP16, literal(-7)))
          CFI (cfiCond7) R7 load(1, XDATA, add(CFA_XSP16, literal(-6)))
          CFI (cfiCond7) ?RET_LOW load(1, XDATA, add(CFA_XSP16, literal(-5)))
          CFI (cfiCond7) ?RET_HIGH load(1, XDATA, add(CFA_XSP16, literal(-4)))
          CFI (cfiCond7) ?BRET_EXT load(1, XDATA, add(CFA_XSP16, literal(-3)))
          CFI (cfiCond7) DPL0 load(1, XDATA, add(CFA_XSP16, literal(-2)))
          CFI (cfiCond7) DPH0 load(1, XDATA, add(CFA_XSP16, literal(-1)))
          CFI (cfiCond7) CFA_SP SP+-2
          CFI (cfiCond7) CFA_XSP16 add(XSP16, 10)
          CFI Block cfiCond8 Using cfiCommon0
          CFI (cfiCond8) Function mq2_value
          CFI (cfiCond8) Conditional ??CrossCallReturnLabel_3
          CFI (cfiCond8) R6 load(1, XDATA, add(CFA_XSP16, literal(-10)))
          CFI (cfiCond8) VB load(1, XDATA, add(CFA_XSP16, literal(-9)))
          CFI (cfiCond8) V0 load(1, XDATA, add(CFA_XSP16, literal(-8)))
          CFI (cfiCond8) V1 load(1, XDATA, add(CFA_XSP16, literal(-7)))
          CFI (cfiCond8) R7 load(1, XDATA, add(CFA_XSP16, literal(-6)))
          CFI (cfiCond8) ?RET_LOW load(1, XDATA, add(CFA_XSP16, literal(-5)))
          CFI (cfiCond8) ?RET_HIGH load(1, XDATA, add(CFA_XSP16, literal(-4)))
          CFI (cfiCond8) ?BRET_EXT load(1, XDATA, add(CFA_XSP16, literal(-3)))
          CFI (cfiCond8) DPL0 load(1, XDATA, add(CFA_XSP16, literal(-2)))
          CFI (cfiCond8) DPH0 load(1, XDATA, add(CFA_XSP16, literal(-1)))
          CFI (cfiCond8) CFA_SP SP+-2
          CFI (cfiCond8) CFA_XSP16 add(XSP16, 10)
          CFI Block cfiCond9 Using cfiCommon0
          CFI (cfiCond9) Function mq2_value
          CFI (cfiCond9) Conditional ??CrossCallReturnLabel_4
          CFI (cfiCond9) R6 load(1, XDATA, add(CFA_XSP16, literal(-10)))
          CFI (cfiCond9) VB load(1, XDATA, add(CFA_XSP16, literal(-9)))
          CFI (cfiCond9) V0 load(1, XDATA, add(CFA_XSP16, literal(-8)))
          CFI (cfiCond9) V1 load(1, XDATA, add(CFA_XSP16, literal(-7)))
          CFI (cfiCond9) R7 load(1, XDATA, add(CFA_XSP16, literal(-6)))
          CFI (cfiCond9) ?RET_LOW load(1, XDATA, add(CFA_XSP16, literal(-5)))
          CFI (cfiCond9) ?RET_HIGH load(1, XDATA, add(CFA_XSP16, literal(-4)))
          CFI (cfiCond9) ?BRET_EXT load(1, XDATA, add(CFA_XSP16, literal(-3)))
          CFI (cfiCond9) DPL0 load(1, XDATA, add(CFA_XSP16, literal(-2)))
          CFI (cfiCond9) DPH0 load(1, XDATA, add(CFA_XSP16, literal(-1)))
          CFI (cfiCond9) CFA_SP SP+-2
          CFI (cfiCond9) CFA_XSP16 add(XSP16, 10)
          CFI Block cfiPicker10 Using cfiCommon1
          CFI (cfiPicker10) NoFunction
          CFI (cfiPicker10) Picker
        MOVX    @DPTR,A
        MOV     A,R4
        MOV     R0,A
        MOV     A,R5
        MOV     R1,A
        MOV     R2,#0xa
        MOV     R3,#0x0
        RET
          CFI EndBlock cfiCond5
          CFI EndBlock cfiCond6
          CFI EndBlock cfiCond7
          CFI EndBlock cfiCond8
          CFI EndBlock cfiCond9
          CFI EndBlock cfiPicker10

        RSEG BANKED_CODE:CODE:NOROOT(0)
?Subroutine0:
          CFI Block cfiCond11 Using cfiCommon0
          CFI Function mq2_value
          CFI Conditional ??CrossCallReturnLabel_0
          CFI R6 load(1, XDATA, add(CFA_XSP16, literal(-10)))
          CFI VB load(1, XDATA, add(CFA_XSP16, literal(-9)))
          CFI V0 load(1, XDATA, add(CFA_XSP16, literal(-8)))
          CFI V1 load(1, XDATA, add(CFA_XSP16, literal(-7)))
          CFI R7 load(1, XDATA, add(CFA_XSP16, literal(-6)))
          CFI ?RET_LOW load(1, XDATA, add(CFA_XSP16, literal(-5)))
          CFI ?RET_HIGH load(1, XDATA, add(CFA_XSP16, literal(-4)))
          CFI ?BRET_EXT load(1, XDATA, add(CFA_XSP16, literal(-3)))
          CFI DPL0 load(1, XDATA, add(CFA_XSP16, literal(-2)))
          CFI DPH0 load(1, XDATA, add(CFA_XSP16, literal(-1)))
          CFI CFA_SP SP+-2
          CFI CFA_XSP16 add(XSP16, 10)
          CFI Block cfiCond12 Using cfiCommon0
          CFI (cfiCond12) Function mq2_value
          CFI (cfiCond12) Conditional ??CrossCallReturnLabel_1
          CFI (cfiCond12) R6 load(1, XDATA, add(CFA_XSP16, literal(-10)))
          CFI (cfiCond12) VB load(1, XDATA, add(CFA_XSP16, literal(-9)))
          CFI (cfiCond12) V0 load(1, XDATA, add(CFA_XSP16, literal(-8)))
          CFI (cfiCond12) V1 load(1, XDATA, add(CFA_XSP16, literal(-7)))
          CFI (cfiCond12) R7 load(1, XDATA, add(CFA_XSP16, literal(-6)))
          CFI (cfiCond12) ?RET_LOW load(1, XDATA, add(CFA_XSP16, literal(-5)))
          CFI (cfiCond12) ?RET_HIGH load(1, XDATA, add(CFA_XSP16, literal(-4)))
          CFI (cfiCond12) ?BRET_EXT load(1, XDATA, add(CFA_XSP16, literal(-3)))
          CFI (cfiCond12) DPL0 load(1, XDATA, add(CFA_XSP16, literal(-2)))
          CFI (cfiCond12) DPH0 load(1, XDATA, add(CFA_XSP16, literal(-1)))
          CFI (cfiCond12) CFA_SP SP+-2
          CFI (cfiCond12) CFA_XSP16 add(XSP16, 10)
          CFI Block cfiCond13 Using cfiCommon0
          CFI (cfiCond13) Function mq2_value
          CFI (cfiCond13) Conditional ??CrossCallReturnLabel_2
          CFI (cfiCond13) R6 load(1, XDATA, add(CFA_XSP16, literal(-10)))
          CFI (cfiCond13) VB load(1, XDATA, add(CFA_XSP16, literal(-9)))
          CFI (cfiCond13) V0 load(1, XDATA, add(CFA_XSP16, literal(-8)))
          CFI (cfiCond13) V1 load(1, XDATA, add(CFA_XSP16, literal(-7)))
          CFI (cfiCond13) R7 load(1, XDATA, add(CFA_XSP16, literal(-6)))
          CFI (cfiCond13) ?RET_LOW load(1, XDATA, add(CFA_XSP16, literal(-5)))
          CFI (cfiCond13) ?RET_HIGH load(1, XDATA, add(CFA_XSP16, literal(-4)))
          CFI (cfiCond13) ?BRET_EXT load(1, XDATA, add(CFA_XSP16, literal(-3)))
          CFI (cfiCond13) DPL0 load(1, XDATA, add(CFA_XSP16, literal(-2)))
          CFI (cfiCond13) DPH0 load(1, XDATA, add(CFA_XSP16, literal(-1)))
          CFI (cfiCond13) CFA_SP SP+-2
          CFI (cfiCond13) CFA_XSP16 add(XSP16, 10)
          CFI Block cfiPicker14 Using cfiCommon1
          CFI (cfiPicker14) NoFunction
          CFI (cfiPicker14) Picker
        MOV     A,R2
        ADD     A,#0x30
        MOV     DPL,R6
        MOV     DPH,R7
        INC     DPTR
        INC     DPTR
        MOVX    @DPTR,A
        MOV     DPL,R6
        MOV     DPH,R7
        INC     DPTR
        INC     DPTR
        INC     DPTR
        CLR     A
        MOVX    @DPTR,A
        RET
          CFI EndBlock cfiCond11
          CFI EndBlock cfiCond12
          CFI EndBlock cfiCond13
          CFI EndBlock cfiPicker14

        RSEG BANK_RELAYS:CODE:REORDER:NOROOT(0)
`??ReadGasData::?relay`:
        CODE
        LCALL   ?BDISPATCH
        DATA24
        DC24    ReadGasData

        RSEG BANK_RELAYS:CODE:REORDER:NOROOT(0)
`??mq2_value::?relay`:
        CODE
        LCALL   ?BDISPATCH
        DATA24
        DC24    mq2_value

        END
// 
// 269 bytes in segment BANKED_CODE
//  12 bytes in segment BANK_RELAYS
//   5 bytes in segment SFR_AN
// 
// 281 bytes of CODE memory
//   0 bytes of DATA memory (+ 5 bytes shared)
//
//Errors: none
//Warnings: none
