///////////////////////////////////////////////////////////////////////////////
//
// IAR C/C++ Compiler V9.30.1.3056 for 8051               22/May/2018  20:40:13
// Copyright 2004-2015 IAR Systems AB.
// Standalone license - IAR Embedded Workbench for 8051
//
//    Core               =  plain
//    Code model         =  banked
//    Data model         =  large
//    Calling convention =  xdata reentrant
//    Constant location  =  data_rom
//    Dptr setup         =  1,16
//                          
//    Source file        =  
//        D:\design\ZStack-2.5.1a\Projects\zstack\Samples\SampleApp\Source\ds18b20.c
//    Command line       =  
//        -f
//        D:\design\ZStack-2.5.1a\Projects\zstack\Samples\SampleApp\CC2530DB\..\..\..\Tools\CC2530DB\f8wEndev.cfg
//        (-DCPU32MHZ -DROOT=__near_func -DMAC_CFG_TX_DATA_MAX=3
//        -DMAC_CFG_TX_MAX=6 -DMAC_CFG_RX_MAX=3) -f
//        D:\design\ZStack-2.5.1a\Projects\zstack\Samples\SampleApp\CC2530DB\..\..\..\Tools\CC2530DB\f8wConfig.cfg
//        (-DZIGBEEPRO -DSECURE=0 -DZG_SECURE_DYNAMIC=0 -DREFLECTOR
//        -DDEFAULT_CHANLIST=0x00000800 -DZDAPP_CONFIG_PAN_ID=0x333;
//        -DNWK_START_DELAY=100 -DEXTENDED_JOINING_RANDOM_MASK=0x007F
//        -DBEACON_REQUEST_DELAY=100 -DBEACON_REQ_DELAY_MASK=0x00FF
//        -DLINK_STATUS_JITTER_MASK=0x007F -DROUTE_EXPIRY_TIME=30
//        -DAPSC_ACK_WAIT_DURATION_POLLED=3000 -DNWK_INDIRECT_MSG_TIMEOUT=7
//        -DMAX_RREQ_ENTRIES=8 -DAPSC_MAX_FRAME_RETRIES=3
//        -DNWK_MAX_DATA_RETRIES=2 -DMAX_POLL_FAILURE_RETRIES=2 -DMAX_BCAST=9
//        -DAPS_MAX_GROUPS=16 -DMAX_RTG_ENTRIES=40 -DNWK_MAX_BINDING_ENTRIES=4
//        -DMAX_BINDING_CLUSTER_IDS=4 "-DDEFAULT_KEY={0x01, 0x03, 0x05, 0x07,
//        0x09, 0x0B, 0x0D, 0x0F, 0x00, 0x02, 0x04, 0x06, 0x08, 0x0A, 0x0C,
//        0x0D}" -DMAC_MAX_FRAME_SIZE=116 -DZDNWKMGR_MIN_TRANSMISSIONS=20
//        "-DCONST=const __code" -DGENERIC=__generic -DRFD_RCVC_ALWAYS_ON=FALSE
//        -DPOLL_RATE=0 -DQUEUED_POLL_RATE=0 -DRESPONSE_POLL_RATE=0)
//        -DREJOIN_POLL_RATE=1000
//        D:\design\ZStack-2.5.1a\Projects\zstack\Samples\SampleApp\Source\ds18b20.c
//        -D NWK_AUTO_POLL -D ZTOOL_P1 -D xMT_TASK -D xMT_SYS_FUNC -D
//        xMT_ZDO_FUNC -D xLCD_SUPPORTED=DEBUG -D POWER_SAVING -lC
//        D:\design\ZStack-2.5.1a\Projects\zstack\Samples\SampleApp\CC2530DB\EndDeviceEB\List
//        -lA
//        D:\design\ZStack-2.5.1a\Projects\zstack\Samples\SampleApp\CC2530DB\EndDeviceEB\List
//        --diag_suppress Pe001,Pa010 -o
//        D:\design\ZStack-2.5.1a\Projects\zstack\Samples\SampleApp\CC2530DB\EndDeviceEB\Obj
//        -e --no_cse --no_unroll --no_inline --no_code_motion --no_tbaa
//        --debug --core=plain --dptr=16,1 --data_model=large
//        --code_model=banked --calling_convention=xdata_reentrant
//        --place_constants=data_rom --nr_virtual_regs 8 -I
//        D:\design\ZStack-2.5.1a\Projects\zstack\Samples\SampleApp\CC2530DB\
//        -I
//        D:\design\ZStack-2.5.1a\Projects\zstack\Samples\SampleApp\CC2530DB\..\Source\
//        -I
//        D:\design\ZStack-2.5.1a\Projects\zstack\Samples\SampleApp\CC2530DB\..\..\..\ZMain\TI2530DB\
//        -I
//        D:\design\ZStack-2.5.1a\Projects\zstack\Samples\SampleApp\CC2530DB\..\..\..\..\..\Components\hal\include\
//        -I
//        D:\design\ZStack-2.5.1a\Projects\zstack\Samples\SampleApp\CC2530DB\..\..\..\..\..\Components\hal\target\CC2530EB\
//        -I
//        D:\design\ZStack-2.5.1a\Projects\zstack\Samples\SampleApp\CC2530DB\..\..\..\..\..\Components\mac\include\
//        -I
//        D:\design\ZStack-2.5.1a\Projects\zstack\Samples\SampleApp\CC2530DB\..\..\..\..\..\Components\mac\high_level\
//        -I
//        D:\design\ZStack-2.5.1a\Projects\zstack\Samples\SampleApp\CC2530DB\..\..\..\..\..\Components\mac\low_level\srf04\
//        -I
//        D:\design\ZStack-2.5.1a\Projects\zstack\Samples\SampleApp\CC2530DB\..\..\..\..\..\Components\mac\low_level\srf04\single_chip\
//        -I
//        D:\design\ZStack-2.5.1a\Projects\zstack\Samples\SampleApp\CC2530DB\..\..\..\..\..\Components\mt\
//        -I
//        D:\design\ZStack-2.5.1a\Projects\zstack\Samples\SampleApp\CC2530DB\..\..\..\..\..\Components\osal\include\
//        -I
//        D:\design\ZStack-2.5.1a\Projects\zstack\Samples\SampleApp\CC2530DB\..\..\..\..\..\Components\services\saddr\
//        -I
//        D:\design\ZStack-2.5.1a\Projects\zstack\Samples\SampleApp\CC2530DB\..\..\..\..\..\Components\services\sdata\
//        -I
//        D:\design\ZStack-2.5.1a\Projects\zstack\Samples\SampleApp\CC2530DB\..\..\..\..\..\Components\stack\af\
//        -I
//        D:\design\ZStack-2.5.1a\Projects\zstack\Samples\SampleApp\CC2530DB\..\..\..\..\..\Components\stack\nwk\
//        -I
//        D:\design\ZStack-2.5.1a\Projects\zstack\Samples\SampleApp\CC2530DB\..\..\..\..\..\Components\stack\sapi\
//        -I
//        D:\design\ZStack-2.5.1a\Projects\zstack\Samples\SampleApp\CC2530DB\..\..\..\..\..\Components\stack\sec\
//        -I
//        D:\design\ZStack-2.5.1a\Projects\zstack\Samples\SampleApp\CC2530DB\..\..\..\..\..\Components\stack\sys\
//        -I
//        D:\design\ZStack-2.5.1a\Projects\zstack\Samples\SampleApp\CC2530DB\..\..\..\..\..\Components\stack\zdo\
//        -I
//        D:\design\ZStack-2.5.1a\Projects\zstack\Samples\SampleApp\CC2530DB\..\..\..\..\..\Components\zmac\
//        -I
//        D:\design\ZStack-2.5.1a\Projects\zstack\Samples\SampleApp\CC2530DB\..\..\..\..\..\Components\zmac\f8w\
//        -On --require_prototypes
//    List file          =  
//        D:\design\ZStack-2.5.1a\Projects\zstack\Samples\SampleApp\CC2530DB\EndDeviceEB\List\ds18b20.s51
//
///////////////////////////////////////////////////////////////////////////////

        NAME ds18b20

        RTMODEL "__SystemLibrary", "CLib"
        RTMODEL "__calling_convention", "xdata_reentrant"
        RTMODEL "__code_model", "banked"
        RTMODEL "__core", "plain"
        RTMODEL "__data_model", "large"
        RTMODEL "__dptr_size", "16"
        RTMODEL "__extended_stack", "disabled"
        RTMODEL "__iar_require _formatted_write", "floats,widths"
        RTMODEL "__location_for_constants", "data"
        RTMODEL "__number_of_dptrs", "1"
        RTMODEL "__rt_version", "1"

        RSEG DOVERLAY:DATA:NOROOT(0)
        RSEG IOVERLAY:IDATA:NOROOT(0)
        RSEG ISTACK:IDATA:NOROOT(0)
        RSEG PSTACK:XDATA:NOROOT(0)
        RSEG XSTACK:XDATA:NOROOT(0)

        EXTERN ?V0
        EXTERN ?V1
        EXTERN ?V2
        EXTERN ?V3
        EXTERN ?V4
        EXTERN ?V5
        EXTERN ?V6
        EXTERN ?V7
        EXTERN ?ALLOC_XSTACK8
        EXTERN ?BANKED_ENTER_XDATA
        EXTERN ?BANKED_LEAVE_XDATA
        EXTERN ?BDISPATCH
        EXTERN ?BRET
        EXTERN ?DEALLOC_XSTACK8
        EXTERN ?FLT_ADD
        EXTERN ?FLT_MUL
        EXTERN ?L_MOV_TO_X
        EXTERN ?L_MOV_X
        EXTERN ?PUSH_XSTACK8_X_FOUR
        EXTERN ?UL_TO_FLT
        EXTERN ?XLOAD_R0123
        EXTERN ?XSP
        EXTERN ?XSTACK_DISP0_8
        EXTERN ?XSTORE_R0123

        PUBLIC `??DS18B20Delay_us::?relay`
        FUNCTION `??DS18B20Delay_us::?relay`,0203H
        PUBLIC `??Ds18B20_Readfloat::?relay`
        FUNCTION `??Ds18B20_Readfloat::?relay`,0203H
        PUBLIC `??Ds18B20_Readfloat_Str::?relay`
        FUNCTION `??Ds18B20_Readfloat_Str::?relay`,0203H
        PUBLIC `??Ds18b20Initial::?relay`
        FUNCTION `??Ds18b20Initial::?relay`,0203H
        PUBLIC `??Ds18b20InputInitial::?relay`
        FUNCTION `??Ds18b20InputInitial::?relay`,0203H
        PUBLIC `??Ds18b20OutputInitial::?relay`
        FUNCTION `??Ds18b20OutputInitial::?relay`,0203H
        PUBLIC `??Ds18b20Read::?relay`
        FUNCTION `??Ds18b20Read::?relay`,0203H
        PUBLIC `??Ds18b20Write::?relay`
        FUNCTION `??Ds18b20Write::?relay`,0203H
        PUBLIC `??ReadDs18B20::?relay`
        FUNCTION `??ReadDs18B20::?relay`,0203H
        PUBLIC DS18B20Delay_us
        FUNCTION DS18B20Delay_us,021203H
        ARGFRAME XSTACK, 10, STACK
        ARGFRAME IOVERLAY, 0, STATIC
        ARGFRAME DOVERLAY, 0, STATIC
        LOCFRAME XSTACK, 9, STACK
        PUBLIC Ds18B20_Readfloat
        FUNCTION Ds18B20_Readfloat,0a1203H
        ARGFRAME XSTACK, 0, STACK
        LOCFRAME ISTACK, 1, STACK
        LOCFRAME XSTACK, 28, STACK
        PUBLIC Ds18B20_Readfloat_Str
        FUNCTION Ds18B20_Readfloat_Str,0a1203H
        ARGFRAME XSTACK, 0, STACK
        LOCFRAME ISTACK, 1, STACK
        LOCFRAME XSTACK, 28, STACK
        PUBLIC Ds18b20Initial
        FUNCTION Ds18b20Initial,0a1203H
        ARGFRAME XSTACK, 28, STACK
        ARGFRAME IOVERLAY, 0, STATIC
        ARGFRAME DOVERLAY, 0, STATIC
        LOCFRAME XSTACK, 10, STACK
        PUBLIC Ds18b20InputInitial
        FUNCTION Ds18b20InputInitial,0203H
        ARGFRAME XSTACK, 10, STACK
        ARGFRAME IOVERLAY, 0, STATIC
        ARGFRAME DOVERLAY, 0, STATIC
        PUBLIC Ds18b20OutputInitial
        FUNCTION Ds18b20OutputInitial,0203H
        ARGFRAME XSTACK, 10, STACK
        ARGFRAME IOVERLAY, 0, STATIC
        ARGFRAME DOVERLAY, 0, STATIC
        PUBLIC Ds18b20Read
        FUNCTION Ds18b20Read,0a1203H
        ARGFRAME XSTACK, 28, STACK
        ARGFRAME IOVERLAY, 0, STATIC
        ARGFRAME DOVERLAY, 0, STATIC
        LOCFRAME XSTACK, 9, STACK
        PUBLIC Ds18b20Write
        FUNCTION Ds18b20Write,0a1203H
        ARGFRAME XSTACK, 28, STACK
        ARGFRAME IOVERLAY, 0, STATIC
        ARGFRAME DOVERLAY, 0, STATIC
        LOCFRAME XSTACK, 9, STACK
        PUBWEAK P0DIR
        PUBLIC ReadDs18B20
        FUNCTION ReadDs18B20,0a1203H
        ARGFRAME XSTACK, 0, STACK
        LOCFRAME XSTACK, 9, STACK
        PUBWEAK _A_P0
        PUBWEAK __Constant_3d800000
        PUBWEAK __Constant_c0800000
        
          CFI Names cfiNames0
          CFI StackFrame CFA_SP SP IDATA
          CFI StackFrame CFA_PSP16 PSP16 XDATA
          CFI StackFrame CFA_XSP16 XSP16 XDATA
          CFI StaticOverlayFrame CFA_IOVERLAY IOVERLAY
          CFI StaticOverlayFrame CFA_DOVERLAY DOVERLAY
          CFI Resource `PSW.CY`:1, `B.BR0`:1, `B.BR1`:1, `B.BR2`:1, `B.BR3`:1
          CFI Resource `B.BR4`:1, `B.BR5`:1, `B.BR6`:1, `B.BR7`:1, `VB.BR8`:1
          CFI Resource `VB.BR9`:1, `VB.BR10`:1, `VB.BR11`:1, `VB.BR12`:1
          CFI Resource `VB.BR13`:1, `VB.BR14`:1, `VB.BR15`:1, VB:8, B:8, A:8
          CFI Resource PSW:8, DPL0:8, DPH0:8, R0:8, R1:8, R2:8, R3:8, R4:8, R5:8
          CFI Resource R6:8, R7:8, V0:8, V1:8, V2:8, V3:8, V4:8, V5:8, V6:8, V7:8
          CFI Resource SP:8, PSPH:8, PSPL:8, PSP16:16, XSPH:8, XSPL:8, XSP16:16
          CFI VirtualResource ?RET:24
          CFI Resource ?BRET_EXT:8
          CFI VirtualResource ?RET_HIGH:8, ?RET_LOW:8
          CFI ResourceParts PSP16 PSPH, PSPL
          CFI ResourceParts XSP16 XSPH, XSPL
          CFI ResourceParts ?RET ?BRET_EXT, ?RET_HIGH, ?RET_LOW
          CFI EndNames cfiNames0
        
          CFI Common cfiCommon0 Using cfiNames0
          CFI CodeAlign 1
          CFI DataAlign -1
          CFI ReturnAddress ?RET CODE
          CFI CFA_DOVERLAY Used
          CFI CFA_IOVERLAY Used
          CFI CFA_SP SP+-3
          CFI CFA_PSP16 PSP16+0
          CFI CFA_XSP16 XSP16+0
          CFI `PSW.CY` SameValue
          CFI `B.BR0` SameValue
          CFI `B.BR1` SameValue
          CFI `B.BR2` SameValue
          CFI `B.BR3` SameValue
          CFI `B.BR4` SameValue
          CFI `B.BR5` SameValue
          CFI `B.BR6` SameValue
          CFI `B.BR7` SameValue
          CFI `VB.BR8` SameValue
          CFI `VB.BR9` SameValue
          CFI `VB.BR10` SameValue
          CFI `VB.BR11` SameValue
          CFI `VB.BR12` SameValue
          CFI `VB.BR13` SameValue
          CFI `VB.BR14` SameValue
          CFI `VB.BR15` SameValue
          CFI VB SameValue
          CFI B Undefined
          CFI A Undefined
          CFI PSW SameValue
          CFI DPL0 SameValue
          CFI DPH0 SameValue
          CFI R0 Undefined
          CFI R1 Undefined
          CFI R2 Undefined
          CFI R3 Undefined
          CFI R4 Undefined
          CFI R5 Undefined
          CFI R6 SameValue
          CFI R7 SameValue
          CFI V0 SameValue
          CFI V1 SameValue
          CFI V2 SameValue
          CFI V3 SameValue
          CFI V4 SameValue
          CFI V5 SameValue
          CFI V6 SameValue
          CFI V7 SameValue
          CFI PSPH Undefined
          CFI PSPL Undefined
          CFI XSPH Undefined
          CFI XSPL Undefined
          CFI ?RET Concat
          CFI ?BRET_EXT Frame(CFA_SP, 3)
          CFI ?RET_HIGH Frame(CFA_SP, 2)
          CFI ?RET_LOW Frame(CFA_SP, 1)
          CFI EndCommon cfiCommon0
        
Onboard_wait        SYMBOL "Onboard_wait"
`??Onboard_wait::?relay` SYMBOL "?relay", Onboard_wait
sprintf             SYMBOL "sprintf"
`??sprintf::?relay` SYMBOL "?relay", sprintf
DS18B20Delay_us     SYMBOL "DS18B20Delay_us"
`??DS18B20Delay_us::?relay` SYMBOL "?relay", DS18B20Delay_us
Ds18B20_Readfloat   SYMBOL "Ds18B20_Readfloat"
`??Ds18B20_Readfloat::?relay` SYMBOL "?relay", Ds18B20_Readfloat
Ds18B20_Readfloat_Str SYMBOL "Ds18B20_Readfloat_Str"
`??Ds18B20_Readfloat_Str::?relay` SYMBOL "?relay", Ds18B20_Readfloat_Str
Ds18b20Initial      SYMBOL "Ds18b20Initial"
`??Ds18b20Initial::?relay` SYMBOL "?relay", Ds18b20Initial
Ds18b20InputInitial SYMBOL "Ds18b20InputInitial"
`??Ds18b20InputInitial::?relay` SYMBOL "?relay", Ds18b20InputInitial
Ds18b20OutputInitial SYMBOL "Ds18b20OutputInitial"
`??Ds18b20OutputInitial::?relay` SYMBOL "?relay", Ds18b20OutputInitial
Ds18b20Read         SYMBOL "Ds18b20Read"
`??Ds18b20Read::?relay` SYMBOL "?relay", Ds18b20Read
Ds18b20Write        SYMBOL "Ds18b20Write"
`??Ds18b20Write::?relay` SYMBOL "?relay", Ds18b20Write
ReadDs18B20         SYMBOL "ReadDs18B20"
`??ReadDs18B20::?relay` SYMBOL "?relay", ReadDs18B20

        EXTERN `??Onboard_wait::?relay`
        FUNCTION `??Onboard_wait::?relay`,00H
        EXTERN `??sprintf::?relay`
        FUNCTION `??sprintf::?relay`,00H
        EXTERN Onboard_wait
        FUNCTION Onboard_wait,0202H
        ARGFRAME ISTACK, 0, STACK
        ARGFRAME PSTACK, 0, STACK
        ARGFRAME XSTACK, 9, STACK
        ARGFRAME IOVERLAY, 0, STATIC
        ARGFRAME DOVERLAY, 0, STATIC
        EXTERN sprintf
        FUNCTION sprintf,0202H
        ARGFRAME ISTACK, 0, STACK
        ARGFRAME PSTACK, 0, STACK
        ARGFRAME XSTACK, 28, STACK
        ARGFRAME IOVERLAY, 0, STATIC
        ARGFRAME DOVERLAY, 0, STATIC

// D:\design\ZStack-2.5.1a\Projects\zstack\Samples\SampleApp\Source\ds18b20.c
//    1 #include"iocc2530.h"

        ASEGN SFR_AN:DATA:NOROOT,080H
// union <unnamed> volatile __sfr _A_P0
_A_P0:
        DATA8
        DS 1

        ASEGN SFR_AN:DATA:NOROOT,0fdH
// unsigned char volatile __sfr P0DIR
P0DIR:
        DATA8
        DS 1
//    2 #include"OnBoard.h"
//    3 #include "ds18b20.h" 
//    4 #include <stdio.h>
//    5 
//    6 #define Ds18b20IO P0_5       //温度传感器引脚
//    7 
//    8 
//    9 void DS18B20Delay_us(unsigned int k);
//   10 void Ds18b20InputInitial(void);
//   11 void Ds18b20OutputInitial(void);
//   12 unsigned char Ds18b20Initial(void);
//   13 void Ds18b20Write(unsigned char infor);
//   14 unsigned char Ds18b20Read(void);
//   15 
//   16 
//   17 //时钟频率为32M  不同的厂家延时可能需要调整

        RSEG BANKED_CODE:CODE:NOROOT(0)
//   18 void DS18B20Delay_us(unsigned int k)
DS18B20Delay_us:
          CFI Block cfiBlock0 Using cfiCommon0
          CFI Function DS18B20Delay_us
        CODE
//   19 {
        FUNCALL DS18B20Delay_us, Onboard_wait
        LOCFRAME ISTACK, 0, STACK
        LOCFRAME PSTACK, 0, STACK
        LOCFRAME XSTACK, 9, STACK
        LOCFRAME IOVERLAY, 0, STATIC
        LOCFRAME DOVERLAY, 0, STATIC
        ARGFRAME ISTACK, 0, STACK
        ARGFRAME PSTACK, 0, STACK
        ARGFRAME XSTACK, 9, STACK
        ARGFRAME IOVERLAY, 0, STATIC
        ARGFRAME DOVERLAY, 0, STATIC
        MOV     A,#-0x9
        LCALL   ?BANKED_ENTER_XDATA
          CFI DPH0 load(1, XDATA, add(CFA_XSP16, literal(-1)))
          CFI DPL0 load(1, XDATA, add(CFA_XSP16, literal(-2)))
          CFI ?BRET_EXT load(1, XDATA, add(CFA_XSP16, literal(-3)))
          CFI ?RET_HIGH load(1, XDATA, add(CFA_XSP16, literal(-4)))
          CFI ?RET_LOW load(1, XDATA, add(CFA_XSP16, literal(-5)))
          CFI R7 load(1, XDATA, add(CFA_XSP16, literal(-6)))
          CFI V0 load(1, XDATA, add(CFA_XSP16, literal(-7)))
          CFI VB load(1, XDATA, add(CFA_XSP16, literal(-8)))
          CFI R6 load(1, XDATA, add(CFA_XSP16, literal(-9)))
          CFI CFA_SP SP+0
          CFI CFA_XSP16 add(XSP16, 9)
        ; Saved register size: 9
        ; Auto size: 0
        MOV     A,R2
        MOV     R6,A
        MOV     A,R3
        MOV     R7,A
//   20     Onboard_wait(k);
        ; Setup parameters for call to function Onboard_wait
        MOV     A,R6
        MOV     R2,A
        MOV     A,R7
        MOV     R3,A
        LCALL   `??Onboard_wait::?relay`; Banked call to: Onboard_wait
//   21 }
        MOV     R7,#0x1
        LJMP    ?BANKED_LEAVE_XDATA
          CFI EndBlock cfiBlock0
//   22 

        RSEG BANKED_CODE:CODE:NOROOT(0)
//   23 void Ds18b20InputInitial(void)//设置端口为输入
Ds18b20InputInitial:
          CFI Block cfiBlock1 Using cfiCommon0
          CFI Function Ds18b20InputInitial
        CODE
//   24 {
        ; Saved register size: 0
        ; Auto size: 0
//   25     P0DIR &= 0xDF;//P05
        ANL     0xfd,#0xdf
//   26 }
        LJMP    ?BRET
          CFI EndBlock cfiBlock1
        REQUIRE P0DIR
//   27 

        RSEG BANKED_CODE:CODE:NOROOT(0)
//   28 void Ds18b20OutputInitial(void)//设置端口为输出
Ds18b20OutputInitial:
          CFI Block cfiBlock2 Using cfiCommon0
          CFI Function Ds18b20OutputInitial
        CODE
//   29 {
        ; Saved register size: 0
        ; Auto size: 0
//   30     P0DIR |= 0x20;
        ORL     0xfd,#0x20
//   31 }
        LJMP    ?BRET
          CFI EndBlock cfiBlock2
        REQUIRE P0DIR
//   32 
//   33 //ds18b20初始化  初始化成功返回0x00，失败返回0x01

        RSEG BANKED_CODE:CODE:NOROOT(0)
//   34 unsigned char Ds18b20Initial(void)
Ds18b20Initial:
          CFI Block cfiBlock3 Using cfiCommon0
          CFI Function Ds18b20Initial
        CODE
//   35 {
        FUNCALL Ds18b20Initial, Ds18b20OutputInitial
        LOCFRAME ISTACK, 0, STACK
        LOCFRAME PSTACK, 0, STACK
        LOCFRAME XSTACK, 10, STACK
        LOCFRAME IOVERLAY, 0, STATIC
        LOCFRAME DOVERLAY, 0, STATIC
        ARGFRAME ISTACK, 0, STACK
        ARGFRAME PSTACK, 0, STACK
        ARGFRAME XSTACK, 10, STACK
        ARGFRAME IOVERLAY, 0, STATIC
        ARGFRAME DOVERLAY, 0, STATIC
        FUNCALL Ds18b20Initial, DS18B20Delay_us
        LOCFRAME ISTACK, 0, STACK
        LOCFRAME PSTACK, 0, STACK
        LOCFRAME XSTACK, 10, STACK
        LOCFRAME IOVERLAY, 0, STATIC
        LOCFRAME DOVERLAY, 0, STATIC
        ARGFRAME ISTACK, 0, STACK
        ARGFRAME PSTACK, 0, STACK
        ARGFRAME XSTACK, 10, STACK
        ARGFRAME IOVERLAY, 0, STATIC
        ARGFRAME DOVERLAY, 0, STATIC
        FUNCALL Ds18b20Initial, Ds18b20InputInitial
        LOCFRAME ISTACK, 0, STACK
        LOCFRAME PSTACK, 0, STACK
        LOCFRAME XSTACK, 10, STACK
        LOCFRAME IOVERLAY, 0, STATIC
        LOCFRAME DOVERLAY, 0, STATIC
        ARGFRAME ISTACK, 0, STACK
        ARGFRAME PSTACK, 0, STACK
        ARGFRAME XSTACK, 10, STACK
        ARGFRAME IOVERLAY, 0, STATIC
        ARGFRAME DOVERLAY, 0, STATIC
        FUNCALL Ds18b20Initial, DS18B20Delay_us
        LOCFRAME ISTACK, 0, STACK
        LOCFRAME PSTACK, 0, STACK
        LOCFRAME XSTACK, 10, STACK
        LOCFRAME IOVERLAY, 0, STATIC
        LOCFRAME DOVERLAY, 0, STATIC
        ARGFRAME ISTACK, 0, STACK
        ARGFRAME PSTACK, 0, STACK
        ARGFRAME XSTACK, 10, STACK
        ARGFRAME IOVERLAY, 0, STATIC
        ARGFRAME DOVERLAY, 0, STATIC
        FUNCALL Ds18b20Initial, Ds18b20OutputInitial
        LOCFRAME ISTACK, 0, STACK
        LOCFRAME PSTACK, 0, STACK
        LOCFRAME XSTACK, 10, STACK
        LOCFRAME IOVERLAY, 0, STATIC
        LOCFRAME DOVERLAY, 0, STATIC
        ARGFRAME ISTACK, 0, STACK
        ARGFRAME PSTACK, 0, STACK
        ARGFRAME XSTACK, 10, STACK
        ARGFRAME IOVERLAY, 0, STATIC
        ARGFRAME DOVERLAY, 0, STATIC
        FUNCALL Ds18b20Initial, DS18B20Delay_us
        LOCFRAME ISTACK, 0, STACK
        LOCFRAME PSTACK, 0, STACK
        LOCFRAME XSTACK, 10, STACK
        LOCFRAME IOVERLAY, 0, STATIC
        LOCFRAME DOVERLAY, 0, STATIC
        ARGFRAME ISTACK, 0, STACK
        ARGFRAME PSTACK, 0, STACK
        ARGFRAME XSTACK, 10, STACK
        ARGFRAME IOVERLAY, 0, STATIC
        ARGFRAME DOVERLAY, 0, STATIC
        REQUIRE ?V0
        REQUIRE ?V1
        MOV     A,#-0xa
        LCALL   ?BANKED_ENTER_XDATA
          CFI DPH0 load(1, XDATA, add(CFA_XSP16, literal(-1)))
          CFI DPL0 load(1, XDATA, add(CFA_XSP16, literal(-2)))
          CFI ?BRET_EXT load(1, XDATA, add(CFA_XSP16, literal(-3)))
          CFI ?RET_HIGH load(1, XDATA, add(CFA_XSP16, literal(-4)))
          CFI ?RET_LOW load(1, XDATA, add(CFA_XSP16, literal(-5)))
          CFI R7 load(1, XDATA, add(CFA_XSP16, literal(-6)))
          CFI V1 load(1, XDATA, add(CFA_XSP16, literal(-7)))
          CFI V0 load(1, XDATA, add(CFA_XSP16, literal(-8)))
          CFI VB load(1, XDATA, add(CFA_XSP16, literal(-9)))
          CFI R6 load(1, XDATA, add(CFA_XSP16, literal(-10)))
          CFI CFA_SP SP+0
          CFI CFA_XSP16 add(XSP16, 10)
        ; Saved register size: 10
        ; Auto size: 0
//   36     unsigned char Status = 0x00;
        MOV     ?V0,#0x0
//   37     unsigned int count = 0;
        MOV     R6,#0x0
        MOV     R7,#0x0
//   38     unsigned char Flag_1 = 0;
        MOV     ?V1,#0x0
//   39     Ds18b20OutputInitial();
        ; Setup parameters for call to function Ds18b20OutputInitial
        LCALL   `??Ds18b20OutputInitial::?relay`; Banked call to: Ds18b20OutputInitial
//   40     //Ds18b20IO = 1;      //DQ复位
//   41     //DS18B20Delay_us(260);  //稍做延时
//   42     Ds18b20IO = 0;      //单片机将DQ拉低
        CLR     0x80.5
//   43     DS18B20Delay_us(750);  //精确延时 大于 480us 小于960us
        ; Setup parameters for call to function DS18B20Delay_us
        MOV     R2,#-0x12
        MOV     R3,#0x2
        LCALL   `??DS18B20Delay_us::?relay`; Banked call to: DS18B20Delay_us
//   44     Ds18b20IO = 1;      //拉高释放总线
        SETB    0x80.5
//   45     Ds18b20InputInitial();//设置IO为输入
        ; Setup parameters for call to function Ds18b20InputInitial
        LCALL   `??Ds18b20InputInitial::?relay`; Banked call to: Ds18b20InputInitial
//   46     while((Ds18b20IO != 0)&&(Flag_1 == 0))//等待ds18b20响应
??Ds18b20Initial_0:
        MOV     C,0x80.5
        JNC     ??Ds18b20Initial_1
        MOV     A,?V1
        JNZ     ??Ds18b20Initial_1
//   47     {
//   48         count++;
        INC     R6
        MOV     A,R6
        JNZ     ??Ds18b20Initial_2
        INC     R7
//   49         DS18B20Delay_us(10);
??Ds18b20Initial_2:
        ; Setup parameters for call to function DS18B20Delay_us
        MOV     R2,#0xa
        MOV     R3,#0x0
        LCALL   `??DS18B20Delay_us::?relay`; Banked call to: DS18B20Delay_us
//   50         if(count > 8000) //300us超时，ds18b20内部处理约60us,响应信号时长60-240us
        CLR     C
        MOV     A,R6
        SUBB    A,#0x41
        MOV     A,R7
        SUBB    A,#0x1f
        JC      ??Ds18b20Initial_3
//   51           Flag_1 = 1;
        MOV     ?V1,#0x1
//   52         Status = Ds18b20IO; //0表示ds18b20响应拉低总线
??Ds18b20Initial_3:
        MOV     C,0x80.5
        CLR     A
        RLC     A
        MOV     ?V0,A
        SJMP    ??Ds18b20Initial_0
//   53     }
//   54     Ds18b20OutputInitial();
??Ds18b20Initial_1:
        ; Setup parameters for call to function Ds18b20OutputInitial
        LCALL   `??Ds18b20OutputInitial::?relay`; Banked call to: Ds18b20OutputInitial
//   55     Ds18b20IO = 1;
        SETB    0x80.5
//   56     DS18B20Delay_us(100);
        ; Setup parameters for call to function DS18B20Delay_us
        MOV     R2,#0x64
        MOV     R3,#0x0
        LCALL   `??DS18B20Delay_us::?relay`; Banked call to: DS18B20Delay_us
//   57     return Status;       //返回初始化状态
        MOV     R1,?V0
        MOV     R7,#0x2
        LJMP    ?BANKED_LEAVE_XDATA
          CFI EndBlock cfiBlock3
        REQUIRE _A_P0
//   58 }
//   59 

        RSEG BANKED_CODE:CODE:NOROOT(0)
//   60 void Ds18b20Write(unsigned char infor)
Ds18b20Write:
          CFI Block cfiBlock4 Using cfiCommon0
          CFI Function Ds18b20Write
        CODE
//   61 {
        FUNCALL Ds18b20Write, Ds18b20OutputInitial
        LOCFRAME ISTACK, 0, STACK
        LOCFRAME PSTACK, 0, STACK
        LOCFRAME XSTACK, 9, STACK
        LOCFRAME IOVERLAY, 0, STATIC
        LOCFRAME DOVERLAY, 0, STATIC
        ARGFRAME ISTACK, 0, STACK
        ARGFRAME PSTACK, 0, STACK
        ARGFRAME XSTACK, 9, STACK
        ARGFRAME IOVERLAY, 0, STATIC
        ARGFRAME DOVERLAY, 0, STATIC
        FUNCALL Ds18b20Write, DS18B20Delay_us
        LOCFRAME ISTACK, 0, STACK
        LOCFRAME PSTACK, 0, STACK
        LOCFRAME XSTACK, 9, STACK
        LOCFRAME IOVERLAY, 0, STATIC
        LOCFRAME DOVERLAY, 0, STATIC
        ARGFRAME ISTACK, 0, STACK
        ARGFRAME PSTACK, 0, STACK
        ARGFRAME XSTACK, 9, STACK
        ARGFRAME IOVERLAY, 0, STATIC
        ARGFRAME DOVERLAY, 0, STATIC
        FUNCALL Ds18b20Write, DS18B20Delay_us
        LOCFRAME ISTACK, 0, STACK
        LOCFRAME PSTACK, 0, STACK
        LOCFRAME XSTACK, 9, STACK
        LOCFRAME IOVERLAY, 0, STATIC
        LOCFRAME DOVERLAY, 0, STATIC
        ARGFRAME ISTACK, 0, STACK
        ARGFRAME PSTACK, 0, STACK
        ARGFRAME XSTACK, 9, STACK
        ARGFRAME IOVERLAY, 0, STATIC
        ARGFRAME DOVERLAY, 0, STATIC
        FUNCALL Ds18b20Write, DS18B20Delay_us
        LOCFRAME ISTACK, 0, STACK
        LOCFRAME PSTACK, 0, STACK
        LOCFRAME XSTACK, 9, STACK
        LOCFRAME IOVERLAY, 0, STATIC
        LOCFRAME DOVERLAY, 0, STATIC
        ARGFRAME ISTACK, 0, STACK
        ARGFRAME PSTACK, 0, STACK
        ARGFRAME XSTACK, 9, STACK
        ARGFRAME IOVERLAY, 0, STATIC
        ARGFRAME DOVERLAY, 0, STATIC
        FUNCALL Ds18b20Write, DS18B20Delay_us
        LOCFRAME ISTACK, 0, STACK
        LOCFRAME PSTACK, 0, STACK
        LOCFRAME XSTACK, 9, STACK
        LOCFRAME IOVERLAY, 0, STATIC
        LOCFRAME DOVERLAY, 0, STATIC
        ARGFRAME ISTACK, 0, STACK
        ARGFRAME PSTACK, 0, STACK
        ARGFRAME XSTACK, 9, STACK
        ARGFRAME IOVERLAY, 0, STATIC
        ARGFRAME DOVERLAY, 0, STATIC
        FUNCALL Ds18b20Write, DS18B20Delay_us
        LOCFRAME ISTACK, 0, STACK
        LOCFRAME PSTACK, 0, STACK
        LOCFRAME XSTACK, 9, STACK
        LOCFRAME IOVERLAY, 0, STATIC
        LOCFRAME DOVERLAY, 0, STATIC
        ARGFRAME ISTACK, 0, STACK
        ARGFRAME PSTACK, 0, STACK
        ARGFRAME XSTACK, 9, STACK
        ARGFRAME IOVERLAY, 0, STATIC
        ARGFRAME DOVERLAY, 0, STATIC
        REQUIRE ?V0
        MOV     A,#-0x9
        LCALL   ?BANKED_ENTER_XDATA
          CFI DPH0 load(1, XDATA, add(CFA_XSP16, literal(-1)))
          CFI DPL0 load(1, XDATA, add(CFA_XSP16, literal(-2)))
          CFI ?BRET_EXT load(1, XDATA, add(CFA_XSP16, literal(-3)))
          CFI ?RET_HIGH load(1, XDATA, add(CFA_XSP16, literal(-4)))
          CFI ?RET_LOW load(1, XDATA, add(CFA_XSP16, literal(-5)))
          CFI R7 load(1, XDATA, add(CFA_XSP16, literal(-6)))
          CFI V0 load(1, XDATA, add(CFA_XSP16, literal(-7)))
          CFI VB load(1, XDATA, add(CFA_XSP16, literal(-8)))
          CFI R6 load(1, XDATA, add(CFA_XSP16, literal(-9)))
          CFI CFA_SP SP+0
          CFI CFA_XSP16 add(XSP16, 9)
        ; Saved register size: 9
        ; Auto size: 0
        MOV     ?V0,R1
//   62     unsigned int i;
//   63     Ds18b20OutputInitial();
        ; Setup parameters for call to function Ds18b20OutputInitial
        LCALL   `??Ds18b20OutputInitial::?relay`; Banked call to: Ds18b20OutputInitial
//   64     for(i=0;i<8;i++)
        MOV     R6,#0x0
        MOV     R7,#0x0
??Ds18b20Write_0:
        CLR     C
        MOV     A,R6
        SUBB    A,#0x8
        MOV     A,R7
        SUBB    A,#0x0
        JNC     ??Ds18b20Write_1
//   65     {
//   66         if((infor & 0x01))
        MOV     A,?V0
        MOV     C,0xE0 /* A   */.0
        JNC     ??Ds18b20Write_2
//   67         {
//   68             Ds18b20IO = 0;
        CLR     0x80.5
//   69             DS18B20Delay_us(1);
        ; Setup parameters for call to function DS18B20Delay_us
        MOV     R2,#0x1
        MOV     R3,#0x0
        LCALL   `??DS18B20Delay_us::?relay`; Banked call to: DS18B20Delay_us
//   70             Ds18b20IO = 1;
        SETB    0x80.5
//   71             DS18B20Delay_us(60);
        ; Setup parameters for call to function DS18B20Delay_us
        MOV     R2,#0x3c
        MOV     R3,#0x0
        LCALL   `??DS18B20Delay_us::?relay`; Banked call to: DS18B20Delay_us
        SJMP    ??Ds18b20Write_3
//   72         }
//   73         else
//   74         {
//   75             Ds18b20IO = 0;
??Ds18b20Write_2:
        CLR     0x80.5
//   76             DS18B20Delay_us(1);
        ; Setup parameters for call to function DS18B20Delay_us
        MOV     R2,#0x1
        MOV     R3,#0x0
        LCALL   `??DS18B20Delay_us::?relay`; Banked call to: DS18B20Delay_us
//   77             DS18B20Delay_us(60);
        ; Setup parameters for call to function DS18B20Delay_us
        MOV     R2,#0x3c
        MOV     R3,#0x0
        LCALL   `??DS18B20Delay_us::?relay`; Banked call to: DS18B20Delay_us
//   78             Ds18b20IO = 1;
        SETB    0x80.5
//   79             DS18B20Delay_us(1);
        ; Setup parameters for call to function DS18B20Delay_us
        MOV     R2,#0x1
        MOV     R3,#0x0
        LCALL   `??DS18B20Delay_us::?relay`; Banked call to: DS18B20Delay_us
//   80         }
//   81         infor >>= 1;
??Ds18b20Write_3:
        MOV     A,?V0
        CLR     C
        RRC     A
        MOV     ?V0,A
//   82     }
        INC     R6
        MOV     A,R6
        JNZ     ??Ds18b20Write_0
        INC     R7
        SJMP    ??Ds18b20Write_0
//   83 }
??Ds18b20Write_1:
        MOV     R7,#0x1
        LJMP    ?BANKED_LEAVE_XDATA
          CFI EndBlock cfiBlock4
        REQUIRE _A_P0
//   84 

        RSEG BANKED_CODE:CODE:NOROOT(0)
//   85 unsigned char Ds18b20Read(void)
Ds18b20Read:
          CFI Block cfiBlock5 Using cfiCommon0
          CFI Function Ds18b20Read
        CODE
//   86 {
        FUNCALL Ds18b20Read, Ds18b20OutputInitial
        LOCFRAME ISTACK, 0, STACK
        LOCFRAME PSTACK, 0, STACK
        LOCFRAME XSTACK, 9, STACK
        LOCFRAME IOVERLAY, 0, STATIC
        LOCFRAME DOVERLAY, 0, STATIC
        ARGFRAME ISTACK, 0, STACK
        ARGFRAME PSTACK, 0, STACK
        ARGFRAME XSTACK, 9, STACK
        ARGFRAME IOVERLAY, 0, STATIC
        ARGFRAME DOVERLAY, 0, STATIC
        FUNCALL Ds18b20Read, DS18B20Delay_us
        LOCFRAME ISTACK, 0, STACK
        LOCFRAME PSTACK, 0, STACK
        LOCFRAME XSTACK, 9, STACK
        LOCFRAME IOVERLAY, 0, STATIC
        LOCFRAME DOVERLAY, 0, STATIC
        ARGFRAME ISTACK, 0, STACK
        ARGFRAME PSTACK, 0, STACK
        ARGFRAME XSTACK, 9, STACK
        ARGFRAME IOVERLAY, 0, STATIC
        ARGFRAME DOVERLAY, 0, STATIC
        FUNCALL Ds18b20Read, Ds18b20InputInitial
        LOCFRAME ISTACK, 0, STACK
        LOCFRAME PSTACK, 0, STACK
        LOCFRAME XSTACK, 9, STACK
        LOCFRAME IOVERLAY, 0, STATIC
        LOCFRAME DOVERLAY, 0, STATIC
        ARGFRAME ISTACK, 0, STACK
        ARGFRAME PSTACK, 0, STACK
        ARGFRAME XSTACK, 9, STACK
        ARGFRAME IOVERLAY, 0, STATIC
        ARGFRAME DOVERLAY, 0, STATIC
        FUNCALL Ds18b20Read, DS18B20Delay_us
        LOCFRAME ISTACK, 0, STACK
        LOCFRAME PSTACK, 0, STACK
        LOCFRAME XSTACK, 9, STACK
        LOCFRAME IOVERLAY, 0, STATIC
        LOCFRAME DOVERLAY, 0, STATIC
        ARGFRAME ISTACK, 0, STACK
        ARGFRAME PSTACK, 0, STACK
        ARGFRAME XSTACK, 9, STACK
        ARGFRAME IOVERLAY, 0, STATIC
        ARGFRAME DOVERLAY, 0, STATIC
        REQUIRE ?V0
        MOV     A,#-0x9
        LCALL   ?BANKED_ENTER_XDATA
          CFI DPH0 load(1, XDATA, add(CFA_XSP16, literal(-1)))
          CFI DPL0 load(1, XDATA, add(CFA_XSP16, literal(-2)))
          CFI ?BRET_EXT load(1, XDATA, add(CFA_XSP16, literal(-3)))
          CFI ?RET_HIGH load(1, XDATA, add(CFA_XSP16, literal(-4)))
          CFI ?RET_LOW load(1, XDATA, add(CFA_XSP16, literal(-5)))
          CFI R7 load(1, XDATA, add(CFA_XSP16, literal(-6)))
          CFI V0 load(1, XDATA, add(CFA_XSP16, literal(-7)))
          CFI VB load(1, XDATA, add(CFA_XSP16, literal(-8)))
          CFI R6 load(1, XDATA, add(CFA_XSP16, literal(-9)))
          CFI CFA_SP SP+0
          CFI CFA_XSP16 add(XSP16, 9)
        ; Saved register size: 9
        ; Auto size: 0
//   87     unsigned char Value = 0x00;
        MOV     ?V0,#0x0
//   88     unsigned int i;
//   89     
//   90     for(i=0;i<8;i++)
        MOV     R6,#0x0
        MOV     R7,#0x0
??Ds18b20Read_0:
        CLR     C
        MOV     A,R6
        SUBB    A,#0x8
        MOV     A,R7
        SUBB    A,#0x0
        JNC     ??Ds18b20Read_1
//   91     {   
//   92         Ds18b20OutputInitial();
        ; Setup parameters for call to function Ds18b20OutputInitial
        LCALL   `??Ds18b20OutputInitial::?relay`; Banked call to: Ds18b20OutputInitial
//   93         Ds18b20IO = 0;      //发出读信号
        CLR     0x80.5
//   94         DS18B20Delay_us(1); //读信号维持时间
        ; Setup parameters for call to function DS18B20Delay_us
        MOV     R2,#0x1
        MOV     R3,#0x0
        LCALL   `??DS18B20Delay_us::?relay`; Banked call to: DS18B20Delay_us
//   95         Ds18b20IO = 1;      //释放总线
        SETB    0x80.5
//   96         Ds18b20InputInitial();
        ; Setup parameters for call to function Ds18b20InputInitial
        LCALL   `??Ds18b20InputInitial::?relay`; Banked call to: Ds18b20InputInitial
//   97         
//   98         Value >>= 1;
        MOV     A,?V0
        CLR     C
        RRC     A
        MOV     ?V0,A
//   99         if(Ds18b20IO == 1)
        MOV     C,0x80.5
        JNC     ??Ds18b20Read_2
//  100         {
//  101           Value |=0x80;
        SETB    C
        MOV     A,?V0
        MOV     0xE0 /* A   */.7,C
        MOV     ?V0,A
//  102         }
//  103         else
//  104         {
//  105           Value |=0x00;
//  106         }
//  107         DS18B20Delay_us(15);
??Ds18b20Read_2:
        ; Setup parameters for call to function DS18B20Delay_us
        MOV     R2,#0xf
        MOV     R3,#0x0
        LCALL   `??DS18B20Delay_us::?relay`; Banked call to: DS18B20Delay_us
//  108     } 
        INC     R6
        MOV     A,R6
        JNZ     ??Ds18b20Read_0
        INC     R7
        SJMP    ??Ds18b20Read_0
//  109     return Value;
??Ds18b20Read_1:
        MOV     R1,?V0
        MOV     R7,#0x1
        LJMP    ?BANKED_LEAVE_XDATA
          CFI EndBlock cfiBlock5
        REQUIRE _A_P0
//  110 }
//  111 
//  112 //温度读取函数

        RSEG BANKED_CODE:CODE:NOROOT(0)
//  113 unsigned char ReadDs18B20(void) 
ReadDs18B20:
          CFI Block cfiBlock6 Using cfiCommon0
          CFI Function ReadDs18B20
        CODE
//  114 {
        FUNCALL ReadDs18B20, Ds18b20Initial
        LOCFRAME ISTACK, 0, STACK
        LOCFRAME PSTACK, 0, STACK
        LOCFRAME XSTACK, 9, STACK
        LOCFRAME IOVERLAY, 0, STATIC
        LOCFRAME DOVERLAY, 0, STATIC
        ARGFRAME ISTACK, 0, STACK
        ARGFRAME PSTACK, 0, STACK
        ARGFRAME XSTACK, 9, STACK
        ARGFRAME IOVERLAY, 0, STATIC
        ARGFRAME DOVERLAY, 0, STATIC
        FUNCALL ReadDs18B20, Ds18b20Write
        LOCFRAME ISTACK, 0, STACK
        LOCFRAME PSTACK, 0, STACK
        LOCFRAME XSTACK, 9, STACK
        LOCFRAME IOVERLAY, 0, STATIC
        LOCFRAME DOVERLAY, 0, STATIC
        ARGFRAME ISTACK, 0, STACK
        ARGFRAME PSTACK, 0, STACK
        ARGFRAME XSTACK, 9, STACK
        ARGFRAME IOVERLAY, 0, STATIC
        ARGFRAME DOVERLAY, 0, STATIC
        FUNCALL ReadDs18B20, Ds18b20Write
        LOCFRAME ISTACK, 0, STACK
        LOCFRAME PSTACK, 0, STACK
        LOCFRAME XSTACK, 9, STACK
        LOCFRAME IOVERLAY, 0, STATIC
        LOCFRAME DOVERLAY, 0, STATIC
        ARGFRAME ISTACK, 0, STACK
        ARGFRAME PSTACK, 0, STACK
        ARGFRAME XSTACK, 9, STACK
        ARGFRAME IOVERLAY, 0, STATIC
        ARGFRAME DOVERLAY, 0, STATIC
        FUNCALL ReadDs18B20, Ds18b20Initial
        LOCFRAME ISTACK, 0, STACK
        LOCFRAME PSTACK, 0, STACK
        LOCFRAME XSTACK, 9, STACK
        LOCFRAME IOVERLAY, 0, STATIC
        LOCFRAME DOVERLAY, 0, STATIC
        ARGFRAME ISTACK, 0, STACK
        ARGFRAME PSTACK, 0, STACK
        ARGFRAME XSTACK, 9, STACK
        ARGFRAME IOVERLAY, 0, STATIC
        ARGFRAME DOVERLAY, 0, STATIC
        FUNCALL ReadDs18B20, Ds18b20Write
        LOCFRAME ISTACK, 0, STACK
        LOCFRAME PSTACK, 0, STACK
        LOCFRAME XSTACK, 9, STACK
        LOCFRAME IOVERLAY, 0, STATIC
        LOCFRAME DOVERLAY, 0, STATIC
        ARGFRAME ISTACK, 0, STACK
        ARGFRAME PSTACK, 0, STACK
        ARGFRAME XSTACK, 9, STACK
        ARGFRAME IOVERLAY, 0, STATIC
        ARGFRAME DOVERLAY, 0, STATIC
        FUNCALL ReadDs18B20, Ds18b20Write
        LOCFRAME ISTACK, 0, STACK
        LOCFRAME PSTACK, 0, STACK
        LOCFRAME XSTACK, 9, STACK
        LOCFRAME IOVERLAY, 0, STATIC
        LOCFRAME DOVERLAY, 0, STATIC
        ARGFRAME ISTACK, 0, STACK
        ARGFRAME PSTACK, 0, STACK
        ARGFRAME XSTACK, 9, STACK
        ARGFRAME IOVERLAY, 0, STATIC
        ARGFRAME DOVERLAY, 0, STATIC
        FUNCALL ReadDs18B20, Ds18b20Read
        LOCFRAME ISTACK, 0, STACK
        LOCFRAME PSTACK, 0, STACK
        LOCFRAME XSTACK, 9, STACK
        LOCFRAME IOVERLAY, 0, STATIC
        LOCFRAME DOVERLAY, 0, STATIC
        ARGFRAME ISTACK, 0, STACK
        ARGFRAME PSTACK, 0, STACK
        ARGFRAME XSTACK, 9, STACK
        ARGFRAME IOVERLAY, 0, STATIC
        ARGFRAME DOVERLAY, 0, STATIC
        FUNCALL ReadDs18B20, Ds18b20Read
        LOCFRAME ISTACK, 0, STACK
        LOCFRAME PSTACK, 0, STACK
        LOCFRAME XSTACK, 9, STACK
        LOCFRAME IOVERLAY, 0, STATIC
        LOCFRAME DOVERLAY, 0, STATIC
        ARGFRAME ISTACK, 0, STACK
        ARGFRAME PSTACK, 0, STACK
        ARGFRAME XSTACK, 9, STACK
        ARGFRAME IOVERLAY, 0, STATIC
        ARGFRAME DOVERLAY, 0, STATIC
        REQUIRE ?V0
        MOV     A,#-0x9
        LCALL   ?BANKED_ENTER_XDATA
          CFI DPH0 load(1, XDATA, add(CFA_XSP16, literal(-1)))
          CFI DPL0 load(1, XDATA, add(CFA_XSP16, literal(-2)))
          CFI ?BRET_EXT load(1, XDATA, add(CFA_XSP16, literal(-3)))
          CFI ?RET_HIGH load(1, XDATA, add(CFA_XSP16, literal(-4)))
          CFI ?RET_LOW load(1, XDATA, add(CFA_XSP16, literal(-5)))
          CFI R7 load(1, XDATA, add(CFA_XSP16, literal(-6)))
          CFI V0 load(1, XDATA, add(CFA_XSP16, literal(-7)))
          CFI VB load(1, XDATA, add(CFA_XSP16, literal(-8)))
          CFI R6 load(1, XDATA, add(CFA_XSP16, literal(-9)))
          CFI CFA_SP SP+0
          CFI CFA_XSP16 add(XSP16, 9)
        ; Saved register size: 9
        ; Auto size: 0
//  115     unsigned char V1,V2;   //定义高低8位 缓冲
//  116     unsigned char temp;    //定义温度缓冲寄存器
//  117     
//  118     Ds18b20Initial();
        ; Setup parameters for call to function Ds18b20Initial
        LCALL   `??Ds18b20Initial::?relay`; Banked call to: Ds18b20Initial
        MOV     A,R1
//  119     Ds18b20Write(0xcc);    // 跳过读序号列号的操作
        ; Setup parameters for call to function Ds18b20Write
        MOV     R1,#-0x34
        LCALL   `??Ds18b20Write::?relay`; Banked call to: Ds18b20Write
//  120     Ds18b20Write(0x44);    // 启动温度转换
        ; Setup parameters for call to function Ds18b20Write
        MOV     R1,#0x44
        LCALL   `??Ds18b20Write::?relay`; Banked call to: Ds18b20Write
//  121     
//  122     Ds18b20Initial();
        ; Setup parameters for call to function Ds18b20Initial
        LCALL   `??Ds18b20Initial::?relay`; Banked call to: Ds18b20Initial
        MOV     A,R1
//  123     Ds18b20Write(0xcc);    //跳过读序号列号的操作 
        ; Setup parameters for call to function Ds18b20Write
        MOV     R1,#-0x34
        LCALL   `??Ds18b20Write::?relay`; Banked call to: Ds18b20Write
//  124     Ds18b20Write(0xbe);    //读取温度寄存器等（共可读9个寄存器） 前两个就是温度
        ; Setup parameters for call to function Ds18b20Write
        MOV     R1,#-0x42
        LCALL   `??Ds18b20Write::?relay`; Banked call to: Ds18b20Write
//  125     
//  126     V1 = Ds18b20Read();    //低位
        ; Setup parameters for call to function Ds18b20Read
        LCALL   `??Ds18b20Read::?relay`; Banked call to: Ds18b20Read
        MOV     A,R1
        MOV     ?V0,A
//  127     V2 = Ds18b20Read();    //高位
        ; Setup parameters for call to function Ds18b20Read
        LCALL   `??Ds18b20Read::?relay`; Banked call to: Ds18b20Read
        MOV     A,R1
        MOV     R7,A
//  128     temp = ((V1 >> 4)+((V2 & 0x07)*16)); //转换数据 
        MOV     B,#0x10
        MOV     A,#0x7
        ANL     A,R7
        MUL     AB
        MOV     R0,A
        MOV     A,?V0
        SWAP    A
        ANL     A,#0xf
        ADD     A,R0
        MOV     R6,A
//  129 
//  130     return temp;
        MOV     A,R6
        MOV     R1,A
        MOV     R7,#0x1
        LJMP    ?BANKED_LEAVE_XDATA
//  131 }
          CFI EndBlock cfiBlock6
//  132 
//  133 //温度读取函数 带1位小数位

        RSEG BANKED_CODE:CODE:NOROOT(0)
//  134 unsigned char Ds18B20_Readfloat(unsigned char *buf)
Ds18B20_Readfloat:
          CFI Block cfiBlock7 Using cfiCommon0
          CFI Function Ds18B20_Readfloat
        CODE
//  135 {
        FUNCALL Ds18B20_Readfloat, Ds18b20Initial
        LOCFRAME ISTACK, 0, STACK
        LOCFRAME PSTACK, 0, STACK
        LOCFRAME XSTACK, 28, STACK
        LOCFRAME IOVERLAY, 0, STATIC
        LOCFRAME DOVERLAY, 0, STATIC
        ARGFRAME ISTACK, 0, STACK
        ARGFRAME PSTACK, 0, STACK
        ARGFRAME XSTACK, 28, STACK
        ARGFRAME IOVERLAY, 0, STATIC
        ARGFRAME DOVERLAY, 0, STATIC
        FUNCALL Ds18B20_Readfloat, Ds18b20Write
        LOCFRAME ISTACK, 0, STACK
        LOCFRAME PSTACK, 0, STACK
        LOCFRAME XSTACK, 28, STACK
        LOCFRAME IOVERLAY, 0, STATIC
        LOCFRAME DOVERLAY, 0, STATIC
        ARGFRAME ISTACK, 0, STACK
        ARGFRAME PSTACK, 0, STACK
        ARGFRAME XSTACK, 28, STACK
        ARGFRAME IOVERLAY, 0, STATIC
        ARGFRAME DOVERLAY, 0, STATIC
        FUNCALL Ds18B20_Readfloat, Ds18b20Write
        LOCFRAME ISTACK, 0, STACK
        LOCFRAME PSTACK, 0, STACK
        LOCFRAME XSTACK, 28, STACK
        LOCFRAME IOVERLAY, 0, STATIC
        LOCFRAME DOVERLAY, 0, STATIC
        ARGFRAME ISTACK, 0, STACK
        ARGFRAME PSTACK, 0, STACK
        ARGFRAME XSTACK, 28, STACK
        ARGFRAME IOVERLAY, 0, STATIC
        ARGFRAME DOVERLAY, 0, STATIC
        FUNCALL Ds18B20_Readfloat, Ds18b20Initial
        LOCFRAME ISTACK, 0, STACK
        LOCFRAME PSTACK, 0, STACK
        LOCFRAME XSTACK, 28, STACK
        LOCFRAME IOVERLAY, 0, STATIC
        LOCFRAME DOVERLAY, 0, STATIC
        ARGFRAME ISTACK, 0, STACK
        ARGFRAME PSTACK, 0, STACK
        ARGFRAME XSTACK, 28, STACK
        ARGFRAME IOVERLAY, 0, STATIC
        ARGFRAME DOVERLAY, 0, STATIC
        FUNCALL Ds18B20_Readfloat, Ds18b20Write
        LOCFRAME ISTACK, 0, STACK
        LOCFRAME PSTACK, 0, STACK
        LOCFRAME XSTACK, 28, STACK
        LOCFRAME IOVERLAY, 0, STATIC
        LOCFRAME DOVERLAY, 0, STATIC
        ARGFRAME ISTACK, 0, STACK
        ARGFRAME PSTACK, 0, STACK
        ARGFRAME XSTACK, 28, STACK
        ARGFRAME IOVERLAY, 0, STATIC
        ARGFRAME DOVERLAY, 0, STATIC
        FUNCALL Ds18B20_Readfloat, Ds18b20Write
        LOCFRAME ISTACK, 0, STACK
        LOCFRAME PSTACK, 0, STACK
        LOCFRAME XSTACK, 28, STACK
        LOCFRAME IOVERLAY, 0, STATIC
        LOCFRAME DOVERLAY, 0, STATIC
        ARGFRAME ISTACK, 0, STACK
        ARGFRAME PSTACK, 0, STACK
        ARGFRAME XSTACK, 28, STACK
        ARGFRAME IOVERLAY, 0, STATIC
        ARGFRAME DOVERLAY, 0, STATIC
        FUNCALL Ds18B20_Readfloat, Ds18b20Read
        LOCFRAME ISTACK, 0, STACK
        LOCFRAME PSTACK, 0, STACK
        LOCFRAME XSTACK, 28, STACK
        LOCFRAME IOVERLAY, 0, STATIC
        LOCFRAME DOVERLAY, 0, STATIC
        ARGFRAME ISTACK, 0, STACK
        ARGFRAME PSTACK, 0, STACK
        ARGFRAME XSTACK, 28, STACK
        ARGFRAME IOVERLAY, 0, STATIC
        ARGFRAME DOVERLAY, 0, STATIC
        FUNCALL Ds18B20_Readfloat, Ds18b20Read
        LOCFRAME ISTACK, 0, STACK
        LOCFRAME PSTACK, 0, STACK
        LOCFRAME XSTACK, 28, STACK
        LOCFRAME IOVERLAY, 0, STATIC
        LOCFRAME DOVERLAY, 0, STATIC
        ARGFRAME ISTACK, 0, STACK
        ARGFRAME PSTACK, 0, STACK
        ARGFRAME XSTACK, 28, STACK
        ARGFRAME IOVERLAY, 0, STATIC
        ARGFRAME DOVERLAY, 0, STATIC
        REQUIRE ?V0
        REQUIRE ?V1
        REQUIRE ?V2
        REQUIRE ?V3
        REQUIRE ?V4
        REQUIRE ?V5
        REQUIRE ?V6
        REQUIRE ?V7
        MOV     A,#-0x10
        LCALL   ?BANKED_ENTER_XDATA
          CFI DPH0 load(1, XDATA, add(CFA_XSP16, literal(-1)))
          CFI DPL0 load(1, XDATA, add(CFA_XSP16, literal(-2)))
          CFI ?BRET_EXT load(1, XDATA, add(CFA_XSP16, literal(-3)))
          CFI ?RET_HIGH load(1, XDATA, add(CFA_XSP16, literal(-4)))
          CFI ?RET_LOW load(1, XDATA, add(CFA_XSP16, literal(-5)))
          CFI R7 load(1, XDATA, add(CFA_XSP16, literal(-6)))
          CFI V7 load(1, XDATA, add(CFA_XSP16, literal(-7)))
          CFI V6 load(1, XDATA, add(CFA_XSP16, literal(-8)))
          CFI V5 load(1, XDATA, add(CFA_XSP16, literal(-9)))
          CFI V4 load(1, XDATA, add(CFA_XSP16, literal(-10)))
          CFI V3 load(1, XDATA, add(CFA_XSP16, literal(-11)))
          CFI V2 load(1, XDATA, add(CFA_XSP16, literal(-12)))
          CFI V1 load(1, XDATA, add(CFA_XSP16, literal(-13)))
          CFI V0 load(1, XDATA, add(CFA_XSP16, literal(-14)))
          CFI VB load(1, XDATA, add(CFA_XSP16, literal(-15)))
          CFI R6 load(1, XDATA, add(CFA_XSP16, literal(-16)))
          CFI CFA_SP SP+0
          CFI CFA_XSP16 add(XSP16, 16)
        ; Saved register size: 16
        ; Auto size: 12
        MOV     A,#-0xc
        LCALL   ?ALLOC_XSTACK8
          CFI CFA_XSP16 add(XSP16, 28)
        MOV     A,#0x2
        LCALL   ?XSTACK_DISP0_8
        MOV     A,R2
        MOVX    @DPTR,A
        INC     DPTR
        MOV     A,R3
        MOVX    @DPTR,A
//  136     unsigned char V1,V2;   //定义高低8位 缓冲
//  137     unsigned int temp;     //定义温度缓冲寄存器
//  138     float fValue;
//  139     union f2byte{
//  140         float f;
//  141         unsigned char bytes[4];
//  142     }instance;
//  143 
//  144     if(!Ds18b20Initial())
        ; Setup parameters for call to function Ds18b20Initial
        LCALL   `??Ds18b20Initial::?relay`; Banked call to: Ds18b20Initial
        MOV     A,R1
        JZ      $+5
        LJMP    ??Ds18B20_Readfloat_0 & 0xFFFF
//  145     {
//  146       Ds18b20Write(0xcc);    // 跳过读序号列号的操作
        ; Setup parameters for call to function Ds18b20Write
        MOV     R1,#-0x34
        LCALL   `??Ds18b20Write::?relay`; Banked call to: Ds18b20Write
//  147       Ds18b20Write(0x44);    // 启动温度转换
        ; Setup parameters for call to function Ds18b20Write
        MOV     R1,#0x44
        LCALL   `??Ds18b20Write::?relay`; Banked call to: Ds18b20Write
//  148       
//  149       Ds18b20Initial();
        ; Setup parameters for call to function Ds18b20Initial
        LCALL   `??Ds18b20Initial::?relay`; Banked call to: Ds18b20Initial
        MOV     A,R1
//  150       Ds18b20Write(0xcc);    //跳过读序号列号的操作 
        ; Setup parameters for call to function Ds18b20Write
        MOV     R1,#-0x34
        LCALL   `??Ds18b20Write::?relay`; Banked call to: Ds18b20Write
//  151       Ds18b20Write(0xbe);    //读取温度寄存器等（共可读9个寄存器） 前两个就是温度
        ; Setup parameters for call to function Ds18b20Write
        MOV     R1,#-0x42
        LCALL   `??Ds18b20Write::?relay`; Banked call to: Ds18b20Write
//  152       
//  153       V1 = Ds18b20Read();    //低位
        ; Setup parameters for call to function Ds18b20Read
        LCALL   `??Ds18b20Read::?relay`; Banked call to: Ds18b20Read
        MOV     A,R1
        PUSH    A
          CFI CFA_SP SP+-1
        MOV     A,#0x1
        LCALL   ?XSTACK_DISP0_8
        POP     A
          CFI CFA_SP SP+0
        MOVX    @DPTR,A
//  154       V2 = Ds18b20Read();    //高位
        ; Setup parameters for call to function Ds18b20Read
        LCALL   `??Ds18b20Read::?relay`; Banked call to: Ds18b20Read
        MOV     A,R1
        PUSH    A
          CFI CFA_SP SP+-1
        MOV     DPL,?XSP + 0
        MOV     DPH,?XSP + 1
        POP     A
          CFI CFA_SP SP+0
        MOVX    @DPTR,A
//  155       //temp = ((V1 >> 4)+((V2 & 0x07)*16)); //转换数据 
//  156       temp=V2*0xFF+V1;
        MOV     DPL,?XSP + 0
        MOV     DPH,?XSP + 1
        MOVX    A,@DPTR
        MOV     R0,A
        MOV     R1,#0x0
        MOV     A,R0
        MOV     B,#-0x1
        MUL     AB
        XCH     A,R0
        MOV     R2,B
        MOV     B,#0x0
        MUL     AB
        ADD     A,R2
        MOV     R2,A
        MOV     B,#-0x1
        MOV     A,R1
        MUL     AB
        ADD     A,R2
        MOV     R1,A
        MOV     A,#0x1
        LCALL   ?XSTACK_DISP0_8
        MOVX    A,@DPTR
        MOV     R2,A
        MOV     R3,#0x0
        MOV     A,R0
        ADD     A,R2
        MOV     R0,A
        MOV     A,R1
        ADDC    A,R3
        MOV     R1,A
        MOV     A,R0
        MOV     R6,A
        MOV     A,R1
        MOV     R7,A
//  157       fValue = temp*0.0625-4;
        MOV     ?V0,R6
        MOV     ?V1,R7
        CLR     A
        MOV     ?V2,A
        MOV     ?V3,A
        MOV     R0,#?V0
        LCALL   ?UL_TO_FLT
        MOV     DPTR,#__Constant_3d800000
        MOV     R0,#?V4
        LCALL   ?L_MOV_X
        MOV     R0,#?V0
        MOV     R1,#?V4
        LCALL   ?FLT_MUL
        MOV     DPTR,#__Constant_c0800000
        MOV     R0,#?V4
        LCALL   ?L_MOV_X
        MOV     R0,#?V0
        MOV     R1,#?V4
        LCALL   ?FLT_ADD
        MOV     A,#0x8
        LCALL   ?XSTACK_DISP0_8
        MOV     R0,#?V0
        LCALL   ?L_MOV_TO_X
//  158       
//  159       instance.f = fValue;
        MOV     A,#0x8
        LCALL   ?XSTACK_DISP0_8
        LCALL   ?XLOAD_R0123
        MOV     A,#0x4
        LCALL   ?XSTACK_DISP0_8
        LCALL   ?XSTORE_R0123
//  160       buf[0] = (unsigned char)instance.bytes[3];
        MOV     A,#0x7
        LCALL   ?XSTACK_DISP0_8
        MOVX    A,@DPTR
        PUSH    A
          CFI CFA_SP SP+-1
        MOV     A,#0x2
        LCALL   ?XSTACK_DISP0_8
        MOVX    A,@DPTR
        MOV     R0,A
        INC     DPTR
        MOVX    A,@DPTR
        MOV     DPH,A
        MOV     DPL,R0
        POP     A
          CFI CFA_SP SP+0
        MOVX    @DPTR,A
//  161       buf[1] = (unsigned char)instance.bytes[2];
        MOV     A,#0x6
        LCALL   ?XSTACK_DISP0_8
        MOVX    A,@DPTR
        PUSH    A
          CFI CFA_SP SP+-1
        MOV     A,#0x2
        LCALL   ?XSTACK_DISP0_8
        MOVX    A,@DPTR
        MOV     R0,A
        INC     DPTR
        MOVX    A,@DPTR
        MOV     DPH,A
        MOV     DPL,R0
        INC     DPTR
        POP     A
          CFI CFA_SP SP+0
        MOVX    @DPTR,A
//  162       buf[2] = (unsigned char)instance.bytes[1];
        MOV     A,#0x5
        LCALL   ?XSTACK_DISP0_8
        MOVX    A,@DPTR
        PUSH    A
          CFI CFA_SP SP+-1
        MOV     A,#0x2
        LCALL   ?XSTACK_DISP0_8
        MOVX    A,@DPTR
        MOV     R0,A
        INC     DPTR
        MOVX    A,@DPTR
        MOV     DPH,A
        MOV     DPL,R0
        INC     DPTR
        INC     DPTR
        POP     A
          CFI CFA_SP SP+0
        MOVX    @DPTR,A
//  163       buf[3] = (unsigned char)instance.bytes[0];
        MOV     A,#0x4
        LCALL   ?XSTACK_DISP0_8
        MOVX    A,@DPTR
        PUSH    A
          CFI CFA_SP SP+-1
        MOV     A,#0x2
        LCALL   ?XSTACK_DISP0_8
        MOVX    A,@DPTR
        MOV     R0,A
        INC     DPTR
        MOVX    A,@DPTR
        MOV     DPH,A
        MOV     DPL,R0
        INC     DPTR
        INC     DPTR
        INC     DPTR
        POP     A
          CFI CFA_SP SP+0
        MOVX    @DPTR,A
//  164       
//  165       return 0;
        MOV     R1,#0x0
        SJMP    ??Ds18B20_Readfloat_1
//  166     }
//  167     else
//  168       return 1;
??Ds18B20_Readfloat_0:
        MOV     R1,#0x1
??Ds18B20_Readfloat_1:
        MOV     A,#0xc
        LCALL   ?DEALLOC_XSTACK8
          CFI CFA_XSP16 add(XSP16, 16)
        MOV     R7,#0x8
        LJMP    ?BANKED_LEAVE_XDATA
//  169 }
          CFI EndBlock cfiBlock7
//  170 

        RSEG BANKED_CODE:CODE:NOROOT(0)
//  171 unsigned char Ds18B20_Readfloat_Str(unsigned char *buf)
Ds18B20_Readfloat_Str:
          CFI Block cfiBlock8 Using cfiCommon0
          CFI Function Ds18B20_Readfloat_Str
        CODE
//  172 {
        FUNCALL Ds18B20_Readfloat_Str, Ds18b20Initial
        LOCFRAME ISTACK, 0, STACK
        LOCFRAME PSTACK, 0, STACK
        LOCFRAME XSTACK, 24, STACK
        LOCFRAME IOVERLAY, 0, STATIC
        LOCFRAME DOVERLAY, 0, STATIC
        ARGFRAME ISTACK, 0, STACK
        ARGFRAME PSTACK, 0, STACK
        ARGFRAME XSTACK, 24, STACK
        ARGFRAME IOVERLAY, 0, STATIC
        ARGFRAME DOVERLAY, 0, STATIC
        FUNCALL Ds18B20_Readfloat_Str, Ds18b20Write
        LOCFRAME ISTACK, 0, STACK
        LOCFRAME PSTACK, 0, STACK
        LOCFRAME XSTACK, 24, STACK
        LOCFRAME IOVERLAY, 0, STATIC
        LOCFRAME DOVERLAY, 0, STATIC
        ARGFRAME ISTACK, 0, STACK
        ARGFRAME PSTACK, 0, STACK
        ARGFRAME XSTACK, 24, STACK
        ARGFRAME IOVERLAY, 0, STATIC
        ARGFRAME DOVERLAY, 0, STATIC
        FUNCALL Ds18B20_Readfloat_Str, Ds18b20Write
        LOCFRAME ISTACK, 0, STACK
        LOCFRAME PSTACK, 0, STACK
        LOCFRAME XSTACK, 24, STACK
        LOCFRAME IOVERLAY, 0, STATIC
        LOCFRAME DOVERLAY, 0, STATIC
        ARGFRAME ISTACK, 0, STACK
        ARGFRAME PSTACK, 0, STACK
        ARGFRAME XSTACK, 24, STACK
        ARGFRAME IOVERLAY, 0, STATIC
        ARGFRAME DOVERLAY, 0, STATIC
        FUNCALL Ds18B20_Readfloat_Str, Ds18b20Initial
        LOCFRAME ISTACK, 0, STACK
        LOCFRAME PSTACK, 0, STACK
        LOCFRAME XSTACK, 24, STACK
        LOCFRAME IOVERLAY, 0, STATIC
        LOCFRAME DOVERLAY, 0, STATIC
        ARGFRAME ISTACK, 0, STACK
        ARGFRAME PSTACK, 0, STACK
        ARGFRAME XSTACK, 24, STACK
        ARGFRAME IOVERLAY, 0, STATIC
        ARGFRAME DOVERLAY, 0, STATIC
        FUNCALL Ds18B20_Readfloat_Str, Ds18b20Write
        LOCFRAME ISTACK, 0, STACK
        LOCFRAME PSTACK, 0, STACK
        LOCFRAME XSTACK, 24, STACK
        LOCFRAME IOVERLAY, 0, STATIC
        LOCFRAME DOVERLAY, 0, STATIC
        ARGFRAME ISTACK, 0, STACK
        ARGFRAME PSTACK, 0, STACK
        ARGFRAME XSTACK, 24, STACK
        ARGFRAME IOVERLAY, 0, STATIC
        ARGFRAME DOVERLAY, 0, STATIC
        FUNCALL Ds18B20_Readfloat_Str, Ds18b20Write
        LOCFRAME ISTACK, 0, STACK
        LOCFRAME PSTACK, 0, STACK
        LOCFRAME XSTACK, 24, STACK
        LOCFRAME IOVERLAY, 0, STATIC
        LOCFRAME DOVERLAY, 0, STATIC
        ARGFRAME ISTACK, 0, STACK
        ARGFRAME PSTACK, 0, STACK
        ARGFRAME XSTACK, 24, STACK
        ARGFRAME IOVERLAY, 0, STATIC
        ARGFRAME DOVERLAY, 0, STATIC
        FUNCALL Ds18B20_Readfloat_Str, Ds18b20Read
        LOCFRAME ISTACK, 0, STACK
        LOCFRAME PSTACK, 0, STACK
        LOCFRAME XSTACK, 24, STACK
        LOCFRAME IOVERLAY, 0, STATIC
        LOCFRAME DOVERLAY, 0, STATIC
        ARGFRAME ISTACK, 0, STACK
        ARGFRAME PSTACK, 0, STACK
        ARGFRAME XSTACK, 24, STACK
        ARGFRAME IOVERLAY, 0, STATIC
        ARGFRAME DOVERLAY, 0, STATIC
        FUNCALL Ds18B20_Readfloat_Str, Ds18b20Read
        LOCFRAME ISTACK, 0, STACK
        LOCFRAME PSTACK, 0, STACK
        LOCFRAME XSTACK, 24, STACK
        LOCFRAME IOVERLAY, 0, STATIC
        LOCFRAME DOVERLAY, 0, STATIC
        ARGFRAME ISTACK, 0, STACK
        ARGFRAME PSTACK, 0, STACK
        ARGFRAME XSTACK, 24, STACK
        ARGFRAME IOVERLAY, 0, STATIC
        ARGFRAME DOVERLAY, 0, STATIC
        FUNCALL Ds18B20_Readfloat_Str, sprintf
        LOCFRAME ISTACK, 0, STACK
        LOCFRAME PSTACK, 0, STACK
        LOCFRAME XSTACK, 28, STACK
        LOCFRAME IOVERLAY, 0, STATIC
        LOCFRAME DOVERLAY, 0, STATIC
        ARGFRAME ISTACK, 0, STACK
        ARGFRAME PSTACK, 0, STACK
        ARGFRAME XSTACK, 28, STACK
        ARGFRAME IOVERLAY, 0, STATIC
        ARGFRAME DOVERLAY, 0, STATIC
        REQUIRE ?V0
        REQUIRE ?V1
        REQUIRE ?V2
        REQUIRE ?V3
        REQUIRE ?V4
        REQUIRE ?V5
        REQUIRE ?V6
        REQUIRE ?V7
        MOV     A,#-0x10
        LCALL   ?BANKED_ENTER_XDATA
          CFI DPH0 load(1, XDATA, add(CFA_XSP16, literal(-1)))
          CFI DPL0 load(1, XDATA, add(CFA_XSP16, literal(-2)))
          CFI ?BRET_EXT load(1, XDATA, add(CFA_XSP16, literal(-3)))
          CFI ?RET_HIGH load(1, XDATA, add(CFA_XSP16, literal(-4)))
          CFI ?RET_LOW load(1, XDATA, add(CFA_XSP16, literal(-5)))
          CFI R7 load(1, XDATA, add(CFA_XSP16, literal(-6)))
          CFI V7 load(1, XDATA, add(CFA_XSP16, literal(-7)))
          CFI V6 load(1, XDATA, add(CFA_XSP16, literal(-8)))
          CFI V5 load(1, XDATA, add(CFA_XSP16, literal(-9)))
          CFI V4 load(1, XDATA, add(CFA_XSP16, literal(-10)))
          CFI V3 load(1, XDATA, add(CFA_XSP16, literal(-11)))
          CFI V2 load(1, XDATA, add(CFA_XSP16, literal(-12)))
          CFI V1 load(1, XDATA, add(CFA_XSP16, literal(-13)))
          CFI V0 load(1, XDATA, add(CFA_XSP16, literal(-14)))
          CFI VB load(1, XDATA, add(CFA_XSP16, literal(-15)))
          CFI R6 load(1, XDATA, add(CFA_XSP16, literal(-16)))
          CFI CFA_SP SP+0
          CFI CFA_XSP16 add(XSP16, 16)
        ; Saved register size: 16
        ; Auto size: 8
        MOV     A,#-0x8
        LCALL   ?ALLOC_XSTACK8
          CFI CFA_XSP16 add(XSP16, 24)
        MOV     A,#0x2
        LCALL   ?XSTACK_DISP0_8
        MOV     A,R2
        MOVX    @DPTR,A
        INC     DPTR
        MOV     A,R3
        MOVX    @DPTR,A
//  173     unsigned char low,high;   //定义高低8位 缓冲
//  174     unsigned int temp;     //定义温度缓冲寄存器
//  175     float fValue;
//  176     if(!Ds18b20Initial())
        ; Setup parameters for call to function Ds18b20Initial
        LCALL   `??Ds18b20Initial::?relay`; Banked call to: Ds18b20Initial
        MOV     A,R1
        JZ      $+5
        LJMP    ??Ds18B20_Readfloat_Str_0 & 0xFFFF
//  177     {
//  178       Ds18b20Write(0xcc);    // 跳过读序号列号的操作
        ; Setup parameters for call to function Ds18b20Write
        MOV     R1,#-0x34
        LCALL   `??Ds18b20Write::?relay`; Banked call to: Ds18b20Write
//  179       Ds18b20Write(0x44);    // 启动温度转换
        ; Setup parameters for call to function Ds18b20Write
        MOV     R1,#0x44
        LCALL   `??Ds18b20Write::?relay`; Banked call to: Ds18b20Write
//  180       
//  181       Ds18b20Initial();
        ; Setup parameters for call to function Ds18b20Initial
        LCALL   `??Ds18b20Initial::?relay`; Banked call to: Ds18b20Initial
        MOV     A,R1
//  182       Ds18b20Write(0xcc);    //跳过读序号列号的操作 
        ; Setup parameters for call to function Ds18b20Write
        MOV     R1,#-0x34
        LCALL   `??Ds18b20Write::?relay`; Banked call to: Ds18b20Write
//  183       Ds18b20Write(0xbe);    //读取温度寄存器等（共可读9个寄存器） 前两个就是温度
        ; Setup parameters for call to function Ds18b20Write
        MOV     R1,#-0x42
        LCALL   `??Ds18b20Write::?relay`; Banked call to: Ds18b20Write
//  184       
//  185       low = Ds18b20Read();    //低位
        ; Setup parameters for call to function Ds18b20Read
        LCALL   `??Ds18b20Read::?relay`; Banked call to: Ds18b20Read
        MOV     A,R1
        PUSH    A
          CFI CFA_SP SP+-1
        MOV     A,#0x1
        LCALL   ?XSTACK_DISP0_8
        POP     A
          CFI CFA_SP SP+0
        MOVX    @DPTR,A
//  186       high = Ds18b20Read();    //高位
        ; Setup parameters for call to function Ds18b20Read
        LCALL   `??Ds18b20Read::?relay`; Banked call to: Ds18b20Read
        MOV     A,R1
        PUSH    A
          CFI CFA_SP SP+-1
        MOV     DPL,?XSP + 0
        MOV     DPH,?XSP + 1
        POP     A
          CFI CFA_SP SP+0
        MOVX    @DPTR,A
//  187       //temp = ((V1 >> 4)+((V2 & 0x07)*16)); //转换数据 
//  188       temp=high*0xFF+low;
        MOV     DPL,?XSP + 0
        MOV     DPH,?XSP + 1
        MOVX    A,@DPTR
        MOV     R0,A
        MOV     R1,#0x0
        MOV     A,R0
        MOV     B,#-0x1
        MUL     AB
        XCH     A,R0
        MOV     R2,B
        MOV     B,#0x0
        MUL     AB
        ADD     A,R2
        MOV     R2,A
        MOV     B,#-0x1
        MOV     A,R1
        MUL     AB
        ADD     A,R2
        MOV     R1,A
        MOV     A,#0x1
        LCALL   ?XSTACK_DISP0_8
        MOVX    A,@DPTR
        MOV     R2,A
        MOV     R3,#0x0
        MOV     A,R0
        ADD     A,R2
        MOV     R0,A
        MOV     A,R1
        ADDC    A,R3
        MOV     R1,A
        MOV     A,R0
        MOV     R6,A
        MOV     A,R1
        MOV     R7,A
//  189       fValue = temp*0.0625-4;
        MOV     ?V0,R6
        MOV     ?V1,R7
        CLR     A
        MOV     ?V2,A
        MOV     ?V3,A
        MOV     R0,#?V0
        LCALL   ?UL_TO_FLT
        MOV     DPTR,#__Constant_3d800000
        MOV     R0,#?V4
        LCALL   ?L_MOV_X
        MOV     R0,#?V0
        MOV     R1,#?V4
        LCALL   ?FLT_MUL
        MOV     DPTR,#__Constant_c0800000
        MOV     R0,#?V4
        LCALL   ?L_MOV_X
        MOV     R0,#?V0
        MOV     R1,#?V4
        LCALL   ?FLT_ADD
        MOV     A,#0x4
        LCALL   ?XSTACK_DISP0_8
        MOV     R0,#?V0
        LCALL   ?L_MOV_TO_X
//  190       sprintf((char *)buf, "%4.1f", fValue);
        ; Setup parameters for call to function sprintf
        MOV     A,#0x4
        LCALL   ?XSTACK_DISP0_8
        LCALL   ?PUSH_XSTACK8_X_FOUR
          CFI CFA_XSP16 add(XSP16, 28)
        MOV     R4,#`?<Constant "%4.1f">` & 0xff
        MOV     R5,#(`?<Constant "%4.1f">` >> 8) & 0xff
        MOV     A,#0x6
        LCALL   ?XSTACK_DISP0_8
        MOVX    A,@DPTR
        MOV     R2,A
        INC     DPTR
        MOVX    A,@DPTR
        MOV     R3,A
        LCALL   `??sprintf::?relay`  ; Banked call to: sprintf
        MOV     A,#0x4
        LCALL   ?DEALLOC_XSTACK8
          CFI CFA_XSP16 add(XSP16, 24)
//  191       
//  192       return 0;
        MOV     R1,#0x0
        SJMP    ??Ds18B20_Readfloat_Str_1
//  193     }
//  194     else
//  195       return 1;
??Ds18B20_Readfloat_Str_0:
        MOV     R1,#0x1
??Ds18B20_Readfloat_Str_1:
        MOV     A,#0x8
        LCALL   ?DEALLOC_XSTACK8
          CFI CFA_XSP16 add(XSP16, 16)
        MOV     R7,#0x8
        LJMP    ?BANKED_LEAVE_XDATA
//  196 }
          CFI EndBlock cfiBlock8

        RSEG BANK_RELAYS:CODE:REORDER:NOROOT(0)
`??DS18B20Delay_us::?relay`:
        CODE
        LCALL   ?BDISPATCH
        DATA24
        DC24    DS18B20Delay_us

        RSEG BANK_RELAYS:CODE:REORDER:NOROOT(0)
`??Ds18b20InputInitial::?relay`:
        CODE
        LCALL   ?BDISPATCH
        DATA24
        DC24    Ds18b20InputInitial

        RSEG BANK_RELAYS:CODE:REORDER:NOROOT(0)
`??Ds18b20OutputInitial::?relay`:
        CODE
        LCALL   ?BDISPATCH
        DATA24
        DC24    Ds18b20OutputInitial

        RSEG BANK_RELAYS:CODE:REORDER:NOROOT(0)
`??Ds18b20Initial::?relay`:
        CODE
        LCALL   ?BDISPATCH
        DATA24
        DC24    Ds18b20Initial

        RSEG BANK_RELAYS:CODE:REORDER:NOROOT(0)
`??Ds18b20Write::?relay`:
        CODE
        LCALL   ?BDISPATCH
        DATA24
        DC24    Ds18b20Write

        RSEG BANK_RELAYS:CODE:REORDER:NOROOT(0)
`??Ds18b20Read::?relay`:
        CODE
        LCALL   ?BDISPATCH
        DATA24
        DC24    Ds18b20Read

        RSEG BANK_RELAYS:CODE:REORDER:NOROOT(0)
`??ReadDs18B20::?relay`:
        CODE
        LCALL   ?BDISPATCH
        DATA24
        DC24    ReadDs18B20

        RSEG BANK_RELAYS:CODE:REORDER:NOROOT(0)
`??Ds18B20_Readfloat::?relay`:
        CODE
        LCALL   ?BDISPATCH
        DATA24
        DC24    Ds18B20_Readfloat

        RSEG BANK_RELAYS:CODE:REORDER:NOROOT(0)
`??Ds18B20_Readfloat_Str::?relay`:
        CODE
        LCALL   ?BDISPATCH
        DATA24
        DC24    Ds18B20_Readfloat_Str

        RSEG XDATA_ROM_C:CONST:REORDER:NOROOT(0)
        DATA8
`?<Constant "%4.1f">`:
        DB "%4.1f"

        RSEG XDATA_ROM_C:CONST:REORDER:NOROOT(0)
        DATA32
__Constant_3d800000:
        DD 3D800000H

        RSEG XDATA_ROM_C:CONST:REORDER:NOROOT(0)
        DATA32
__Constant_c0800000:
        DD 0C0800000H

        END
// 
// 910 bytes in segment BANKED_CODE
//  54 bytes in segment BANK_RELAYS
//   2 bytes in segment SFR_AN
//  14 bytes in segment XDATA_ROM_C
// 
// 964 bytes of CODE  memory
//   6 bytes of CONST memory (+ 8 bytes shared)
//   0 bytes of DATA  memory (+ 2 bytes shared)
//
//Errors: none
//Warnings: none
