///////////////////////////////////////////////////////////////////////////////
//
// IAR C/C++ Compiler V9.30.1.3056 for 8051               22/May/2018  20:40:16
// Copyright 2004-2015 IAR Systems AB.
// Standalone license - IAR Embedded Workbench for 8051
//
//    Core               =  plain
//    Code model         =  banked
//    Data model         =  large
//    Calling convention =  xdata reentrant
//    Constant location  =  data_rom
//    Dptr setup         =  1,16
//                          
//    Source file        =  
//        D:\design\ZStack-2.5.1a\Projects\zstack\Samples\SampleApp\Source\IIC.C
//    Command line       =  
//        -f
//        D:\design\ZStack-2.5.1a\Projects\zstack\Samples\SampleApp\CC2530DB\..\..\..\Tools\CC2530DB\f8wEndev.cfg
//        (-DCPU32MHZ -DROOT=__near_func -DMAC_CFG_TX_DATA_MAX=3
//        -DMAC_CFG_TX_MAX=6 -DMAC_CFG_RX_MAX=3) -f
//        D:\design\ZStack-2.5.1a\Projects\zstack\Samples\SampleApp\CC2530DB\..\..\..\Tools\CC2530DB\f8wConfig.cfg
//        (-DZIGBEEPRO -DSECURE=0 -DZG_SECURE_DYNAMIC=0 -DREFLECTOR
//        -DDEFAULT_CHANLIST=0x00000800 -DZDAPP_CONFIG_PAN_ID=0x333;
//        -DNWK_START_DELAY=100 -DEXTENDED_JOINING_RANDOM_MASK=0x007F
//        -DBEACON_REQUEST_DELAY=100 -DBEACON_REQ_DELAY_MASK=0x00FF
//        -DLINK_STATUS_JITTER_MASK=0x007F -DROUTE_EXPIRY_TIME=30
//        -DAPSC_ACK_WAIT_DURATION_POLLED=3000 -DNWK_INDIRECT_MSG_TIMEOUT=7
//        -DMAX_RREQ_ENTRIES=8 -DAPSC_MAX_FRAME_RETRIES=3
//        -DNWK_MAX_DATA_RETRIES=2 -DMAX_POLL_FAILURE_RETRIES=2 -DMAX_BCAST=9
//        -DAPS_MAX_GROUPS=16 -DMAX_RTG_ENTRIES=40 -DNWK_MAX_BINDING_ENTRIES=4
//        -DMAX_BINDING_CLUSTER_IDS=4 "-DDEFAULT_KEY={0x01, 0x03, 0x05, 0x07,
//        0x09, 0x0B, 0x0D, 0x0F, 0x00, 0x02, 0x04, 0x06, 0x08, 0x0A, 0x0C,
//        0x0D}" -DMAC_MAX_FRAME_SIZE=116 -DZDNWKMGR_MIN_TRANSMISSIONS=20
//        "-DCONST=const __code" -DGENERIC=__generic -DRFD_RCVC_ALWAYS_ON=FALSE
//        -DPOLL_RATE=0 -DQUEUED_POLL_RATE=0 -DRESPONSE_POLL_RATE=0)
//        -DREJOIN_POLL_RATE=1000
//        D:\design\ZStack-2.5.1a\Projects\zstack\Samples\SampleApp\Source\IIC.C
//        -D NWK_AUTO_POLL -D ZTOOL_P1 -D xMT_TASK -D xMT_SYS_FUNC -D
//        xMT_ZDO_FUNC -D xLCD_SUPPORTED=DEBUG -D POWER_SAVING -lC
//        D:\design\ZStack-2.5.1a\Projects\zstack\Samples\SampleApp\CC2530DB\EndDeviceEB\List
//        -lA
//        D:\design\ZStack-2.5.1a\Projects\zstack\Samples\SampleApp\CC2530DB\EndDeviceEB\List
//        --diag_suppress Pe001,Pa010 -o
//        D:\design\ZStack-2.5.1a\Projects\zstack\Samples\SampleApp\CC2530DB\EndDeviceEB\Obj
//        -e --no_cse --no_unroll --no_inline --no_code_motion --no_tbaa
//        --debug --core=plain --dptr=16,1 --data_model=large
//        --code_model=banked --calling_convention=xdata_reentrant
//        --place_constants=data_rom --nr_virtual_regs 8 -I
//        D:\design\ZStack-2.5.1a\Projects\zstack\Samples\SampleApp\CC2530DB\
//        -I
//        D:\design\ZStack-2.5.1a\Projects\zstack\Samples\SampleApp\CC2530DB\..\Source\
//        -I
//        D:\design\ZStack-2.5.1a\Projects\zstack\Samples\SampleApp\CC2530DB\..\..\..\ZMain\TI2530DB\
//        -I
//        D:\design\ZStack-2.5.1a\Projects\zstack\Samples\SampleApp\CC2530DB\..\..\..\..\..\Components\hal\include\
//        -I
//        D:\design\ZStack-2.5.1a\Projects\zstack\Samples\SampleApp\CC2530DB\..\..\..\..\..\Components\hal\target\CC2530EB\
//        -I
//        D:\design\ZStack-2.5.1a\Projects\zstack\Samples\SampleApp\CC2530DB\..\..\..\..\..\Components\mac\include\
//        -I
//        D:\design\ZStack-2.5.1a\Projects\zstack\Samples\SampleApp\CC2530DB\..\..\..\..\..\Components\mac\high_level\
//        -I
//        D:\design\ZStack-2.5.1a\Projects\zstack\Samples\SampleApp\CC2530DB\..\..\..\..\..\Components\mac\low_level\srf04\
//        -I
//        D:\design\ZStack-2.5.1a\Projects\zstack\Samples\SampleApp\CC2530DB\..\..\..\..\..\Components\mac\low_level\srf04\single_chip\
//        -I
//        D:\design\ZStack-2.5.1a\Projects\zstack\Samples\SampleApp\CC2530DB\..\..\..\..\..\Components\mt\
//        -I
//        D:\design\ZStack-2.5.1a\Projects\zstack\Samples\SampleApp\CC2530DB\..\..\..\..\..\Components\osal\include\
//        -I
//        D:\design\ZStack-2.5.1a\Projects\zstack\Samples\SampleApp\CC2530DB\..\..\..\..\..\Components\services\saddr\
//        -I
//        D:\design\ZStack-2.5.1a\Projects\zstack\Samples\SampleApp\CC2530DB\..\..\..\..\..\Components\services\sdata\
//        -I
//        D:\design\ZStack-2.5.1a\Projects\zstack\Samples\SampleApp\CC2530DB\..\..\..\..\..\Components\stack\af\
//        -I
//        D:\design\ZStack-2.5.1a\Projects\zstack\Samples\SampleApp\CC2530DB\..\..\..\..\..\Components\stack\nwk\
//        -I
//        D:\design\ZStack-2.5.1a\Projects\zstack\Samples\SampleApp\CC2530DB\..\..\..\..\..\Components\stack\sapi\
//        -I
//        D:\design\ZStack-2.5.1a\Projects\zstack\Samples\SampleApp\CC2530DB\..\..\..\..\..\Components\stack\sec\
//        -I
//        D:\design\ZStack-2.5.1a\Projects\zstack\Samples\SampleApp\CC2530DB\..\..\..\..\..\Components\stack\sys\
//        -I
//        D:\design\ZStack-2.5.1a\Projects\zstack\Samples\SampleApp\CC2530DB\..\..\..\..\..\Components\stack\zdo\
//        -I
//        D:\design\ZStack-2.5.1a\Projects\zstack\Samples\SampleApp\CC2530DB\..\..\..\..\..\Components\zmac\
//        -I
//        D:\design\ZStack-2.5.1a\Projects\zstack\Samples\SampleApp\CC2530DB\..\..\..\..\..\Components\zmac\f8w\
//        -On --require_prototypes
//    List file          =  
//        D:\design\ZStack-2.5.1a\Projects\zstack\Samples\SampleApp\CC2530DB\EndDeviceEB\List\IIC.s51
//
///////////////////////////////////////////////////////////////////////////////

        NAME IIC

        RTMODEL "__SystemLibrary", "CLib"
        RTMODEL "__calling_convention", "xdata_reentrant"
        RTMODEL "__code_model", "banked"
        RTMODEL "__core", "plain"
        RTMODEL "__data_model", "large"
        RTMODEL "__dptr_size", "16"
        RTMODEL "__extended_stack", "disabled"
        RTMODEL "__location_for_constants", "data"
        RTMODEL "__number_of_dptrs", "1"
        RTMODEL "__rt_version", "1"

        RSEG DOVERLAY:DATA:NOROOT(0)
        RSEG IOVERLAY:IDATA:NOROOT(0)
        RSEG ISTACK:IDATA:NOROOT(0)
        RSEG PSTACK:XDATA:NOROOT(0)
        RSEG XSTACK:XDATA:NOROOT(0)

        EXTERN ?V0
        EXTERN ?V1
        EXTERN ?V2
        EXTERN ?BANKED_ENTER_XDATA
        EXTERN ?BANKED_LEAVE_XDATA
        EXTERN ?BDISPATCH
        EXTERN ?BRET
        EXTERN ?S_SHL
        EXTERN __INIT_XDATA_Z

        PUBLIC `??Delay_ms::?relay`
        FUNCTION `??Delay_ms::?relay`,0203H
        PUBLIC `??Delay_us::?relay`
        FUNCTION `??Delay_us::?relay`,0203H
        PUBLIC `??I2C_IRcvStrExt::?relay`
        FUNCTION `??I2C_IRcvStrExt::?relay`,0203H
        PUBLIC `??I2C_ISendByte::?relay`
        FUNCTION `??I2C_ISendByte::?relay`,0203H
        PUBLIC `??I2C_Init::?relay`
        FUNCTION `??I2C_Init::?relay`,0203H
        PUBLIC `??I2C_RcvByte::?relay`
        FUNCTION `??I2C_RcvByte::?relay`,0203H
        PUBLIC `??I2C_SendByte::?relay`
        FUNCTION `??I2C_SendByte::?relay`,0203H
        PUBLIC `??I2C_Start::?relay`
        FUNCTION `??I2C_Start::?relay`,0203H
        PUBLIC `??I2C_Stop::?relay`
        FUNCTION `??I2C_Stop::?relay`,0203H
        PUBLIC `??SendACK::?relay`
        FUNCTION `??SendACK::?relay`,0203H
        PUBLIC `??SendNCK::?relay`
        FUNCTION `??SendNCK::?relay`,0203H
        PUBLIC Delay_ms
        FUNCTION Delay_ms,0a1203H
        ARGFRAME XSTACK, 0, STACK
        LOCFRAME XSTACK, 9, STACK
        PUBLIC Delay_us
        FUNCTION Delay_us,080203H
        ARGFRAME XSTACK, 10, STACK
        ARGFRAME IOVERLAY, 0, STATIC
        ARGFRAME DOVERLAY, 0, STATIC
        PUBLIC I2C_IRcvStrExt
        FUNCTION I2C_IRcvStrExt,0a1203H
        ARGFRAME XSTACK, 0, STACK
        LOCFRAME ISTACK, 1, STACK
        LOCFRAME XSTACK, 11, STACK
        PUBLIC I2C_ISendByte
        FUNCTION I2C_ISendByte,021203H
        ARGFRAME XSTACK, 0, STACK
        LOCFRAME XSTACK, 9, STACK
        PUBLIC I2C_Init
        FUNCTION I2C_Init,0203H
        ARGFRAME XSTACK, 0, STACK
        PUBLIC I2C_RcvByte
        FUNCTION I2C_RcvByte,021203H
        ARGFRAME XSTACK, 11, STACK
        ARGFRAME IOVERLAY, 0, STATIC
        ARGFRAME DOVERLAY, 0, STATIC
        LOCFRAME XSTACK, 9, STACK
        PUBLIC I2C_SendByte
        FUNCTION I2C_SendByte,0a1203H
        ARGFRAME XSTACK, 11, STACK
        ARGFRAME IOVERLAY, 0, STATIC
        ARGFRAME DOVERLAY, 0, STATIC
        LOCFRAME XSTACK, 10, STACK
        PUBLIC I2C_Start
        FUNCTION I2C_Start,021203H
        ARGFRAME XSTACK, 11, STACK
        ARGFRAME IOVERLAY, 0, STATIC
        ARGFRAME DOVERLAY, 0, STATIC
        LOCFRAME ISTACK, 2, STACK
        PUBLIC I2C_Stop
        FUNCTION I2C_Stop,021203H
        ARGFRAME XSTACK, 11, STACK
        ARGFRAME IOVERLAY, 0, STATIC
        ARGFRAME DOVERLAY, 0, STATIC
        LOCFRAME ISTACK, 2, STACK
        PUBWEAK P0DIR
        PUBWEAK P0SEL
        PUBLIC SendACK
        FUNCTION SendACK,021203H
        ARGFRAME XSTACK, 11, STACK
        ARGFRAME IOVERLAY, 0, STATIC
        ARGFRAME DOVERLAY, 0, STATIC
        LOCFRAME ISTACK, 2, STACK
        PUBLIC SendNCK
        FUNCTION SendNCK,021203H
        ARGFRAME XSTACK, 11, STACK
        ARGFRAME IOVERLAY, 0, STATIC
        ARGFRAME DOVERLAY, 0, STATIC
        LOCFRAME ISTACK, 2, STACK
        PUBWEAK _A_P0
        PUBLIC ack
        
          CFI Names cfiNames0
          CFI StackFrame CFA_SP SP IDATA
          CFI StackFrame CFA_PSP16 PSP16 XDATA
          CFI StackFrame CFA_XSP16 XSP16 XDATA
          CFI StaticOverlayFrame CFA_IOVERLAY IOVERLAY
          CFI StaticOverlayFrame CFA_DOVERLAY DOVERLAY
          CFI Resource `PSW.CY`:1, `B.BR0`:1, `B.BR1`:1, `B.BR2`:1, `B.BR3`:1
          CFI Resource `B.BR4`:1, `B.BR5`:1, `B.BR6`:1, `B.BR7`:1, `VB.BR8`:1
          CFI Resource `VB.BR9`:1, `VB.BR10`:1, `VB.BR11`:1, `VB.BR12`:1
          CFI Resource `VB.BR13`:1, `VB.BR14`:1, `VB.BR15`:1, VB:8, B:8, A:8
          CFI Resource PSW:8, DPL0:8, DPH0:8, R0:8, R1:8, R2:8, R3:8, R4:8, R5:8
          CFI Resource R6:8, R7:8, V0:8, V1:8, V2:8, V3:8, V4:8, V5:8, V6:8, V7:8
          CFI Resource SP:8, PSPH:8, PSPL:8, PSP16:16, XSPH:8, XSPL:8, XSP16:16
          CFI VirtualResource ?RET:24
          CFI Resource ?BRET_EXT:8
          CFI VirtualResource ?RET_HIGH:8, ?RET_LOW:8
          CFI ResourceParts PSP16 PSPH, PSPL
          CFI ResourceParts XSP16 XSPH, XSPL
          CFI ResourceParts ?RET ?BRET_EXT, ?RET_HIGH, ?RET_LOW
          CFI EndNames cfiNames0
        
          CFI Common cfiCommon0 Using cfiNames0
          CFI CodeAlign 1
          CFI DataAlign -1
          CFI ReturnAddress ?RET CODE
          CFI CFA_DOVERLAY Used
          CFI CFA_IOVERLAY Used
          CFI CFA_SP SP+-3
          CFI CFA_PSP16 PSP16+0
          CFI CFA_XSP16 XSP16+0
          CFI `PSW.CY` SameValue
          CFI `B.BR0` SameValue
          CFI `B.BR1` SameValue
          CFI `B.BR2` SameValue
          CFI `B.BR3` SameValue
          CFI `B.BR4` SameValue
          CFI `B.BR5` SameValue
          CFI `B.BR6` SameValue
          CFI `B.BR7` SameValue
          CFI `VB.BR8` SameValue
          CFI `VB.BR9` SameValue
          CFI `VB.BR10` SameValue
          CFI `VB.BR11` SameValue
          CFI `VB.BR12` SameValue
          CFI `VB.BR13` SameValue
          CFI `VB.BR14` SameValue
          CFI `VB.BR15` SameValue
          CFI VB SameValue
          CFI B Undefined
          CFI A Undefined
          CFI PSW SameValue
          CFI DPL0 SameValue
          CFI DPH0 SameValue
          CFI R0 Undefined
          CFI R1 Undefined
          CFI R2 Undefined
          CFI R3 Undefined
          CFI R4 Undefined
          CFI R5 Undefined
          CFI R6 SameValue
          CFI R7 SameValue
          CFI V0 SameValue
          CFI V1 SameValue
          CFI V2 SameValue
          CFI V3 SameValue
          CFI V4 SameValue
          CFI V5 SameValue
          CFI V6 SameValue
          CFI V7 SameValue
          CFI PSPH Undefined
          CFI PSPL Undefined
          CFI XSPH Undefined
          CFI XSPL Undefined
          CFI ?RET Concat
          CFI ?BRET_EXT Frame(CFA_SP, 3)
          CFI ?RET_HIGH Frame(CFA_SP, 2)
          CFI ?RET_LOW Frame(CFA_SP, 1)
          CFI EndCommon cfiCommon0
        
Delay_ms            SYMBOL "Delay_ms"
`??Delay_ms::?relay` SYMBOL "?relay", Delay_ms
Delay_us            SYMBOL "Delay_us"
`??Delay_us::?relay` SYMBOL "?relay", Delay_us
I2C_IRcvStrExt      SYMBOL "I2C_IRcvStrExt"
`??I2C_IRcvStrExt::?relay` SYMBOL "?relay", I2C_IRcvStrExt
I2C_ISendByte       SYMBOL "I2C_ISendByte"
`??I2C_ISendByte::?relay` SYMBOL "?relay", I2C_ISendByte
I2C_Init            SYMBOL "I2C_Init"
`??I2C_Init::?relay` SYMBOL "?relay", I2C_Init
I2C_RcvByte         SYMBOL "I2C_RcvByte"
`??I2C_RcvByte::?relay` SYMBOL "?relay", I2C_RcvByte
I2C_SendByte        SYMBOL "I2C_SendByte"
`??I2C_SendByte::?relay` SYMBOL "?relay", I2C_SendByte
I2C_Start           SYMBOL "I2C_Start"
`??I2C_Start::?relay` SYMBOL "?relay", I2C_Start
I2C_Stop            SYMBOL "I2C_Stop"
`??I2C_Stop::?relay` SYMBOL "?relay", I2C_Stop
SendACK             SYMBOL "SendACK"
`??SendACK::?relay` SYMBOL "?relay", SendACK
SendNCK             SYMBOL "SendNCK"
`??SendNCK::?relay` SYMBOL "?relay", SendNCK

// D:\design\ZStack-2.5.1a\Projects\zstack\Samples\SampleApp\Source\IIC.C
//    1 /*
//    2 * Copyright (c) 2017,FAFU
//    3 * All rights reserved.
//    4 *
//    5 * File Name：IIC.c
//    6 * Abstract：software IIC for CC2530
//    7 *
//    8 * Current Version：1.0
//    9 * Author：ygf
//   10 * Finish Date：20171024
//   11 *
//   12 * Superseded Version：1.0
//   13 * Authorship ：ygf
//   14 * Finish Date：20171024
//   15 */ 
//   16 
//   17 #include "IIC.h"

        ASEGN SFR_AN:DATA:NOROOT,080H
// union <unnamed> volatile __sfr _A_P0
_A_P0:
        DATA8
        DS 1

        ASEGN SFR_AN:DATA:NOROOT,0f3H
// unsigned char volatile __sfr P0SEL
P0SEL:
        DATA8
        DS 1

        ASEGN SFR_AN:DATA:NOROOT,0fdH
// unsigned char volatile __sfr P0DIR
P0DIR:
        DATA8
        DS 1
//   18 

        RSEG XDATA_Z:XDATA:NOROOT(0)
        DATA8
//   19 unsigned char ack;
ack:
        DS 1
        REQUIRE __INIT_XDATA_Z
//   20 
//   21 /*Private functions*/
//   22 
//   23 /*Exported functions*/
//   24 /****************************
//   25         延时函数
//   26 *****************************/

        RSEG BANKED_CODE:CODE:NOROOT(0)
//   27 void Delay_us(unsigned int timeout) //1 us延时unsigned int16 timeout )
Delay_us:
          CFI Block cfiBlock0 Using cfiCommon0
          CFI Function Delay_us
        CODE
//   28 {
        ; Saved register size: 0
        ; Auto size: 0
//   29     while (timeout--)
??Delay_us_0:
        MOV     A,R2
        MOV     R0,A
        MOV     A,R3
        MOV     R1,A
        MOV     A,R0
        ADD     A,#-0x1
        MOV     R2,A
        MOV     A,R1
        ADDC    A,#-0x1
        MOV     R3,A
        MOV     A,R0
        ORL     A,R1
        JZ      ??Delay_us_1
//   30     {
//   31       asm("NOP");
        NOP
//   32       asm("NOP");
        NOP
//   33       asm("NOP");
        NOP
        SJMP    ??Delay_us_0
//   34     } 
//   35 }
??Delay_us_1:
        LJMP    ?BRET
          CFI EndBlock cfiBlock0
//   36 
//   37 

        RSEG BANKED_CODE:CODE:NOROOT(0)
//   38 void Delay_ms(unsigned int Time)//n ms延时
Delay_ms:
          CFI Block cfiBlock1 Using cfiCommon0
          CFI Function Delay_ms
        CODE
//   39 {
        FUNCALL Delay_ms, Delay_us
        LOCFRAME ISTACK, 0, STACK
        LOCFRAME PSTACK, 0, STACK
        LOCFRAME XSTACK, 9, STACK
        LOCFRAME IOVERLAY, 0, STATIC
        LOCFRAME DOVERLAY, 0, STATIC
        ARGFRAME ISTACK, 0, STACK
        ARGFRAME PSTACK, 0, STACK
        ARGFRAME XSTACK, 9, STACK
        ARGFRAME IOVERLAY, 0, STATIC
        ARGFRAME DOVERLAY, 0, STATIC
        REQUIRE ?V0
        MOV     A,#-0x9
        LCALL   ?BANKED_ENTER_XDATA
          CFI DPH0 load(1, XDATA, add(CFA_XSP16, literal(-1)))
          CFI DPL0 load(1, XDATA, add(CFA_XSP16, literal(-2)))
          CFI ?BRET_EXT load(1, XDATA, add(CFA_XSP16, literal(-3)))
          CFI ?RET_HIGH load(1, XDATA, add(CFA_XSP16, literal(-4)))
          CFI ?RET_LOW load(1, XDATA, add(CFA_XSP16, literal(-5)))
          CFI R7 load(1, XDATA, add(CFA_XSP16, literal(-6)))
          CFI V0 load(1, XDATA, add(CFA_XSP16, literal(-7)))
          CFI VB load(1, XDATA, add(CFA_XSP16, literal(-8)))
          CFI R6 load(1, XDATA, add(CFA_XSP16, literal(-9)))
          CFI CFA_SP SP+0
          CFI CFA_XSP16 add(XSP16, 9)
        ; Saved register size: 9
        ; Auto size: 0
        MOV     A,R2
        MOV     R6,A
        MOV     A,R3
        MOV     R7,A
//   40   unsigned char i;
//   41   while(Time--)
??Delay_ms_0:
        MOV     A,R6
        MOV     R0,A
        MOV     A,R7
        MOV     R1,A
        MOV     A,R0
        ADD     A,#-0x1
        MOV     R6,A
        MOV     A,R1
        ADDC    A,#-0x1
        MOV     R7,A
        MOV     A,R0
        ORL     A,R1
        JZ      ??Delay_ms_1
//   42   {
//   43     for(i=0;i<100;i++)
        MOV     ?V0,#0x0
??Delay_ms_2:
        MOV     A,?V0
        CLR     C
        SUBB    A,#0x64
        JNC     ??Delay_ms_0
//   44      Delay_us(10);
        ; Setup parameters for call to function Delay_us
        MOV     R2,#0xa
        MOV     R3,#0x0
        LCALL   `??Delay_us::?relay` ; Banked call to: Delay_us
        INC     ?V0
        SJMP    ??Delay_ms_2
//   45   }
//   46 }
??Delay_ms_1:
        MOV     R7,#0x1
        LJMP    ?BANKED_LEAVE_XDATA
          CFI EndBlock cfiBlock1
//   47 //*********************************************************

        RSEG BANKED_CODE:CODE:NOROOT(0)
//   48 void I2C_Init()
I2C_Init:
          CFI Block cfiBlock2 Using cfiCommon0
          CFI Function I2C_Init
        CODE
//   49 {
        ; Saved register size: 0
        ; Auto size: 0
//   50     P0SEL &= ~0xC0;                //设置P0.6 P0_7为普通IO口
        ANL     0xf3,#0x3f
//   51     P0DIR |= 0xC0;                 //P0.6 P0.7定义为输出口
        ORL     0xfd,#0xc0
//   52 }
        LJMP    ?BRET
          CFI EndBlock cfiBlock2
        REQUIRE P0SEL
        REQUIRE P0DIR
//   53 /**************************************
//   54 起始信号
//   55 **************************************/

        RSEG BANKED_CODE:CODE:NOROOT(0)
//   56 void I2C_Start()
I2C_Start:
          CFI Block cfiBlock3 Using cfiCommon0
          CFI Function I2C_Start
        CODE
//   57 {
        FUNCALL I2C_Start, Delay_us
        LOCFRAME ISTACK, 2, STACK
        LOCFRAME PSTACK, 0, STACK
        LOCFRAME XSTACK, 0, STACK
        LOCFRAME IOVERLAY, 0, STATIC
        LOCFRAME DOVERLAY, 0, STATIC
        ARGFRAME ISTACK, 2, STACK
        ARGFRAME PSTACK, 0, STACK
        ARGFRAME XSTACK, 0, STACK
        ARGFRAME IOVERLAY, 0, STATIC
        ARGFRAME DOVERLAY, 0, STATIC
        FUNCALL I2C_Start, Delay_us
        LOCFRAME ISTACK, 2, STACK
        LOCFRAME PSTACK, 0, STACK
        LOCFRAME XSTACK, 0, STACK
        LOCFRAME IOVERLAY, 0, STATIC
        LOCFRAME DOVERLAY, 0, STATIC
        ARGFRAME ISTACK, 2, STACK
        ARGFRAME PSTACK, 0, STACK
        ARGFRAME XSTACK, 0, STACK
        ARGFRAME IOVERLAY, 0, STATIC
        ARGFRAME DOVERLAY, 0, STATIC
        PUSH    DPL
          CFI DPL0 Frame(CFA_SP, 4)
          CFI CFA_SP SP+-4
        PUSH    DPH
          CFI DPH0 Frame(CFA_SP, 5)
          CFI CFA_SP SP+-5
        ; Saved register size: 2
        ; Auto size: 0
//   58     P0DIR |= 0x80;
        ORL     0xfd,#0x80
//   59     SDA = 1;                    //拉高数据线
        SETB    0x80.7
//   60     SCL = 1;                    //拉高时钟线
        SETB    0x80.6
//   61     Delay_us(5);                //延时
        ; Setup parameters for call to function Delay_us
        MOV     R2,#0x5
        MOV     R3,#0x0
        LCALL   `??Delay_us::?relay` ; Banked call to: Delay_us
//   62     SDA = 0;                    //产生下降沿
        CLR     0x80.7
//   63     Delay_us(5);                //延时
        ; Setup parameters for call to function Delay_us
        MOV     R2,#0x5
        MOV     R3,#0x0
        LCALL   `??Delay_us::?relay` ; Banked call to: Delay_us
//   64     SCL = 0;                    //拉低时钟线
        CLR     0x80.6
//   65 }
        POP     DPH
          CFI DPH0 SameValue
          CFI CFA_SP SP+-4
        POP     DPL
          CFI DPL0 SameValue
          CFI CFA_SP SP+-3
        LJMP    ?BRET
          CFI EndBlock cfiBlock3
        REQUIRE P0DIR
        REQUIRE _A_P0
//   66 
//   67 
//   68 /**************************************
//   69 停止信号
//   70 **************************************/

        RSEG BANKED_CODE:CODE:NOROOT(0)
//   71 void  I2C_Stop()
I2C_Stop:
          CFI Block cfiBlock4 Using cfiCommon0
          CFI Function I2C_Stop
        CODE
//   72 {
        FUNCALL I2C_Stop, Delay_us
        LOCFRAME ISTACK, 2, STACK
        LOCFRAME PSTACK, 0, STACK
        LOCFRAME XSTACK, 0, STACK
        LOCFRAME IOVERLAY, 0, STATIC
        LOCFRAME DOVERLAY, 0, STATIC
        ARGFRAME ISTACK, 2, STACK
        ARGFRAME PSTACK, 0, STACK
        ARGFRAME XSTACK, 0, STACK
        ARGFRAME IOVERLAY, 0, STATIC
        ARGFRAME DOVERLAY, 0, STATIC
        FUNCALL I2C_Stop, Delay_us
        LOCFRAME ISTACK, 2, STACK
        LOCFRAME PSTACK, 0, STACK
        LOCFRAME XSTACK, 0, STACK
        LOCFRAME IOVERLAY, 0, STATIC
        LOCFRAME DOVERLAY, 0, STATIC
        ARGFRAME ISTACK, 2, STACK
        ARGFRAME PSTACK, 0, STACK
        ARGFRAME XSTACK, 0, STACK
        ARGFRAME IOVERLAY, 0, STATIC
        ARGFRAME DOVERLAY, 0, STATIC
        PUSH    DPL
          CFI DPL0 Frame(CFA_SP, 4)
          CFI CFA_SP SP+-4
        PUSH    DPH
          CFI DPH0 Frame(CFA_SP, 5)
          CFI CFA_SP SP+-5
        ; Saved register size: 2
        ; Auto size: 0
//   73     P0DIR|=0x80;
        ORL     0xfd,#0x80
//   74     SDA = 0;                    //拉低数据线
        CLR     0x80.7
//   75     SCL = 1;                    //拉高时钟线
        SETB    0x80.6
//   76     Delay_us(5);                //延时
        ; Setup parameters for call to function Delay_us
        MOV     R2,#0x5
        MOV     R3,#0x0
        LCALL   `??Delay_us::?relay` ; Banked call to: Delay_us
//   77     SDA = 1;                    //产生上升沿
        SETB    0x80.7
//   78     Delay_us(5);                //延时
        ; Setup parameters for call to function Delay_us
        MOV     R2,#0x5
        MOV     R3,#0x0
        LCALL   `??Delay_us::?relay` ; Banked call to: Delay_us
//   79 }
        POP     DPH
          CFI DPH0 SameValue
          CFI CFA_SP SP+-4
        POP     DPL
          CFI DPL0 SameValue
          CFI CFA_SP SP+-3
        LJMP    ?BRET
          CFI EndBlock cfiBlock4
        REQUIRE P0DIR
        REQUIRE _A_P0
//   80 
//   81 /**************************************
//   82 发送应答信号
//   83 入口参数:ack (0:ACK 1:NAK)
//   84 **************************************/

        RSEG BANKED_CODE:CODE:NOROOT(0)
//   85 void SendACK()
SendACK:
          CFI Block cfiBlock5 Using cfiCommon0
          CFI Function SendACK
        CODE
//   86 {
        FUNCALL SendACK, Delay_us
        LOCFRAME ISTACK, 2, STACK
        LOCFRAME PSTACK, 0, STACK
        LOCFRAME XSTACK, 0, STACK
        LOCFRAME IOVERLAY, 0, STATIC
        LOCFRAME DOVERLAY, 0, STATIC
        ARGFRAME ISTACK, 2, STACK
        ARGFRAME PSTACK, 0, STACK
        ARGFRAME XSTACK, 0, STACK
        ARGFRAME IOVERLAY, 0, STATIC
        ARGFRAME DOVERLAY, 0, STATIC
        PUSH    DPL
          CFI DPL0 Frame(CFA_SP, 4)
          CFI CFA_SP SP+-4
        PUSH    DPH
          CFI DPH0 Frame(CFA_SP, 5)
          CFI CFA_SP SP+-5
        ; Saved register size: 2
        ; Auto size: 0
//   87     P0DIR|=0x80;
        ORL     0xfd,#0x80
//   88     SDA = 0;                    //写应答信号
        CLR     0x80.7
//   89     SCL = 1;                    //拉高时钟线
        SETB    0x80.6
//   90     Delay_us(5);                //延时
        ; Setup parameters for call to function Delay_us
        MOV     R2,#0x5
        MOV     R3,#0x0
        LCALL   `??Delay_us::?relay` ; Banked call to: Delay_us
//   91     SCL = 0;                    //拉低时钟线
        CLR     0x80.6
//   92     SDA = 1;  
        SETB    0x80.7
//   93 }
        POP     DPH
          CFI DPH0 SameValue
          CFI CFA_SP SP+-4
        POP     DPL
          CFI DPL0 SameValue
          CFI CFA_SP SP+-3
        LJMP    ?BRET
          CFI EndBlock cfiBlock5
        REQUIRE P0DIR
        REQUIRE _A_P0
//   94 

        RSEG BANKED_CODE:CODE:NOROOT(0)
//   95 void SendNCK()
SendNCK:
          CFI Block cfiBlock6 Using cfiCommon0
          CFI Function SendNCK
        CODE
//   96 {
        FUNCALL SendNCK, Delay_us
        LOCFRAME ISTACK, 2, STACK
        LOCFRAME PSTACK, 0, STACK
        LOCFRAME XSTACK, 0, STACK
        LOCFRAME IOVERLAY, 0, STATIC
        LOCFRAME DOVERLAY, 0, STATIC
        ARGFRAME ISTACK, 2, STACK
        ARGFRAME PSTACK, 0, STACK
        ARGFRAME XSTACK, 0, STACK
        ARGFRAME IOVERLAY, 0, STATIC
        ARGFRAME DOVERLAY, 0, STATIC
        PUSH    DPL
          CFI DPL0 Frame(CFA_SP, 4)
          CFI CFA_SP SP+-4
        PUSH    DPH
          CFI DPH0 Frame(CFA_SP, 5)
          CFI CFA_SP SP+-5
        ; Saved register size: 2
        ; Auto size: 0
//   97     P0DIR|=0x80;
        ORL     0xfd,#0x80
//   98     SDA = 1;                    //写应答信号
        SETB    0x80.7
//   99     SCL = 1;                    //拉高时钟线
        SETB    0x80.6
//  100     Delay_us(5);                //延时
        ; Setup parameters for call to function Delay_us
        MOV     R2,#0x5
        MOV     R3,#0x0
        LCALL   `??Delay_us::?relay` ; Banked call to: Delay_us
//  101     SCL = 0;                    //拉低时钟线
        CLR     0x80.6
//  102     SDA = 0; 
        CLR     0x80.7
//  103 }
        POP     DPH
          CFI DPH0 SameValue
          CFI CFA_SP SP+-4
        POP     DPL
          CFI DPL0 SameValue
          CFI CFA_SP SP+-3
        LJMP    ?BRET
          CFI EndBlock cfiBlock6
        REQUIRE P0DIR
        REQUIRE _A_P0
//  104 
//  105 /*----------------------------------------------------------------              
//  106 I2C写入一个8位二进制数，高位在前低位在后
//  107 ------------------------------------------------------------------*/

        RSEG BANKED_CODE:CODE:NOROOT(0)
//  108 void  I2C_SendByte(unsigned char c)
I2C_SendByte:
          CFI Block cfiBlock7 Using cfiCommon0
          CFI Function I2C_SendByte
        CODE
//  109 {
        FUNCALL I2C_SendByte, Delay_us
        LOCFRAME ISTACK, 0, STACK
        LOCFRAME PSTACK, 0, STACK
        LOCFRAME XSTACK, 10, STACK
        LOCFRAME IOVERLAY, 0, STATIC
        LOCFRAME DOVERLAY, 0, STATIC
        ARGFRAME ISTACK, 0, STACK
        ARGFRAME PSTACK, 0, STACK
        ARGFRAME XSTACK, 10, STACK
        ARGFRAME IOVERLAY, 0, STATIC
        ARGFRAME DOVERLAY, 0, STATIC
        FUNCALL I2C_SendByte, Delay_us
        LOCFRAME ISTACK, 0, STACK
        LOCFRAME PSTACK, 0, STACK
        LOCFRAME XSTACK, 10, STACK
        LOCFRAME IOVERLAY, 0, STATIC
        LOCFRAME DOVERLAY, 0, STATIC
        ARGFRAME ISTACK, 0, STACK
        ARGFRAME PSTACK, 0, STACK
        ARGFRAME XSTACK, 10, STACK
        ARGFRAME IOVERLAY, 0, STATIC
        ARGFRAME DOVERLAY, 0, STATIC
        FUNCALL I2C_SendByte, Delay_us
        LOCFRAME ISTACK, 0, STACK
        LOCFRAME PSTACK, 0, STACK
        LOCFRAME XSTACK, 10, STACK
        LOCFRAME IOVERLAY, 0, STATIC
        LOCFRAME DOVERLAY, 0, STATIC
        ARGFRAME ISTACK, 0, STACK
        ARGFRAME PSTACK, 0, STACK
        ARGFRAME XSTACK, 10, STACK
        ARGFRAME IOVERLAY, 0, STATIC
        ARGFRAME DOVERLAY, 0, STATIC
        REQUIRE ?V0
        REQUIRE ?V1
        MOV     A,#-0xa
        LCALL   ?BANKED_ENTER_XDATA
          CFI DPH0 load(1, XDATA, add(CFA_XSP16, literal(-1)))
          CFI DPL0 load(1, XDATA, add(CFA_XSP16, literal(-2)))
          CFI ?BRET_EXT load(1, XDATA, add(CFA_XSP16, literal(-3)))
          CFI ?RET_HIGH load(1, XDATA, add(CFA_XSP16, literal(-4)))
          CFI ?RET_LOW load(1, XDATA, add(CFA_XSP16, literal(-5)))
          CFI R7 load(1, XDATA, add(CFA_XSP16, literal(-6)))
          CFI V1 load(1, XDATA, add(CFA_XSP16, literal(-7)))
          CFI V0 load(1, XDATA, add(CFA_XSP16, literal(-8)))
          CFI VB load(1, XDATA, add(CFA_XSP16, literal(-9)))
          CFI R6 load(1, XDATA, add(CFA_XSP16, literal(-10)))
          CFI CFA_SP SP+0
          CFI CFA_XSP16 add(XSP16, 10)
        ; Saved register size: 10
        ; Auto size: 0
        MOV     A,R1
        MOV     R7,A
//  110   unsigned char BitCnt;
//  111   P0DIR|=0x80;
        ORL     0xfd,#0x80
//  112   for(BitCnt=0;BitCnt<8;BitCnt++)  //要传送的数据长度为8位
        MOV     R6,#0x0
??I2C_SendByte_0:
        MOV     A,R6
        CLR     C
        SUBB    A,#0x8
        JNC     ??I2C_SendByte_1
//  113     {
//  114      
//  115       if((c<<BitCnt)&0x80) SDA=1;   //判断发送位
        MOV     ?V0,R7
        MOV     ?V1,#0x0
        MOV     A,R6
        MOV     R0,#?V0
        LCALL   ?S_SHL
        MOV     A,?V0
        ANL     A,#0x80
        JZ      ??I2C_SendByte_2
        SETB    0x80.7
        SJMP    ??I2C_SendByte_3
//  116        else  SDA=0;                
??I2C_SendByte_2:
        CLR     0x80.7
//  117      SCL=1;               //置时钟线为高，通知被控器开始接收数据位
??I2C_SendByte_3:
        SETB    0x80.6
//  118      Delay_us(5);         //保证时钟高电平周期大于4μ      
        ; Setup parameters for call to function Delay_us
        MOV     R2,#0x5
        MOV     R3,#0x0
        LCALL   `??Delay_us::?relay` ; Banked call to: Delay_us
//  119      SCL=0; 
        CLR     0x80.6
//  120     }  
        INC     R6
        SJMP    ??I2C_SendByte_0
//  121      SDA=1;
??I2C_SendByte_1:
        SETB    0x80.7
//  122     Delay_us(5);
        ; Setup parameters for call to function Delay_us
        MOV     R2,#0x5
        MOV     R3,#0x0
        LCALL   `??Delay_us::?relay` ; Banked call to: Delay_us
//  123     P0DIR&=~0x80;          //8位发送完后释放数据线，准备接收应答位
        ANL     0xfd,#0x7f
//  124     SCL=1;
        SETB    0x80.6
//  125     Delay_us(5);
        ; Setup parameters for call to function Delay_us
        MOV     R2,#0x5
        MOV     R3,#0x0
        LCALL   `??Delay_us::?relay` ; Banked call to: Delay_us
//  126     if(SDA==1)ack=0;     
        MOV     C,0x80.7
        JNC     ??I2C_SendByte_4
        MOV     DPTR,#ack
        MOV     A,#0x0
        MOVX    @DPTR,A
        SJMP    ??I2C_SendByte_5
//  127        else ack=1;        //判断是否接收到应答信号，“SDA=1”：没有
??I2C_SendByte_4:
        MOV     DPTR,#ack
        MOV     A,#0x1
        MOVX    @DPTR,A
//  128     SCL=0;
??I2C_SendByte_5:
        CLR     0x80.6
//  129 }
        MOV     R7,#0x2
        LJMP    ?BANKED_LEAVE_XDATA
          CFI EndBlock cfiBlock7
        REQUIRE P0DIR
        REQUIRE _A_P0
//  130 
//  131 /*******************************************************************
//  132                  向无子地址器件发送字节数据函数               
//  133 函数原型: bit  I2C_ISendByte(unsigned char sla,ucahr c);  
//  134 功能:     从启动总线到发送地址，数据，结束总线的全过程,从器件地址sla.
//  135           如果返回1表示操作成功，否则操作有误。
//  136 注意：    使用前必须已结束总线。
//  137 ********************************************************************/

        RSEG BANKED_CODE:CODE:NOROOT(0)
//  138 unsigned char I2C_ISendByte(unsigned char sla,unsigned char c)
I2C_ISendByte:
          CFI Block cfiBlock8 Using cfiCommon0
          CFI Function I2C_ISendByte
        CODE
//  139 {
        FUNCALL I2C_ISendByte, I2C_Start
        LOCFRAME ISTACK, 0, STACK
        LOCFRAME PSTACK, 0, STACK
        LOCFRAME XSTACK, 9, STACK
        LOCFRAME IOVERLAY, 0, STATIC
        LOCFRAME DOVERLAY, 0, STATIC
        ARGFRAME ISTACK, 0, STACK
        ARGFRAME PSTACK, 0, STACK
        ARGFRAME XSTACK, 9, STACK
        ARGFRAME IOVERLAY, 0, STATIC
        ARGFRAME DOVERLAY, 0, STATIC
        FUNCALL I2C_ISendByte, I2C_SendByte
        LOCFRAME ISTACK, 0, STACK
        LOCFRAME PSTACK, 0, STACK
        LOCFRAME XSTACK, 9, STACK
        LOCFRAME IOVERLAY, 0, STATIC
        LOCFRAME DOVERLAY, 0, STATIC
        ARGFRAME ISTACK, 0, STACK
        ARGFRAME PSTACK, 0, STACK
        ARGFRAME XSTACK, 9, STACK
        ARGFRAME IOVERLAY, 0, STATIC
        ARGFRAME DOVERLAY, 0, STATIC
        FUNCALL I2C_ISendByte, I2C_SendByte
        LOCFRAME ISTACK, 0, STACK
        LOCFRAME PSTACK, 0, STACK
        LOCFRAME XSTACK, 9, STACK
        LOCFRAME IOVERLAY, 0, STATIC
        LOCFRAME DOVERLAY, 0, STATIC
        ARGFRAME ISTACK, 0, STACK
        ARGFRAME PSTACK, 0, STACK
        ARGFRAME XSTACK, 9, STACK
        ARGFRAME IOVERLAY, 0, STATIC
        ARGFRAME DOVERLAY, 0, STATIC
        FUNCALL I2C_ISendByte, I2C_Stop
        LOCFRAME ISTACK, 0, STACK
        LOCFRAME PSTACK, 0, STACK
        LOCFRAME XSTACK, 9, STACK
        LOCFRAME IOVERLAY, 0, STATIC
        LOCFRAME DOVERLAY, 0, STATIC
        ARGFRAME ISTACK, 0, STACK
        ARGFRAME PSTACK, 0, STACK
        ARGFRAME XSTACK, 9, STACK
        ARGFRAME IOVERLAY, 0, STATIC
        ARGFRAME DOVERLAY, 0, STATIC
        MOV     A,#-0x9
        LCALL   ?BANKED_ENTER_XDATA
          CFI DPH0 load(1, XDATA, add(CFA_XSP16, literal(-1)))
          CFI DPL0 load(1, XDATA, add(CFA_XSP16, literal(-2)))
          CFI ?BRET_EXT load(1, XDATA, add(CFA_XSP16, literal(-3)))
          CFI ?RET_HIGH load(1, XDATA, add(CFA_XSP16, literal(-4)))
          CFI ?RET_LOW load(1, XDATA, add(CFA_XSP16, literal(-5)))
          CFI R7 load(1, XDATA, add(CFA_XSP16, literal(-6)))
          CFI V0 load(1, XDATA, add(CFA_XSP16, literal(-7)))
          CFI VB load(1, XDATA, add(CFA_XSP16, literal(-8)))
          CFI R6 load(1, XDATA, add(CFA_XSP16, literal(-9)))
          CFI CFA_SP SP+0
          CFI CFA_XSP16 add(XSP16, 9)
        ; Saved register size: 9
        ; Auto size: 0
        MOV     A,R1
        MOV     R7,A
        MOV     A,R2
        MOV     R6,A
//  140    I2C_Start();               /*启动总线*/
        ; Setup parameters for call to function I2C_Start
        LCALL   `??I2C_Start::?relay`; Banked call to: I2C_Start
//  141    I2C_SendByte(sla);             /*发送器件地址*/
        ; Setup parameters for call to function I2C_SendByte
        MOV     A,R7
        MOV     R1,A
        LCALL   `??I2C_SendByte::?relay`; Banked call to: I2C_SendByte
//  142    if(ack==0)return(0);
        MOV     DPTR,#ack
        MOVX    A,@DPTR
        JNZ     ??I2C_ISendByte_0
        MOV     R1,#0x0
        SJMP    ??I2C_ISendByte_1
//  143    I2C_SendByte(c);               /*发送数据*/
??I2C_ISendByte_0:
        ; Setup parameters for call to function I2C_SendByte
        MOV     A,R6
        MOV     R1,A
        LCALL   `??I2C_SendByte::?relay`; Banked call to: I2C_SendByte
//  144    if(ack==0)return(0);
        MOV     DPTR,#ack
        MOVX    A,@DPTR
        JNZ     ??I2C_ISendByte_2
        MOV     R1,#0x0
        SJMP    ??I2C_ISendByte_1
//  145    I2C_Stop();                /*结束总线*/ 
??I2C_ISendByte_2:
        ; Setup parameters for call to function I2C_Stop
        LCALL   `??I2C_Stop::?relay` ; Banked call to: I2C_Stop
//  146    return(1);
        MOV     R1,#0x1
??I2C_ISendByte_1:
        MOV     R7,#0x1
        LJMP    ?BANKED_LEAVE_XDATA
//  147 }
          CFI EndBlock cfiBlock8
//  148 
//  149 /*******************************************************************
//  150 I2C读取一个8位二进制数，也是高位在前低位在后  
//  151 ****************************************************************/	

        RSEG BANKED_CODE:CODE:NOROOT(0)
//  152 unsigned char I2C_RcvByte()
I2C_RcvByte:
          CFI Block cfiBlock9 Using cfiCommon0
          CFI Function I2C_RcvByte
        CODE
//  153 {
        FUNCALL I2C_RcvByte, Delay_us
        LOCFRAME ISTACK, 0, STACK
        LOCFRAME PSTACK, 0, STACK
        LOCFRAME XSTACK, 9, STACK
        LOCFRAME IOVERLAY, 0, STATIC
        LOCFRAME DOVERLAY, 0, STATIC
        ARGFRAME ISTACK, 0, STACK
        ARGFRAME PSTACK, 0, STACK
        ARGFRAME XSTACK, 9, STACK
        ARGFRAME IOVERLAY, 0, STATIC
        ARGFRAME DOVERLAY, 0, STATIC
        FUNCALL I2C_RcvByte, Delay_us
        LOCFRAME ISTACK, 0, STACK
        LOCFRAME PSTACK, 0, STACK
        LOCFRAME XSTACK, 9, STACK
        LOCFRAME IOVERLAY, 0, STATIC
        LOCFRAME DOVERLAY, 0, STATIC
        ARGFRAME ISTACK, 0, STACK
        ARGFRAME PSTACK, 0, STACK
        ARGFRAME XSTACK, 9, STACK
        ARGFRAME IOVERLAY, 0, STATIC
        ARGFRAME DOVERLAY, 0, STATIC
        MOV     A,#-0x9
        LCALL   ?BANKED_ENTER_XDATA
          CFI DPH0 load(1, XDATA, add(CFA_XSP16, literal(-1)))
          CFI DPL0 load(1, XDATA, add(CFA_XSP16, literal(-2)))
          CFI ?BRET_EXT load(1, XDATA, add(CFA_XSP16, literal(-3)))
          CFI ?RET_HIGH load(1, XDATA, add(CFA_XSP16, literal(-4)))
          CFI ?RET_LOW load(1, XDATA, add(CFA_XSP16, literal(-5)))
          CFI R7 load(1, XDATA, add(CFA_XSP16, literal(-6)))
          CFI V0 load(1, XDATA, add(CFA_XSP16, literal(-7)))
          CFI VB load(1, XDATA, add(CFA_XSP16, literal(-8)))
          CFI R6 load(1, XDATA, add(CFA_XSP16, literal(-9)))
          CFI CFA_SP SP+0
          CFI CFA_XSP16 add(XSP16, 9)
        ; Saved register size: 9
        ; Auto size: 0
//  154   unsigned char retc;
//  155   unsigned char BitCnt;
//  156   retc=0; 
        MOV     R6,#0x0
//  157   P0DIR &= ~0x80;         //置数据线为输入方式
        ANL     0xfd,#0x7f
//  158   for(BitCnt=0;BitCnt<8;BitCnt++)
        MOV     R7,#0x0
??I2C_RcvByte_0:
        MOV     A,R7
        CLR     C
        SUBB    A,#0x8
        JNC     ??I2C_RcvByte_1
//  159   {       
//  160     SCL=0;      
        CLR     0x80.6
//  161     Delay_us(5); //时钟低电平周期大于4.7us
        ; Setup parameters for call to function Delay_us
        MOV     R2,#0x5
        MOV     R3,#0x0
        LCALL   `??Delay_us::?relay` ; Banked call to: Delay_us
//  162     if(SDA==1) retc=retc+1; //读数据位,接收的数据位放入retc中
        MOV     C,0x80.7
        JNC     ??I2C_RcvByte_2
        INC     R6
//  163     SCL=1;
??I2C_RcvByte_2:
        SETB    0x80.6
//  164     retc=retc<<1;
        MOV     A,R6
        CLR     C
        RLC     A
        MOV     R6,A
//  165     Delay_us(5);  
        ; Setup parameters for call to function Delay_us
        MOV     R2,#0x5
        MOV     R3,#0x0
        LCALL   `??Delay_us::?relay` ; Banked call to: Delay_us
//  166   }   
        INC     R7
        SJMP    ??I2C_RcvByte_0
//  167   SCL=0; 
??I2C_RcvByte_1:
        CLR     0x80.6
//  168   return(retc);
        MOV     A,R6
        MOV     R1,A
        MOV     R7,#0x1
        LJMP    ?BANKED_LEAVE_XDATA
          CFI EndBlock cfiBlock9
        REQUIRE P0DIR
        REQUIRE _A_P0
//  169 }
//  170 
//  171 //*********************************************************
//  172 //从sla连续读出no个数据到*s
//  173 //*********************************************************

        RSEG BANKED_CODE:CODE:NOROOT(0)
//  174 unsigned char I2C_IRcvStrExt(unsigned char sla,unsigned char *s,unsigned char no)
I2C_IRcvStrExt:
          CFI Block cfiBlock10 Using cfiCommon0
          CFI Function I2C_IRcvStrExt
        CODE
//  175 {   
        FUNCALL I2C_IRcvStrExt, I2C_Start
        LOCFRAME ISTACK, 0, STACK
        LOCFRAME PSTACK, 0, STACK
        LOCFRAME XSTACK, 11, STACK
        LOCFRAME IOVERLAY, 0, STATIC
        LOCFRAME DOVERLAY, 0, STATIC
        ARGFRAME ISTACK, 0, STACK
        ARGFRAME PSTACK, 0, STACK
        ARGFRAME XSTACK, 11, STACK
        ARGFRAME IOVERLAY, 0, STATIC
        ARGFRAME DOVERLAY, 0, STATIC
        FUNCALL I2C_IRcvStrExt, I2C_SendByte
        LOCFRAME ISTACK, 0, STACK
        LOCFRAME PSTACK, 0, STACK
        LOCFRAME XSTACK, 11, STACK
        LOCFRAME IOVERLAY, 0, STATIC
        LOCFRAME DOVERLAY, 0, STATIC
        ARGFRAME ISTACK, 0, STACK
        ARGFRAME PSTACK, 0, STACK
        ARGFRAME XSTACK, 11, STACK
        ARGFRAME IOVERLAY, 0, STATIC
        ARGFRAME DOVERLAY, 0, STATIC
        FUNCALL I2C_IRcvStrExt, I2C_RcvByte
        LOCFRAME ISTACK, 0, STACK
        LOCFRAME PSTACK, 0, STACK
        LOCFRAME XSTACK, 11, STACK
        LOCFRAME IOVERLAY, 0, STATIC
        LOCFRAME DOVERLAY, 0, STATIC
        ARGFRAME ISTACK, 0, STACK
        ARGFRAME PSTACK, 0, STACK
        ARGFRAME XSTACK, 11, STACK
        ARGFRAME IOVERLAY, 0, STATIC
        ARGFRAME DOVERLAY, 0, STATIC
        FUNCALL I2C_IRcvStrExt, SendACK
        LOCFRAME ISTACK, 0, STACK
        LOCFRAME PSTACK, 0, STACK
        LOCFRAME XSTACK, 11, STACK
        LOCFRAME IOVERLAY, 0, STATIC
        LOCFRAME DOVERLAY, 0, STATIC
        ARGFRAME ISTACK, 0, STACK
        ARGFRAME PSTACK, 0, STACK
        ARGFRAME XSTACK, 11, STACK
        ARGFRAME IOVERLAY, 0, STATIC
        ARGFRAME DOVERLAY, 0, STATIC
        FUNCALL I2C_IRcvStrExt, I2C_RcvByte
        LOCFRAME ISTACK, 0, STACK
        LOCFRAME PSTACK, 0, STACK
        LOCFRAME XSTACK, 11, STACK
        LOCFRAME IOVERLAY, 0, STATIC
        LOCFRAME DOVERLAY, 0, STATIC
        ARGFRAME ISTACK, 0, STACK
        ARGFRAME PSTACK, 0, STACK
        ARGFRAME XSTACK, 11, STACK
        ARGFRAME IOVERLAY, 0, STATIC
        ARGFRAME DOVERLAY, 0, STATIC
        FUNCALL I2C_IRcvStrExt, SendNCK
        LOCFRAME ISTACK, 0, STACK
        LOCFRAME PSTACK, 0, STACK
        LOCFRAME XSTACK, 11, STACK
        LOCFRAME IOVERLAY, 0, STATIC
        LOCFRAME DOVERLAY, 0, STATIC
        ARGFRAME ISTACK, 0, STACK
        ARGFRAME PSTACK, 0, STACK
        ARGFRAME XSTACK, 11, STACK
        ARGFRAME IOVERLAY, 0, STATIC
        ARGFRAME DOVERLAY, 0, STATIC
        FUNCALL I2C_IRcvStrExt, I2C_Stop
        LOCFRAME ISTACK, 0, STACK
        LOCFRAME PSTACK, 0, STACK
        LOCFRAME XSTACK, 11, STACK
        LOCFRAME IOVERLAY, 0, STATIC
        LOCFRAME DOVERLAY, 0, STATIC
        ARGFRAME ISTACK, 0, STACK
        ARGFRAME PSTACK, 0, STACK
        ARGFRAME XSTACK, 11, STACK
        ARGFRAME IOVERLAY, 0, STATIC
        ARGFRAME DOVERLAY, 0, STATIC
        REQUIRE ?V0
        REQUIRE ?V1
        REQUIRE ?V2
        MOV     A,#-0xb
        LCALL   ?BANKED_ENTER_XDATA
          CFI DPH0 load(1, XDATA, add(CFA_XSP16, literal(-1)))
          CFI DPL0 load(1, XDATA, add(CFA_XSP16, literal(-2)))
          CFI ?BRET_EXT load(1, XDATA, add(CFA_XSP16, literal(-3)))
          CFI ?RET_HIGH load(1, XDATA, add(CFA_XSP16, literal(-4)))
          CFI ?RET_LOW load(1, XDATA, add(CFA_XSP16, literal(-5)))
          CFI R7 load(1, XDATA, add(CFA_XSP16, literal(-6)))
          CFI V2 load(1, XDATA, add(CFA_XSP16, literal(-7)))
          CFI V1 load(1, XDATA, add(CFA_XSP16, literal(-8)))
          CFI V0 load(1, XDATA, add(CFA_XSP16, literal(-9)))
          CFI VB load(1, XDATA, add(CFA_XSP16, literal(-10)))
          CFI R6 load(1, XDATA, add(CFA_XSP16, literal(-11)))
          CFI CFA_SP SP+0
          CFI CFA_XSP16 add(XSP16, 11)
        ; Saved register size: 11
        ; Auto size: 0
        MOV     ?V0,R1
        MOV     A,R2
        MOV     R6,A
        MOV     A,R3
        MOV     R7,A
        MOV     ?V2,R4
//  176     unsigned char i;	
//  177     I2C_Start();                         //起始信号
        ; Setup parameters for call to function I2C_Start
        LCALL   `??I2C_Start::?relay`; Banked call to: I2C_Start
//  178     I2C_SendByte(sla+1);        //发送设备地址+读信号
        ; Setup parameters for call to function I2C_SendByte
        MOV     A,#0x1
        ADD     A,?V0
        MOV     R1,A
        LCALL   `??I2C_SendByte::?relay`; Banked call to: I2C_SendByte
//  179     if(ack==0)return(0);
        MOV     DPTR,#ack
        MOVX    A,@DPTR
        JNZ     ??I2C_IRcvStrExt_0
        MOV     R1,#0x0
        SJMP    ??I2C_IRcvStrExt_1
//  180       for (i=0; i<no-1; i++)                      //连续读取6个地址数据，存储中BUF
??I2C_IRcvStrExt_0:
        MOV     ?V1,#0x0
??I2C_IRcvStrExt_2:
        MOV     R2,?V1
        MOV     R3,#0x0
        MOV     R0,?V2
        MOV     R1,#0x0
        MOV     A,R0
        ADD     A,#-0x1
        MOV     R0,A
        MOV     A,R1
        ADDC    A,#-0x1
        MOV     R1,A
        CLR     C
        MOV     A,R2
        SUBB    A,R0
        MOV     A,R3
        SUBB    A,R1
        MOV     C,0xD0 /* PSW */.2
        XRL     A,PSW
        RLC     A
        JNC     ??I2C_IRcvStrExt_3
//  181       {
//  182         *s=I2C_RcvByte();      
        ; Setup parameters for call to function I2C_RcvByte
        LCALL   `??I2C_RcvByte::?relay`; Banked call to: I2C_RcvByte
        MOV     A,R1
        PUSH    A
          CFI CFA_SP SP+-1
        MOV     DPL,R6
        MOV     DPH,R7
        POP     A
          CFI CFA_SP SP+0
        MOVX    @DPTR,A
//  183         SendACK();                //回应ACK
        ; Setup parameters for call to function SendACK
        LCALL   `??SendACK::?relay`  ; Banked call to: SendACK
//  184         s++;
        MOV     DPL,R6
        MOV     DPH,R7
        INC     DPTR
        MOV     R6,DPL
        MOV     R7,DPH
//  185       }		
        INC     ?V1
        SJMP    ??I2C_IRcvStrExt_2
//  186         *s=I2C_RcvByte();
??I2C_IRcvStrExt_3:
        ; Setup parameters for call to function I2C_RcvByte
        LCALL   `??I2C_RcvByte::?relay`; Banked call to: I2C_RcvByte
        MOV     A,R1
        PUSH    A
          CFI CFA_SP SP+-1
        MOV     DPL,R6
        MOV     DPH,R7
        POP     A
          CFI CFA_SP SP+0
        MOVX    @DPTR,A
//  187         SendNCK();      //最后一个数据需要回NOACK             
        ; Setup parameters for call to function SendNCK
        LCALL   `??SendNCK::?relay`  ; Banked call to: SendNCK
//  188         I2C_Stop();   
        ; Setup parameters for call to function I2C_Stop
        LCALL   `??I2C_Stop::?relay` ; Banked call to: I2C_Stop
//  189         return(1);
        MOV     R1,#0x1
??I2C_IRcvStrExt_1:
        MOV     R7,#0x3
        LJMP    ?BANKED_LEAVE_XDATA
//  190 }
          CFI EndBlock cfiBlock10

        RSEG BANK_RELAYS:CODE:REORDER:NOROOT(0)
`??Delay_us::?relay`:
        CODE
        LCALL   ?BDISPATCH
        DATA24
        DC24    Delay_us

        RSEG BANK_RELAYS:CODE:REORDER:NOROOT(0)
`??Delay_ms::?relay`:
        CODE
        LCALL   ?BDISPATCH
        DATA24
        DC24    Delay_ms

        RSEG BANK_RELAYS:CODE:REORDER:NOROOT(0)
`??I2C_Init::?relay`:
        CODE
        LCALL   ?BDISPATCH
        DATA24
        DC24    I2C_Init

        RSEG BANK_RELAYS:CODE:REORDER:NOROOT(0)
`??I2C_Start::?relay`:
        CODE
        LCALL   ?BDISPATCH
        DATA24
        DC24    I2C_Start

        RSEG BANK_RELAYS:CODE:REORDER:NOROOT(0)
`??I2C_Stop::?relay`:
        CODE
        LCALL   ?BDISPATCH
        DATA24
        DC24    I2C_Stop

        RSEG BANK_RELAYS:CODE:REORDER:NOROOT(0)
`??SendACK::?relay`:
        CODE
        LCALL   ?BDISPATCH
        DATA24
        DC24    SendACK

        RSEG BANK_RELAYS:CODE:REORDER:NOROOT(0)
`??SendNCK::?relay`:
        CODE
        LCALL   ?BDISPATCH
        DATA24
        DC24    SendNCK

        RSEG BANK_RELAYS:CODE:REORDER:NOROOT(0)
`??I2C_SendByte::?relay`:
        CODE
        LCALL   ?BDISPATCH
        DATA24
        DC24    I2C_SendByte

        RSEG BANK_RELAYS:CODE:REORDER:NOROOT(0)
`??I2C_ISendByte::?relay`:
        CODE
        LCALL   ?BDISPATCH
        DATA24
        DC24    I2C_ISendByte

        RSEG BANK_RELAYS:CODE:REORDER:NOROOT(0)
`??I2C_RcvByte::?relay`:
        CODE
        LCALL   ?BDISPATCH
        DATA24
        DC24    I2C_RcvByte

        RSEG BANK_RELAYS:CODE:REORDER:NOROOT(0)
`??I2C_IRcvStrExt::?relay`:
        CODE
        LCALL   ?BDISPATCH
        DATA24
        DC24    I2C_IRcvStrExt

        END
// 
// 542 bytes in segment BANKED_CODE
//  66 bytes in segment BANK_RELAYS
//   3 bytes in segment SFR_AN
//   1 byte  in segment XDATA_Z
// 
// 608 bytes of CODE  memory
//   0 bytes of DATA  memory (+ 3 bytes shared)
//   1 byte  of XDATA memory
//
//Errors: none
//Warnings: none
